TN:
SF:/home/vera/poco/Foundation/include/Poco/UnbufferedStreamBuf.h
FN:50,_ZN4Poco24BasicUnbufferedStreamBufIcSt11char_traitsIcEEC2Ev
FN:58,_ZN4Poco24BasicUnbufferedStreamBufIcSt11char_traitsIcEED2Ev
FN:58,_ZN4Poco24BasicUnbufferedStreamBufIcSt11char_traitsIcEED0Ev
FN:62,_ZN4Poco24BasicUnbufferedStreamBufIcSt11char_traitsIcEE8overflowEi
FN:70,_ZN4Poco24BasicUnbufferedStreamBufIcSt11char_traitsIcEE9underflowEv
FN:88,_ZN4Poco24BasicUnbufferedStreamBufIcSt11char_traitsIcEE5uflowEv
FN:106,_ZN4Poco24BasicUnbufferedStreamBufIcSt11char_traitsIcEE9pbackfailEi
FN:120,_ZN4Poco24BasicUnbufferedStreamBufIcSt11char_traitsIcEE6xsgetnEPcl
FN:139,_ZN4Poco24BasicUnbufferedStreamBufIcSt11char_traitsIcEE9charToIntEc
FN:145,_ZN4Poco24BasicUnbufferedStreamBufIcSt11char_traitsIcEE14readFromDeviceEv
FN:150,_ZN4Poco24BasicUnbufferedStreamBufIcSt11char_traitsIcEE13writeToDeviceEc
FNDA:0,_ZN4Poco24BasicUnbufferedStreamBufIcSt11char_traitsIcEEC2Ev
FNDA:0,_ZN4Poco24BasicUnbufferedStreamBufIcSt11char_traitsIcEED0Ev
FNDA:0,_ZN4Poco24BasicUnbufferedStreamBufIcSt11char_traitsIcEED2Ev
FNDA:0,_ZN4Poco24BasicUnbufferedStreamBufIcSt11char_traitsIcEE8overflowEi
FNDA:0,_ZN4Poco24BasicUnbufferedStreamBufIcSt11char_traitsIcEE9underflowEv
FNDA:0,_ZN4Poco24BasicUnbufferedStreamBufIcSt11char_traitsIcEE5uflowEv
FNDA:0,_ZN4Poco24BasicUnbufferedStreamBufIcSt11char_traitsIcEE9pbackfailEi
FNDA:0,_ZN4Poco24BasicUnbufferedStreamBufIcSt11char_traitsIcEE6xsgetnEPcl
FNDA:0,_ZN4Poco24BasicUnbufferedStreamBufIcSt11char_traitsIcEE9charToIntEc
FNDA:0,_ZN4Poco24BasicUnbufferedStreamBufIcSt11char_traitsIcEE14readFromDeviceEv
FNDA:0,_ZN4Poco24BasicUnbufferedStreamBufIcSt11char_traitsIcEE13writeToDeviceEc
FNF:11
FNH:0
DA:50,0
DA:51,0
DA:52,0
DA:54,0
DA:55,0
DA:56,0
DA:58,0
DA:60,0
DA:62,0
DA:64,0
DA:65,0
DA:67,0
DA:70,0
DA:72,0
DA:74,0
DA:78,0
DA:79,0
DA:81,0
DA:82,0
DA:84,0
DA:88,0
DA:90,0
DA:92,0
DA:93,0
DA:97,0
DA:98,0
DA:100,0
DA:102,0
DA:106,0
DA:108,0
DA:110,0
DA:114,0
DA:115,0
DA:116,0
DA:120,0
DA:126,0
DA:127,0
DA:129,0
DA:130,0
DA:131,0
DA:132,0
DA:133,0
DA:135,0
DA:139,0
DA:141,0
DA:145,0
DA:147,0
DA:150,0
DA:152,0
LF:49
LH:0
end_of_record
SF:/home/vera/poco/Foundation/src/StreamConverter.cpp
FN:22,_ZN4Poco18StreamConverterBufC2ERSiRKNS_12TextEncodingES4_i
FN:35,_ZN4Poco18StreamConverterBufC2ERSoRKNS_12TextEncodingES4_i
FN:48,_ZN4Poco18StreamConverterBufD2Ev
FN:48,_ZN4Poco18StreamConverterBufD0Ev
FN:53,_ZN4Poco18StreamConverterBuf14readFromDeviceEv
FN:98,_ZN4Poco18StreamConverterBuf13writeToDeviceEc
FN:131,_ZNK4Poco18StreamConverterBuf6errorsEv
FN:137,_ZN4Poco18StreamConverterIOSC1ERSiRKNS_12TextEncodingES4_i
FN:137,_ZN4Poco18StreamConverterIOSC2ERSiRKNS_12TextEncodingES4_i
FN:144,_ZN4Poco18StreamConverterIOSC1ERSoRKNS_12TextEncodingES4_i
FN:144,_ZN4Poco18StreamConverterIOSC2ERSoRKNS_12TextEncodingES4_i
FN:151,_ZN4Poco18StreamConverterIOSD2Ev
FN:151,_ZN4Poco18StreamConverterIOSD0Ev
FN:151,_ZN4Poco18StreamConverterIOSD1Ev
FN:156,_ZN4Poco18StreamConverterIOS5rdbufEv
FN:162,_ZNK4Poco18StreamConverterIOS6errorsEv
FN:168,_ZN4Poco20InputStreamConverterC2ERSiRKNS_12TextEncodingES4_i
FN:168,_ZN4Poco20InputStreamConverterC1ERSiRKNS_12TextEncodingES4_i
FN:175,_ZN4Poco20InputStreamConverterD1Ev
FN:175,_ZN4Poco20InputStreamConverterD2Ev
FN:175,_ZN4Poco20InputStreamConverterD0Ev
FN:180,_ZN4Poco21OutputStreamConverterC1ERSoRKNS_12TextEncodingES4_i
FN:180,_ZN4Poco21OutputStreamConverterC2ERSoRKNS_12TextEncodingES4_i
FN:187,_ZN4Poco21OutputStreamConverterD0Ev
FN:187,_ZN4Poco21OutputStreamConverterD2Ev
FN:187,_ZN4Poco21OutputStreamConverterD1Ev
FN:192,_GLOBAL__sub_I_StreamConverter.cpp
FN:192,_Z41__static_initialization_and_destruction_0ii
FNDA:0,_ZN4Poco18StreamConverterBufC2ERSiRKNS_12TextEncodingES4_i
FNDA:0,_ZN4Poco18StreamConverterBufC2ERSoRKNS_12TextEncodingES4_i
FNDA:0,_ZN4Poco18StreamConverterBufD0Ev
FNDA:0,_ZN4Poco18StreamConverterBufD2Ev
FNDA:0,_ZN4Poco18StreamConverterBuf14readFromDeviceEv
FNDA:0,_ZN4Poco18StreamConverterBuf13writeToDeviceEc
FNDA:0,_ZNK4Poco18StreamConverterBuf6errorsEv
FNDA:0,_ZN4Poco18StreamConverterIOSC1ERSiRKNS_12TextEncodingES4_i
FNDA:0,_ZN4Poco18StreamConverterIOSC2ERSiRKNS_12TextEncodingES4_i
FNDA:0,_ZN4Poco18StreamConverterIOSC1ERSoRKNS_12TextEncodingES4_i
FNDA:0,_ZN4Poco18StreamConverterIOSC2ERSoRKNS_12TextEncodingES4_i
FNDA:0,_ZN4Poco18StreamConverterIOSD0Ev
FNDA:0,_ZN4Poco18StreamConverterIOSD1Ev
FNDA:0,_ZN4Poco18StreamConverterIOSD2Ev
FNDA:0,_ZN4Poco18StreamConverterIOS5rdbufEv
FNDA:0,_ZNK4Poco18StreamConverterIOS6errorsEv
FNDA:0,_ZN4Poco20InputStreamConverterC1ERSiRKNS_12TextEncodingES4_i
FNDA:0,_ZN4Poco20InputStreamConverterC2ERSiRKNS_12TextEncodingES4_i
FNDA:0,_ZN4Poco20InputStreamConverterD0Ev
FNDA:0,_ZN4Poco20InputStreamConverterD1Ev
FNDA:0,_ZN4Poco20InputStreamConverterD2Ev
FNDA:0,_ZN4Poco21OutputStreamConverterC1ERSoRKNS_12TextEncodingES4_i
FNDA:0,_ZN4Poco21OutputStreamConverterC2ERSoRKNS_12TextEncodingES4_i
FNDA:0,_ZN4Poco21OutputStreamConverterD0Ev
FNDA:0,_ZN4Poco21OutputStreamConverterD1Ev
FNDA:0,_ZN4Poco21OutputStreamConverterD2Ev
FNDA:1,_GLOBAL__sub_I_StreamConverter.cpp
FNDA:1,_Z41__static_initialization_and_destruction_0ii
FNF:28
FNH:2
DA:22,0
DA:30,0
DA:32,0
DA:35,0
DA:43,0
DA:45,0
DA:48,0
DA:50,0
DA:53,0
DA:55,0
DA:57,0
DA:59,0
DA:60,0
DA:61,0
DA:62,0
DA:64,0
DA:66,0
DA:67,0
DA:68,0
DA:70,0
DA:72,0
DA:73,0
DA:74,0
DA:75,0
DA:78,0
DA:80,0
DA:81,0
DA:85,0
DA:88,0
DA:89,0
DA:90,0
DA:91,0
DA:92,0
DA:94,0
DA:98,0
DA:100,0
DA:102,0
DA:103,0
DA:105,0
DA:106,0
DA:108,0
DA:109,0
DA:111,0
DA:112,0
DA:114,0
DA:115,0
DA:116,0
DA:117,0
DA:118,0
DA:119,0
DA:123,0
DA:127,0
DA:131,0
DA:133,0
DA:137,0
DA:138,0
DA:140,0
DA:141,0
DA:144,0
DA:145,0
DA:147,0
DA:148,0
DA:151,0
DA:153,0
DA:156,0
DA:158,0
DA:162,0
DA:164,0
DA:168,0
DA:170,0
DA:172,0
DA:175,0
DA:177,0
DA:180,0
DA:182,0
DA:184,0
DA:187,0
DA:189,0
DA:192,3
LF:79
LH:1
end_of_record
SF:/usr/include/c++/7/bits/char_traits.h
FN:362,_ZNSt11char_traitsIcE12to_char_typeERKi
FN:368,_ZNSt11char_traitsIcE11to_int_typeERKc
FN:376,_ZNSt11char_traitsIcE3eofEv
FNDA:0,_ZNSt11char_traitsIcE12to_char_typeERKi
FNDA:0,_ZNSt11char_traitsIcE11to_int_typeERKc
FNDA:0,_ZNSt11char_traitsIcE3eofEv
FNF:3
FNH:0
DA:362,0
DA:363,0
DA:368,0
DA:369,0
DA:376,0
DA:377,0
LF:6
LH:0
end_of_record
SF:/usr/include/c++/7/iostream
DA:74,1
LF:1
LH:1
end_of_record
TN:
SF:/home/vera/poco/Foundation/include/Poco/DirectoryIterator.h
FN:102,_ZNK4Poco17DirectoryIterator4nameB5cxx11Ev
FN:108,_ZNK4Poco17DirectoryIterator4pathEv
FN:120,_ZN4Poco17DirectoryIteratordeEv
FN:132,_ZN4Poco17DirectoryIteratorptEv
FN:138,_ZNK4Poco17DirectoryIteratoreqERKS0_
FN:144,_ZNK4Poco17DirectoryIteratorneERKS0_
FNDA:0,_ZNK4Poco17DirectoryIterator4nameB5cxx11Ev
FNDA:0,_ZNK4Poco17DirectoryIterator4pathEv
FNDA:0,_ZN4Poco17DirectoryIteratordeEv
FNDA:0,_ZN4Poco17DirectoryIteratorptEv
FNDA:0,_ZNK4Poco17DirectoryIteratoreqERKS0_
FNDA:0,_ZNK4Poco17DirectoryIteratorneERKS0_
FNF:6
FNH:0
DA:102,0
DA:104,0
DA:108,0
DA:110,0
DA:120,0
DA:122,0
DA:132,0
DA:134,0
DA:138,0
DA:140,0
DA:144,0
DA:146,0
LF:12
LH:0
end_of_record
SF:/home/vera/poco/Foundation/include/Poco/DirectoryIteratorStrategy.h
FN:31,_ZN4Poco12TraverseBaseD2Ev
FNDA:0,_ZN4Poco12TraverseBaseD2Ev
FNF:1
FNH:0
DA:31,0
LF:1
LH:0
end_of_record
SF:/home/vera/poco/Foundation/include/Poco/File.h
FN:273,_ZNK4Poco4File4pathB5cxx11Ev
FNDA:0,_ZNK4Poco4File4pathB5cxx11Ev
FNF:1
FNH:0
DA:273,0
DA:275,0
LF:2
LH:0
end_of_record
SF:/home/vera/poco/Foundation/include/Poco/File_UNIX.h
FN:82,_ZNK4Poco8FileImpl11getPathImplB5cxx11Ev
FNDA:0,_ZNK4Poco8FileImpl11getPathImplB5cxx11Ev
FNF:1
FNH:0
DA:82,0
DA:84,0
LF:2
LH:0
end_of_record
SF:/home/vera/poco/Foundation/include/Poco/Path.h
FN:442,_ZNK4Poco4Path11getFileNameB5cxx11Ev
FNDA:0,_ZNK4Poco4Path11getFileNameB5cxx11Ev
FNF:1
FNH:0
DA:442,0
DA:444,0
LF:2
LH:0
end_of_record
SF:/home/vera/poco/Foundation/src/DirectoryIteratorStrategy.cpp
FN:24,_ZN4Poco12TraverseBaseC2ESt8functionIFtRKSt5stackINS_17DirectoryIteratorESt5dequeIS3_SaIS3_EEEEEt
FN:30,_ZN4Poco12TraverseBase13isFiniteDepthEv
FN:36,_ZN4Poco12TraverseBase11isDirectoryERNS_4FileE
FN:52,_ZN4Poco21ChildrenFirstTraverseC2ESt8functionIFtRKSt5stackINS_17DirectoryIteratorESt5dequeIS3_SaIS3_EEEEEt
FN:58,_ZN4Poco21ChildrenFirstTraverse4nextB5cxx11EPSt5stackINS_17DirectoryIteratorESt5dequeIS2_SaIS2_EEEPb
FN:109,_ZN4Poco21SiblingsFirstTraverseC2ESt8functionIFtRKSt5stackINS_17DirectoryIteratorESt5dequeIS3_SaIS3_EEEEEt
FN:116,_ZN4Poco21SiblingsFirstTraverse4nextB5cxx11EPSt5stackINS_17DirectoryIteratorESt5dequeIS2_SaIS2_EEEPb
FN:168,_GLOBAL__sub_I_DirectoryIteratorStrategy.cpp
FN:168,_Z41__static_initialization_and_destruction_0ii
FNDA:0,_ZN4Poco12TraverseBaseC2ESt8functionIFtRKSt5stackINS_17DirectoryIteratorESt5dequeIS3_SaIS3_EEEEEt
FNDA:0,_ZN4Poco12TraverseBase13isFiniteDepthEv
FNDA:0,_ZN4Poco12TraverseBase11isDirectoryERNS_4FileE
FNDA:0,_ZN4Poco21ChildrenFirstTraverseC2ESt8functionIFtRKSt5stackINS_17DirectoryIteratorESt5dequeIS3_SaIS3_EEEEEt
FNDA:0,_ZN4Poco21ChildrenFirstTraverse4nextB5cxx11EPSt5stackINS_17DirectoryIteratorESt5dequeIS2_SaIS2_EEEPb
FNDA:0,_ZN4Poco21SiblingsFirstTraverseC2ESt8functionIFtRKSt5stackINS_17DirectoryIteratorESt5dequeIS3_SaIS3_EEEEEt
FNDA:0,_ZN4Poco21SiblingsFirstTraverse4nextB5cxx11EPSt5stackINS_17DirectoryIteratorESt5dequeIS2_SaIS2_EEEPb
FNDA:1,_GLOBAL__sub_I_DirectoryIteratorStrategy.cpp
FNDA:1,_Z41__static_initialization_and_destruction_0ii
FNF:9
FNH:2
DA:24,0
DA:25,0
DA:27,0
DA:30,0
DA:32,0
DA:36,0
DA:40,0
DA:42,0
DA:44,0
DA:52,0
DA:53,0
DA:55,0
DA:58,0
DA:61,0
DA:62,0
DA:64,0
DA:70,0
DA:71,0
DA:73,0
DA:75,0
DA:77,0
DA:78,0
DA:82,0
DA:84,0
DA:86,0
DA:88,0
DA:91,0
DA:93,0
DA:94,0
DA:98,0
DA:102,0
DA:109,0
DA:110,0
DA:112,0
DA:113,0
DA:116,0
DA:119,0
DA:120,0
DA:123,0
DA:124,0
DA:126,0
DA:127,0
DA:130,0
DA:132,0
DA:134,0
DA:137,0
DA:139,0
DA:140,0
DA:141,0
DA:144,0
DA:146,0
DA:147,0
DA:148,0
DA:153,0
DA:154,0
DA:157,0
DA:159,0
DA:160,0
DA:164,0
DA:168,3
LF:60
LH:1
end_of_record
SF:/usr/include/c++/7/bits/alloc_traits.h
FN:435,_ZNSt16allocator_traitsISaIPSt5queueINSt7__cxx1112basic_stringIcSt11char_traitsIcESaIcEEESt5dequeIS6_SaIS6_EEEEE8allocateERSC_m
FN:435,_ZNSt16allocator_traitsISaIPN4Poco17DirectoryIteratorEEE8allocateERS3_m
FN:435,_ZNSt16allocator_traitsISaIPNSt7__cxx1112basic_stringIcSt11char_traitsIcESaIcEEEEE8allocateERS7_m
FN:435,_ZNSt16allocator_traitsISaISt5queueINSt7__cxx1112basic_stringIcSt11char_traitsIcESaIcEEESt5dequeIS6_SaIS6_EEEEE8allocateERSB_m
FN:435,_ZNSt16allocator_traitsISaIN4Poco17DirectoryIteratorEEE8allocateERS2_m
FN:435,_ZNSt16allocator_traitsISaINSt7__cxx1112basic_stringIcSt11char_traitsIcESaIcEEEEE8allocateERS6_m
FN:461,_ZNSt16allocator_traitsISaISt5queueINSt7__cxx1112basic_stringIcSt11char_traitsIcESaIcEEESt5dequeIS6_SaIS6_EEEEE10deallocateERSB_PSA_m
FN:461,_ZNSt16allocator_traitsISaIPN4Poco17DirectoryIteratorEEE10deallocateERS3_PS2_m
FN:461,_ZNSt16allocator_traitsISaIPNSt7__cxx1112basic_stringIcSt11char_traitsIcESaIcEEEEE10deallocateERS7_PS6_m
FN:461,_ZNSt16allocator_traitsISaINSt7__cxx1112basic_stringIcSt11char_traitsIcESaIcEEEEE10deallocateERS6_PS5_m
FN:461,_ZNSt16allocator_traitsISaIPSt5queueINSt7__cxx1112basic_stringIcSt11char_traitsIcESaIcEEESt5dequeIS6_SaIS6_EEEEE10deallocateERSC_PSB_m
FN:461,_ZNSt16allocator_traitsISaIN4Poco17DirectoryIteratorEEE10deallocateERS2_PS1_m
FN:474,_ZNSt16allocator_traitsISaISt5queueINSt7__cxx1112basic_stringIcSt11char_traitsIcESaIcEEESt5dequeIS6_SaIS6_EEEEE9constructISA_JSA_EEEvRSB_PT_DpOT0_
FN:474,_ZNSt16allocator_traitsISaINSt7__cxx1112basic_stringIcSt11char_traitsIcESaIcEEEEE9constructIS5_JRKS5_EEEvRS6_PT_DpOT0_
FN:474,_ZNSt16allocator_traitsISaIN4Poco17DirectoryIteratorEEE9constructIS1_JRKS1_EEEvRS2_PT_DpOT0_
FN:486,_ZNSt16allocator_traitsISaIN4Poco17DirectoryIteratorEEE7destroyIS1_EEvRS2_PT_
FN:486,_ZNSt16allocator_traitsISaINSt7__cxx1112basic_stringIcSt11char_traitsIcESaIcEEEEE7destroyIS5_EEvRS6_PT_
FN:486,_ZNSt16allocator_traitsISaISt5queueINSt7__cxx1112basic_stringIcSt11char_traitsIcESaIcEEESt5dequeIS6_SaIS6_EEEEE7destroyISA_EEvRSB_PT_
FNDA:0,_ZNSt16allocator_traitsISaISt5queueINSt7__cxx1112basic_stringIcSt11char_traitsIcESaIcEEESt5dequeIS6_SaIS6_EEEEE8allocateERSB_m
FNDA:0,_ZNSt16allocator_traitsISaIPNSt7__cxx1112basic_stringIcSt11char_traitsIcESaIcEEEEE8allocateERS7_m
FNDA:0,_ZNSt16allocator_traitsISaIPSt5queueINSt7__cxx1112basic_stringIcSt11char_traitsIcESaIcEEESt5dequeIS6_SaIS6_EEEEE8allocateERSC_m
FNDA:0,_ZNSt16allocator_traitsISaIPN4Poco17DirectoryIteratorEEE8allocateERS3_m
FNDA:0,_ZNSt16allocator_traitsISaINSt7__cxx1112basic_stringIcSt11char_traitsIcESaIcEEEEE8allocateERS6_m
FNDA:0,_ZNSt16allocator_traitsISaIN4Poco17DirectoryIteratorEEE8allocateERS2_m
FNDA:0,_ZNSt16allocator_traitsISaINSt7__cxx1112basic_stringIcSt11char_traitsIcESaIcEEEEE10deallocateERS6_PS5_m
FNDA:0,_ZNSt16allocator_traitsISaISt5queueINSt7__cxx1112basic_stringIcSt11char_traitsIcESaIcEEESt5dequeIS6_SaIS6_EEEEE10deallocateERSB_PSA_m
FNDA:0,_ZNSt16allocator_traitsISaIN4Poco17DirectoryIteratorEEE10deallocateERS2_PS1_m
FNDA:0,_ZNSt16allocator_traitsISaIPNSt7__cxx1112basic_stringIcSt11char_traitsIcESaIcEEEEE10deallocateERS7_PS6_m
FNDA:0,_ZNSt16allocator_traitsISaIPSt5queueINSt7__cxx1112basic_stringIcSt11char_traitsIcESaIcEEESt5dequeIS6_SaIS6_EEEEE10deallocateERSC_PSB_m
FNDA:0,_ZNSt16allocator_traitsISaIPN4Poco17DirectoryIteratorEEE10deallocateERS3_PS2_m
FNDA:0,_ZNSt16allocator_traitsISaISt5queueINSt7__cxx1112basic_stringIcSt11char_traitsIcESaIcEEESt5dequeIS6_SaIS6_EEEEE9constructISA_JSA_EEEvRSB_PT_DpOT0_
FNDA:0,_ZNSt16allocator_traitsISaINSt7__cxx1112basic_stringIcSt11char_traitsIcESaIcEEEEE9constructIS5_JRKS5_EEEvRS6_PT_DpOT0_
FNDA:0,_ZNSt16allocator_traitsISaIN4Poco17DirectoryIteratorEEE9constructIS1_JRKS1_EEEvRS2_PT_DpOT0_
FNDA:0,_ZNSt16allocator_traitsISaISt5queueINSt7__cxx1112basic_stringIcSt11char_traitsIcESaIcEEESt5dequeIS6_SaIS6_EEEEE7destroyISA_EEvRSB_PT_
FNDA:0,_ZNSt16allocator_traitsISaINSt7__cxx1112basic_stringIcSt11char_traitsIcESaIcEEEEE7destroyIS5_EEvRS6_PT_
FNDA:0,_ZNSt16allocator_traitsISaIN4Poco17DirectoryIteratorEEE7destroyIS1_EEvRS2_PT_
FNF:18
FNH:0
DA:435,0
DA:436,0
DA:461,0
DA:462,0
DA:474,0
DA:475,0
DA:486,0
DA:487,0
LF:8
LH:0
end_of_record
SF:/usr/include/c++/7/bits/allocator.h
FN:131,_ZNSaISt5queueINSt7__cxx1112basic_stringIcSt11char_traitsIcESaIcEEESt5dequeIS5_SaIS5_EEEEC2Ev
FN:131,_ZNSaINSt7__cxx1112basic_stringIcSt11char_traitsIcESaIcEEEEC2Ev
FN:131,_ZNSaIN4Poco17DirectoryIteratorEEC2Ev
FN:133,_ZNSaINSt7__cxx1112basic_stringIcSt11char_traitsIcESaIcEEEEC2ERKS5_
FN:137,_ZNSaIPSt5queueINSt7__cxx1112basic_stringIcSt11char_traitsIcESaIcEEESt5dequeIS5_SaIS5_EEEEC2IS9_EERKSaIT_E
FN:137,_ZNSaIPNSt7__cxx1112basic_stringIcSt11char_traitsIcESaIcEEEEC2IS4_EERKSaIT_E
FN:137,_ZNSaIPN4Poco17DirectoryIteratorEEC2IS0_EERKSaIT_E
FN:139,_ZNSaIPNSt7__cxx1112basic_stringIcSt11char_traitsIcESaIcEEEED2Ev
FN:139,_ZNSaINSt7__cxx1112basic_stringIcSt11char_traitsIcESaIcEEEED2Ev
FN:139,_ZNSaIN4Poco17DirectoryIteratorEED2Ev
FN:139,_ZNSaIPN4Poco17DirectoryIteratorEED2Ev
FN:139,_ZNSaIPSt5queueINSt7__cxx1112basic_stringIcSt11char_traitsIcESaIcEEESt5dequeIS5_SaIS5_EEEED2Ev
FN:139,_ZNSaISt5queueINSt7__cxx1112basic_stringIcSt11char_traitsIcESaIcEEESt5dequeIS5_SaIS5_EEEED2Ev
FNDA:0,_ZNSaINSt7__cxx1112basic_stringIcSt11char_traitsIcESaIcEEEEC2Ev
FNDA:0,_ZNSaISt5queueINSt7__cxx1112basic_stringIcSt11char_traitsIcESaIcEEESt5dequeIS5_SaIS5_EEEEC2Ev
FNDA:0,_ZNSaIN4Poco17DirectoryIteratorEEC2Ev
FNDA:0,_ZNSaINSt7__cxx1112basic_stringIcSt11char_traitsIcESaIcEEEEC2ERKS5_
FNDA:0,_ZNSaIPNSt7__cxx1112basic_stringIcSt11char_traitsIcESaIcEEEEC2IS4_EERKSaIT_E
FNDA:0,_ZNSaIPSt5queueINSt7__cxx1112basic_stringIcSt11char_traitsIcESaIcEEESt5dequeIS5_SaIS5_EEEEC2IS9_EERKSaIT_E
FNDA:0,_ZNSaIPN4Poco17DirectoryIteratorEEC2IS0_EERKSaIT_E
FNDA:0,_ZNSaIPNSt7__cxx1112basic_stringIcSt11char_traitsIcESaIcEEEED2Ev
FNDA:0,_ZNSaIPSt5queueINSt7__cxx1112basic_stringIcSt11char_traitsIcESaIcEEESt5dequeIS5_SaIS5_EEEED2Ev
FNDA:0,_ZNSaIPN4Poco17DirectoryIteratorEED2Ev
FNDA:0,_ZNSaINSt7__cxx1112basic_stringIcSt11char_traitsIcESaIcEEEED2Ev
FNDA:0,_ZNSaISt5queueINSt7__cxx1112basic_stringIcSt11char_traitsIcESaIcEEESt5dequeIS5_SaIS5_EEEED2Ev
FNDA:0,_ZNSaIN4Poco17DirectoryIteratorEED2Ev
FNF:13
FNH:0
DA:131,0
DA:133,0
DA:134,0
DA:137,0
DA:139,0
LF:5
LH:0
end_of_record
SF:/usr/include/c++/7/bits/basic_string.h
FN:6017,_ZSteqIcEN9__gnu_cxx11__enable_ifIXsrSt9__is_charIT_E7__valueEbE6__typeERKNSt7__cxx1112basic_stringIS3_St11char_traitsIS3_ESaIS3_EEESE_
FN:6056,_ZStneIcSt11char_traitsIcESaIcEEbRKNSt7__cxx1112basic_stringIT_T0_T1_EESA_
FNDA:0,_ZSteqIcEN9__gnu_cxx11__enable_ifIXsrSt9__is_charIT_E7__valueEbE6__typeERKNSt7__cxx1112basic_stringIS3_St11char_traitsIS3_ESaIS3_EEESE_
FNDA:0,_ZStneIcSt11char_traitsIcESaIcEEbRKNSt7__cxx1112basic_stringIT_T0_T1_EESA_
FNF:2
FNH:0
DA:6017,0
DA:6019,0
DA:6020,0
DA:6021,0
DA:6056,0
DA:6059,0
LF:6
LH:0
end_of_record
SF:/usr/include/c++/7/bits/char_traits.h
FN:300,_ZNSt11char_traitsIcE7compareEPKcS2_m
FNDA:0,_ZNSt11char_traitsIcE7compareEPKcS2_m
FNF:1
FNH:0
DA:300,0
DA:308,0
DA:309,0
DA:310,0
LF:4
LH:0
end_of_record
SF:/usr/include/c++/7/bits/cpp_type_traits.h
FN:408,_ZSt12__miter_baseIPPSt5queueINSt7__cxx1112basic_stringIcSt11char_traitsIcESaIcEEESt5dequeIS6_SaIS6_EEEET_SD_
FN:408,_ZSt12__miter_baseIPPN4Poco17DirectoryIteratorEET_S4_
FN:408,_ZSt12__miter_baseIPPNSt7__cxx1112basic_stringIcSt11char_traitsIcESaIcEEEET_S8_
FNDA:0,_ZSt12__miter_baseIPPSt5queueINSt7__cxx1112basic_stringIcSt11char_traitsIcESaIcEEESt5dequeIS6_SaIS6_EEEET_SD_
FNDA:0,_ZSt12__miter_baseIPPNSt7__cxx1112basic_stringIcSt11char_traitsIcESaIcEEEET_S8_
FNDA:0,_ZSt12__miter_baseIPPN4Poco17DirectoryIteratorEET_S4_
FNF:3
FNH:0
DA:408,0
DA:409,0
LF:2
LH:0
end_of_record
SF:/usr/include/c++/7/bits/deque.tcc
FN:161,_ZNSt5dequeISt5queueINSt7__cxx1112basic_stringIcSt11char_traitsIcESaIcEEES_IS6_SaIS6_EEESaIS9_EE12emplace_backIJS9_EEEvDpOT_
FN:478,_ZNSt5dequeISt5queueINSt7__cxx1112basic_stringIcSt11char_traitsIcESaIcEEES_IS6_SaIS6_EEESaIS9_EE16_M_push_back_auxIJS9_EEEvDpOT_
FN:478,_ZNSt5dequeIN4Poco17DirectoryIteratorESaIS1_EE16_M_push_back_auxIJRKS1_EEEvDpOT_
FN:478,_ZNSt5dequeINSt7__cxx1112basic_stringIcSt11char_traitsIcESaIcEEESaIS5_EE16_M_push_back_auxIJRKS5_EEEvDpOT_
FN:546,_ZNSt5dequeISt5queueINSt7__cxx1112basic_stringIcSt11char_traitsIcESaIcEEES_IS6_SaIS6_EEESaIS9_EE15_M_pop_back_auxEv
FN:546,_ZNSt5dequeIN4Poco17DirectoryIteratorESaIS1_EE15_M_pop_back_auxEv
FN:562,_ZNSt5dequeINSt7__cxx1112basic_stringIcSt11char_traitsIcESaIcEEESaIS5_EE16_M_pop_front_auxEv
FN:845,_ZNSt5dequeISt5queueINSt7__cxx1112basic_stringIcSt11char_traitsIcESaIcEEES_IS6_SaIS6_EEESaIS9_EE19_M_destroy_data_auxESt15_Deque_iteratorIS9_RS9_PS9_ESF_
FN:845,_ZNSt5dequeIN4Poco17DirectoryIteratorESaIS1_EE19_M_destroy_data_auxESt15_Deque_iteratorIS1_RS1_PS1_ES7_
FN:845,_ZNSt5dequeINSt7__cxx1112basic_stringIcSt11char_traitsIcESaIcEEESaIS5_EE19_M_destroy_data_auxESt15_Deque_iteratorIS5_RS5_PS5_ESB_
FN:917,_ZNSt5dequeINSt7__cxx1112basic_stringIcSt11char_traitsIcESaIcEEESaIS5_EE17_M_reallocate_mapEmb
FN:917,_ZNSt5dequeIN4Poco17DirectoryIteratorESaIS1_EE17_M_reallocate_mapEmb
FN:917,_ZNSt5dequeISt5queueINSt7__cxx1112basic_stringIcSt11char_traitsIcESaIcEEES_IS6_SaIS6_EEESaIS9_EE17_M_reallocate_mapEmb
FNDA:0,_ZNSt5dequeISt5queueINSt7__cxx1112basic_stringIcSt11char_traitsIcESaIcEEES_IS6_SaIS6_EEESaIS9_EE12emplace_backIJS9_EEEvDpOT_
FNDA:0,_ZNSt5dequeISt5queueINSt7__cxx1112basic_stringIcSt11char_traitsIcESaIcEEES_IS6_SaIS6_EEESaIS9_EE16_M_push_back_auxIJS9_EEEvDpOT_
FNDA:0,_ZNSt5dequeINSt7__cxx1112basic_stringIcSt11char_traitsIcESaIcEEESaIS5_EE16_M_push_back_auxIJRKS5_EEEvDpOT_
FNDA:0,_ZNSt5dequeIN4Poco17DirectoryIteratorESaIS1_EE16_M_push_back_auxIJRKS1_EEEvDpOT_
FNDA:0,_ZNSt5dequeISt5queueINSt7__cxx1112basic_stringIcSt11char_traitsIcESaIcEEES_IS6_SaIS6_EEESaIS9_EE15_M_pop_back_auxEv
FNDA:0,_ZNSt5dequeIN4Poco17DirectoryIteratorESaIS1_EE15_M_pop_back_auxEv
FNDA:0,_ZNSt5dequeINSt7__cxx1112basic_stringIcSt11char_traitsIcESaIcEEESaIS5_EE16_M_pop_front_auxEv
FNDA:0,_ZNSt5dequeINSt7__cxx1112basic_stringIcSt11char_traitsIcESaIcEEESaIS5_EE19_M_destroy_data_auxESt15_Deque_iteratorIS5_RS5_PS5_ESB_
FNDA:0,_ZNSt5dequeISt5queueINSt7__cxx1112basic_stringIcSt11char_traitsIcESaIcEEES_IS6_SaIS6_EEESaIS9_EE19_M_destroy_data_auxESt15_Deque_iteratorIS9_RS9_PS9_ESF_
FNDA:0,_ZNSt5dequeIN4Poco17DirectoryIteratorESaIS1_EE19_M_destroy_data_auxESt15_Deque_iteratorIS1_RS1_PS1_ES7_
FNDA:0,_ZNSt5dequeISt5queueINSt7__cxx1112basic_stringIcSt11char_traitsIcESaIcEEES_IS6_SaIS6_EEESaIS9_EE17_M_reallocate_mapEmb
FNDA:0,_ZNSt5dequeINSt7__cxx1112basic_stringIcSt11char_traitsIcESaIcEEESaIS5_EE17_M_reallocate_mapEmb
FNDA:0,_ZNSt5dequeIN4Poco17DirectoryIteratorESaIS1_EE17_M_reallocate_mapEmb
FNF:13
FNH:0
DA:161,0
DA:164,0
DA:165,0
DA:167,0
DA:170,0
DA:173,0
DA:177,0
DA:478,0
DA:486,0
DA:487,0
DA:491,0
DA:497,0
DA:499,0
DA:501,0
DA:503,0
DA:504,0
DA:506,0
DA:546,0
DA:549,0
DA:550,0
DA:551,0
DA:552,0
DA:554,0
DA:562,0
DA:565,0
DA:567,0
DA:568,0
DA:569,0
DA:570,0
DA:845,0
DA:848,0
DA:849,0
DA:850,0
DA:851,0
DA:853,0
DA:855,0
DA:856,0
DA:857,0
DA:858,0
DA:861,0
DA:862,0
DA:863,0
DA:917,0
DA:920,0
DA:921,0
DA:922,0
DA:925,0
DA:927,0
DA:928,0
DA:929,0
DA:930,0
DA:931,0
DA:932,0
DA:935,0
DA:936,0
DA:937,0
DA:941,0
DA:942,0
DA:945,0
DA:946,0
DA:947,0
DA:948,0
DA:949,0
DA:951,0
DA:953,0
DA:954,0
DA:957,0
DA:958,0
DA:959,0
LF:69
LH:0
end_of_record
SF:/usr/include/c++/7/bits/move.h
FN:47,_ZSt11__addressofISt5queueINSt7__cxx1112basic_stringIcSt11char_traitsIcESaIcEEESt5dequeIS6_SaIS6_EEEEPT_RSB_
FN:47,_ZSt11__addressofINSt7__cxx1112basic_stringIcSt11char_traitsIcESaIcEEEEPT_RS6_
FN:47,_ZSt11__addressofIN4Poco17DirectoryIteratorEEPT_RS2_
FN:73,_ZSt7forwardISt5queueINSt7__cxx1112basic_stringIcSt11char_traitsIcESaIcEEESt5dequeIS6_SaIS6_EEEEOT_RNSt16remove_referenceISB_E4typeE
FN:73,_ZSt7forwardIRKSt5stackIN4Poco17DirectoryIteratorESt5dequeIS2_SaIS2_EEEEOT_RNSt16remove_referenceIS9_E4typeE
FN:73,_ZSt7forwardIRKN4Poco17DirectoryIteratorEEOT_RNSt16remove_referenceIS4_E4typeE
FN:73,_ZSt7forwardIRKNSt7__cxx1112basic_stringIcSt11char_traitsIcESaIcEEEEOT_RNSt16remove_referenceIS8_E4typeE
FN:98,_ZSt4moveIRSt15_Deque_iteratorINSt7__cxx1112basic_stringIcSt11char_traitsIcESaIcEEERS6_PS6_EEONSt16remove_referenceIT_E4typeEOSC_
FN:98,_ZSt4moveIRSt11_Deque_baseINSt7__cxx1112basic_stringIcSt11char_traitsIcESaIcEEESaIS6_EEEONSt16remove_referenceIT_E4typeEOSB_
FN:98,_ZSt4moveIRPPNSt7__cxx1112basic_stringIcSt11char_traitsIcESaIcEEEEONSt16remove_referenceIT_E4typeEOSA_
FN:98,_ZSt4moveIRSt5queueINSt7__cxx1112basic_stringIcSt11char_traitsIcESaIcEEESt5dequeIS6_SaIS6_EEEEONSt16remove_referenceIT_E4typeEOSD_
FN:98,_ZSt4moveIRmEONSt16remove_referenceIT_E4typeEOS2_
FN:98,_ZSt4moveIRSaINSt7__cxx1112basic_stringIcSt11char_traitsIcESaIcEEEEEONSt16remove_referenceIT_E4typeEOS9_
FN:98,_ZSt4moveIRSt5dequeINSt7__cxx1112basic_stringIcSt11char_traitsIcESaIcEEESaIS6_EEEONSt16remove_referenceIT_E4typeEOSB_
FN:187,_ZSt4swapISt15_Deque_iteratorINSt7__cxx1112basic_stringIcSt11char_traitsIcESaIcEEERS6_PS6_EENSt9enable_ifIXsrSt6__and_IJSt6__not_ISt15__is_tuple_likeIT_EESt21is_move_constructibleISE_ESt18is_move_assignableISE_EEE5valueEvE4typeERSE_SO_
FN:187,_ZSt4swapIPPNSt7__cxx1112basic_stringIcSt11char_traitsIcESaIcEEEENSt9enable_ifIXsrSt6__and_IJSt6__not_ISt15__is_tuple_likeIT_EESt21is_move_constructibleISC_ESt18is_move_assignableISC_EEE5valueEvE4typeERSC_SM_
FN:187,_ZSt4swapImENSt9enable_ifIXsrSt6__and_IJSt6__not_ISt15__is_tuple_likeIT_EESt21is_move_constructibleIS4_ESt18is_move_assignableIS4_EEE5valueEvE4typeERS4_SE_
FNDA:0,_ZSt11__addressofINSt7__cxx1112basic_stringIcSt11char_traitsIcESaIcEEEEPT_RS6_
FNDA:0,_ZSt11__addressofISt5queueINSt7__cxx1112basic_stringIcSt11char_traitsIcESaIcEEESt5dequeIS6_SaIS6_EEEEPT_RSB_
FNDA:0,_ZSt11__addressofIN4Poco17DirectoryIteratorEEPT_RS2_
FNDA:0,_ZSt7forwardIRKNSt7__cxx1112basic_stringIcSt11char_traitsIcESaIcEEEEOT_RNSt16remove_referenceIS8_E4typeE
FNDA:0,_ZSt7forwardISt5queueINSt7__cxx1112basic_stringIcSt11char_traitsIcESaIcEEESt5dequeIS6_SaIS6_EEEEOT_RNSt16remove_referenceISB_E4typeE
FNDA:0,_ZSt7forwardIRKN4Poco17DirectoryIteratorEEOT_RNSt16remove_referenceIS4_E4typeE
FNDA:0,_ZSt7forwardIRKSt5stackIN4Poco17DirectoryIteratorESt5dequeIS2_SaIS2_EEEEOT_RNSt16remove_referenceIS9_E4typeE
FNDA:0,_ZSt4moveIRmEONSt16remove_referenceIT_E4typeEOS2_
FNDA:0,_ZSt4moveIRPPNSt7__cxx1112basic_stringIcSt11char_traitsIcESaIcEEEEONSt16remove_referenceIT_E4typeEOSA_
FNDA:0,_ZSt4moveIRSt15_Deque_iteratorINSt7__cxx1112basic_stringIcSt11char_traitsIcESaIcEEERS6_PS6_EEONSt16remove_referenceIT_E4typeEOSC_
FNDA:0,_ZSt4moveIRSaINSt7__cxx1112basic_stringIcSt11char_traitsIcESaIcEEEEEONSt16remove_referenceIT_E4typeEOS9_
FNDA:0,_ZSt4moveIRSt11_Deque_baseINSt7__cxx1112basic_stringIcSt11char_traitsIcESaIcEEESaIS6_EEEONSt16remove_referenceIT_E4typeEOSB_
FNDA:0,_ZSt4moveIRSt5dequeINSt7__cxx1112basic_stringIcSt11char_traitsIcESaIcEEESaIS6_EEEONSt16remove_referenceIT_E4typeEOSB_
FNDA:0,_ZSt4moveIRSt5queueINSt7__cxx1112basic_stringIcSt11char_traitsIcESaIcEEESt5dequeIS6_SaIS6_EEEEONSt16remove_referenceIT_E4typeEOSD_
FNDA:0,_ZSt4swapImENSt9enable_ifIXsrSt6__and_IJSt6__not_ISt15__is_tuple_likeIT_EESt21is_move_constructibleIS4_ESt18is_move_assignableIS4_EEE5valueEvE4typeERS4_SE_
FNDA:0,_ZSt4swapIPPNSt7__cxx1112basic_stringIcSt11char_traitsIcESaIcEEEENSt9enable_ifIXsrSt6__and_IJSt6__not_ISt15__is_tuple_likeIT_EESt21is_move_constructibleISC_ESt18is_move_assignableISC_EEE5valueEvE4typeERSC_SM_
FNDA:0,_ZSt4swapISt15_Deque_iteratorINSt7__cxx1112basic_stringIcSt11char_traitsIcESaIcEEERS6_PS6_EENSt9enable_ifIXsrSt6__and_IJSt6__not_ISt15__is_tuple_likeIT_EESt21is_move_constructibleISE_ESt18is_move_assignableISE_EEE5valueEvE4typeERSE_SO_
FNF:17
FNH:0
DA:47,0
DA:48,0
DA:73,0
DA:74,0
DA:98,0
DA:99,0
DA:187,0
DA:198,0
DA:199,0
DA:200,0
DA:201,0
LF:11
LH:0
end_of_record
SF:/usr/include/c++/7/bits/std_function.h
FN:271,_ZNSt14_Function_baseC2Ev
FN:273,_ZNSt14_Function_baseD2Ev
FN:279,_ZNKSt14_Function_base8_M_emptyEv
FN:389,_ZNSt8functionIFtRKSt5stackIN4Poco17DirectoryIteratorESt5dequeIS2_SaIS2_EEEEED2Ev
FN:582,_ZNKSt8functionIFtRKSt5stackIN4Poco17DirectoryIteratorESt5dequeIS2_SaIS2_EEEEEcvbEv
FN:671,_ZNSt8functionIFtRKSt5stackIN4Poco17DirectoryIteratorESt5dequeIS2_SaIS2_EEEEEC2ERKSA_
FN:701,_ZNKSt8functionIFtRKSt5stackIN4Poco17DirectoryIteratorESt5dequeIS2_SaIS2_EEEEEclES8_
FNDA:0,_ZNSt14_Function_baseC2Ev
FNDA:0,_ZNSt14_Function_baseD2Ev
FNDA:0,_ZNKSt14_Function_base8_M_emptyEv
FNDA:0,_ZNSt8functionIFtRKSt5stackIN4Poco17DirectoryIteratorESt5dequeIS2_SaIS2_EEEEED2Ev
FNDA:0,_ZNKSt8functionIFtRKSt5stackIN4Poco17DirectoryIteratorESt5dequeIS2_SaIS2_EEEEEcvbEv
FNDA:0,_ZNSt8functionIFtRKSt5stackIN4Poco17DirectoryIteratorESt5dequeIS2_SaIS2_EEEEEC2ERKSA_
FNDA:0,_ZNKSt8functionIFtRKSt5stackIN4Poco17DirectoryIteratorESt5dequeIS2_SaIS2_EEEEEclES8_
FNF:7
FNH:0
DA:271,0
DA:273,0
DA:274,0
DA:275,0
DA:276,0
DA:277,0
DA:279,0
DA:389,0
DA:582,0
DA:583,0
DA:671,0
DA:673,0
DA:675,0
DA:677,0
DA:678,0
DA:679,0
DA:681,0
DA:701,0
DA:704,0
DA:705,0
DA:706,0
LF:21
LH:0
end_of_record
SF:/usr/include/c++/7/bits/stl_algobase.h
FN:219,_ZSt3maxImERKT_S2_S2_
FN:277,_ZSt12__niter_baseIPPNSt7__cxx1112basic_stringIcSt11char_traitsIcESaIcEEEET_S8_
FN:277,_ZSt12__niter_baseIPPN4Poco17DirectoryIteratorEET_S4_
FN:277,_ZSt12__niter_baseIPPSt5queueINSt7__cxx1112basic_stringIcSt11char_traitsIcESaIcEEESt5dequeIS6_SaIS6_EEEET_SD_
FN:357,_ZNSt11__copy_moveILb0ELb1ESt26random_access_iterator_tagE8__copy_mIPSt5queueINSt7__cxx1112basic_stringIcSt11char_traitsIcESaIcEEESt5dequeIS9_SaIS9_EEEEEPT_PKSF_SI_SG_
FN:357,_ZNSt11__copy_moveILb0ELb1ESt26random_access_iterator_tagE8__copy_mIPNSt7__cxx1112basic_stringIcSt11char_traitsIcESaIcEEEEEPT_PKSA_SD_SB_
FN:357,_ZNSt11__copy_moveILb0ELb1ESt26random_access_iterator_tagE8__copy_mIPN4Poco17DirectoryIteratorEEEPT_PKS6_S9_S7_
FN:375,_ZSt13__copy_move_aILb0EPPN4Poco17DirectoryIteratorES3_ET1_T0_S5_S4_
FN:375,_ZSt13__copy_move_aILb0EPPNSt7__cxx1112basic_stringIcSt11char_traitsIcESaIcEEES7_ET1_T0_S9_S8_
FN:375,_ZSt13__copy_move_aILb0EPPSt5queueINSt7__cxx1112basic_stringIcSt11char_traitsIcESaIcEEESt5dequeIS6_SaIS6_EEESC_ET1_T0_SE_SD_
FN:420,_ZSt14__copy_move_a2ILb0EPPNSt7__cxx1112basic_stringIcSt11char_traitsIcESaIcEEES7_ET1_T0_S9_S8_
FN:420,_ZSt14__copy_move_a2ILb0EPPSt5queueINSt7__cxx1112basic_stringIcSt11char_traitsIcESaIcEEESt5dequeIS6_SaIS6_EEESC_ET1_T0_SE_SD_
FN:420,_ZSt14__copy_move_a2ILb0EPPN4Poco17DirectoryIteratorES3_ET1_T0_S5_S4_
FN:446,_ZSt4copyIPPSt5queueINSt7__cxx1112basic_stringIcSt11char_traitsIcESaIcEEESt5dequeIS6_SaIS6_EEESC_ET0_T_SE_SD_
FN:446,_ZSt4copyIPPNSt7__cxx1112basic_stringIcSt11char_traitsIcESaIcEEES7_ET0_T_S9_S8_
FN:446,_ZSt4copyIPPN4Poco17DirectoryIteratorES3_ET0_T_S5_S4_
FN:559,_ZNSt20__copy_move_backwardILb0ELb1ESt26random_access_iterator_tagE13__copy_move_bIPN4Poco17DirectoryIteratorEEEPT_PKS6_S9_S7_
FN:559,_ZNSt20__copy_move_backwardILb0ELb1ESt26random_access_iterator_tagE13__copy_move_bIPNSt7__cxx1112basic_stringIcSt11char_traitsIcESaIcEEEEEPT_PKSA_SD_SB_
FN:559,_ZNSt20__copy_move_backwardILb0ELb1ESt26random_access_iterator_tagE13__copy_move_bIPSt5queueINSt7__cxx1112basic_stringIcSt11char_traitsIcESaIcEEESt5dequeIS9_SaIS9_EEEEEPT_PKSF_SI_SG_
FN:577,_ZSt22__copy_move_backward_aILb0EPPNSt7__cxx1112basic_stringIcSt11char_traitsIcESaIcEEES7_ET1_T0_S9_S8_
FN:577,_ZSt22__copy_move_backward_aILb0EPPSt5queueINSt7__cxx1112basic_stringIcSt11char_traitsIcESaIcEEESt5dequeIS6_SaIS6_EEESC_ET1_T0_SE_SD_
FN:577,_ZSt22__copy_move_backward_aILb0EPPN4Poco17DirectoryIteratorES3_ET1_T0_S5_S4_
FN:595,_ZSt23__copy_move_backward_a2ILb0EPPSt5queueINSt7__cxx1112basic_stringIcSt11char_traitsIcESaIcEEESt5dequeIS6_SaIS6_EEESC_ET1_T0_SE_SD_
FN:595,_ZSt23__copy_move_backward_a2ILb0EPPNSt7__cxx1112basic_stringIcSt11char_traitsIcESaIcEEES7_ET1_T0_S9_S8_
FN:595,_ZSt23__copy_move_backward_a2ILb0EPPN4Poco17DirectoryIteratorES3_ET1_T0_S5_S4_
FN:622,_ZSt13copy_backwardIPPNSt7__cxx1112basic_stringIcSt11char_traitsIcESaIcEEES7_ET0_T_S9_S8_
FN:622,_ZSt13copy_backwardIPPSt5queueINSt7__cxx1112basic_stringIcSt11char_traitsIcESaIcEEESt5dequeIS6_SaIS6_EEESC_ET0_T_SE_SD_
FN:622,_ZSt13copy_backwardIPPN4Poco17DirectoryIteratorES3_ET0_T_S5_S4_
FNDA:0,_ZSt3maxImERKT_S2_S2_
FNDA:0,_ZSt12__niter_baseIPPSt5queueINSt7__cxx1112basic_stringIcSt11char_traitsIcESaIcEEESt5dequeIS6_SaIS6_EEEET_SD_
FNDA:0,_ZSt12__niter_baseIPPNSt7__cxx1112basic_stringIcSt11char_traitsIcESaIcEEEET_S8_
FNDA:0,_ZSt12__niter_baseIPPN4Poco17DirectoryIteratorEET_S4_
FNDA:0,_ZNSt11__copy_moveILb0ELb1ESt26random_access_iterator_tagE8__copy_mIPSt5queueINSt7__cxx1112basic_stringIcSt11char_traitsIcESaIcEEESt5dequeIS9_SaIS9_EEEEEPT_PKSF_SI_SG_
FNDA:0,_ZNSt11__copy_moveILb0ELb1ESt26random_access_iterator_tagE8__copy_mIPNSt7__cxx1112basic_stringIcSt11char_traitsIcESaIcEEEEEPT_PKSA_SD_SB_
FNDA:0,_ZNSt11__copy_moveILb0ELb1ESt26random_access_iterator_tagE8__copy_mIPN4Poco17DirectoryIteratorEEEPT_PKS6_S9_S7_
FNDA:0,_ZSt13__copy_move_aILb0EPPSt5queueINSt7__cxx1112basic_stringIcSt11char_traitsIcESaIcEEESt5dequeIS6_SaIS6_EEESC_ET1_T0_SE_SD_
FNDA:0,_ZSt13__copy_move_aILb0EPPNSt7__cxx1112basic_stringIcSt11char_traitsIcESaIcEEES7_ET1_T0_S9_S8_
FNDA:0,_ZSt13__copy_move_aILb0EPPN4Poco17DirectoryIteratorES3_ET1_T0_S5_S4_
FNDA:0,_ZSt14__copy_move_a2ILb0EPPSt5queueINSt7__cxx1112basic_stringIcSt11char_traitsIcESaIcEEESt5dequeIS6_SaIS6_EEESC_ET1_T0_SE_SD_
FNDA:0,_ZSt14__copy_move_a2ILb0EPPNSt7__cxx1112basic_stringIcSt11char_traitsIcESaIcEEES7_ET1_T0_S9_S8_
FNDA:0,_ZSt14__copy_move_a2ILb0EPPN4Poco17DirectoryIteratorES3_ET1_T0_S5_S4_
FNDA:0,_ZSt4copyIPPSt5queueINSt7__cxx1112basic_stringIcSt11char_traitsIcESaIcEEESt5dequeIS6_SaIS6_EEESC_ET0_T_SE_SD_
FNDA:0,_ZSt4copyIPPNSt7__cxx1112basic_stringIcSt11char_traitsIcESaIcEEES7_ET0_T_S9_S8_
FNDA:0,_ZSt4copyIPPN4Poco17DirectoryIteratorES3_ET0_T_S5_S4_
FNDA:0,_ZNSt20__copy_move_backwardILb0ELb1ESt26random_access_iterator_tagE13__copy_move_bIPSt5queueINSt7__cxx1112basic_stringIcSt11char_traitsIcESaIcEEESt5dequeIS9_SaIS9_EEEEEPT_PKSF_SI_SG_
FNDA:0,_ZNSt20__copy_move_backwardILb0ELb1ESt26random_access_iterator_tagE13__copy_move_bIPNSt7__cxx1112basic_stringIcSt11char_traitsIcESaIcEEEEEPT_PKSA_SD_SB_
FNDA:0,_ZNSt20__copy_move_backwardILb0ELb1ESt26random_access_iterator_tagE13__copy_move_bIPN4Poco17DirectoryIteratorEEEPT_PKS6_S9_S7_
FNDA:0,_ZSt22__copy_move_backward_aILb0EPPSt5queueINSt7__cxx1112basic_stringIcSt11char_traitsIcESaIcEEESt5dequeIS6_SaIS6_EEESC_ET1_T0_SE_SD_
FNDA:0,_ZSt22__copy_move_backward_aILb0EPPNSt7__cxx1112basic_stringIcSt11char_traitsIcESaIcEEES7_ET1_T0_S9_S8_
FNDA:0,_ZSt22__copy_move_backward_aILb0EPPN4Poco17DirectoryIteratorES3_ET1_T0_S5_S4_
FNDA:0,_ZSt23__copy_move_backward_a2ILb0EPPSt5queueINSt7__cxx1112basic_stringIcSt11char_traitsIcESaIcEEESt5dequeIS6_SaIS6_EEESC_ET1_T0_SE_SD_
FNDA:0,_ZSt23__copy_move_backward_a2ILb0EPPNSt7__cxx1112basic_stringIcSt11char_traitsIcESaIcEEES7_ET1_T0_S9_S8_
FNDA:0,_ZSt23__copy_move_backward_a2ILb0EPPN4Poco17DirectoryIteratorES3_ET1_T0_S5_S4_
FNDA:0,_ZSt13copy_backwardIPPSt5queueINSt7__cxx1112basic_stringIcSt11char_traitsIcESaIcEEESt5dequeIS6_SaIS6_EEESC_ET0_T_SE_SD_
FNDA:0,_ZSt13copy_backwardIPPNSt7__cxx1112basic_stringIcSt11char_traitsIcESaIcEEES7_ET0_T_S9_S8_
FNDA:0,_ZSt13copy_backwardIPPN4Poco17DirectoryIteratorES3_ET0_T_S5_S4_
FNF:28
FNH:0
DA:219,0
DA:224,0
DA:225,0
DA:226,0
DA:277,0
DA:278,0
DA:357,0
DA:366,0
DA:367,0
DA:368,0
DA:369,0
DA:375,0
DA:380,0
DA:386,0
DA:420,0
DA:422,0
DA:424,0
DA:446,0
DA:455,0
DA:456,0
DA:559,0
DA:568,0
DA:569,0
DA:570,0
DA:571,0
DA:577,0
DA:582,0
DA:590,0
DA:595,0
DA:598,0
DA:599,0
DA:622,0
DA:633,0
DA:634,0
LF:34
LH:0
end_of_record
SF:/usr/include/c++/7/bits/stl_construct.h
FN:97,_ZSt8_DestroyISt5queueINSt7__cxx1112basic_stringIcSt11char_traitsIcESaIcEEESt5dequeIS6_SaIS6_EEEEvPT_
FN:97,_ZSt8_DestroyINSt7__cxx1112basic_stringIcSt11char_traitsIcESaIcEEEEvPT_
FN:97,_ZSt8_DestroyIN4Poco17DirectoryIteratorEEvPT_
FN:105,_ZNSt12_Destroy_auxILb0EE9__destroyIPNSt7__cxx1112basic_stringIcSt11char_traitsIcESaIcEEEEEvT_S9_
FN:105,_ZNSt12_Destroy_auxILb0EE9__destroyIPSt5queueINSt7__cxx1112basic_stringIcSt11char_traitsIcESaIcEEESt5dequeIS8_SaIS8_EEEEEvT_SE_
FN:105,_ZNSt12_Destroy_auxILb0EE9__destroyIPN4Poco17DirectoryIteratorEEEvT_S5_
FN:127,_ZSt8_DestroyIPN4Poco17DirectoryIteratorEEvT_S3_
FN:127,_ZSt8_DestroyIPNSt7__cxx1112basic_stringIcSt11char_traitsIcESaIcEEEEvT_S7_
FN:127,_ZSt8_DestroyIPSt5queueINSt7__cxx1112basic_stringIcSt11char_traitsIcESaIcEEESt5dequeIS6_SaIS6_EEEEvT_SC_
FN:203,_ZSt8_DestroyIPSt5queueINSt7__cxx1112basic_stringIcSt11char_traitsIcESaIcEEESt5dequeIS6_SaIS6_EEESA_EvT_SC_RSaIT0_E
FN:203,_ZSt8_DestroyIPN4Poco17DirectoryIteratorES1_EvT_S3_RSaIT0_E
FN:203,_ZSt8_DestroyIPNSt7__cxx1112basic_stringIcSt11char_traitsIcESaIcEEES5_EvT_S7_RSaIT0_E
FNDA:0,_ZSt8_DestroyINSt7__cxx1112basic_stringIcSt11char_traitsIcESaIcEEEEvPT_
FNDA:0,_ZSt8_DestroyISt5queueINSt7__cxx1112basic_stringIcSt11char_traitsIcESaIcEEESt5dequeIS6_SaIS6_EEEEvPT_
FNDA:0,_ZSt8_DestroyIN4Poco17DirectoryIteratorEEvPT_
FNDA:0,_ZNSt12_Destroy_auxILb0EE9__destroyIPNSt7__cxx1112basic_stringIcSt11char_traitsIcESaIcEEEEEvT_S9_
FNDA:0,_ZNSt12_Destroy_auxILb0EE9__destroyIPSt5queueINSt7__cxx1112basic_stringIcSt11char_traitsIcESaIcEEESt5dequeIS8_SaIS8_EEEEEvT_SE_
FNDA:0,_ZNSt12_Destroy_auxILb0EE9__destroyIPN4Poco17DirectoryIteratorEEEvT_S5_
FNDA:0,_ZSt8_DestroyIPNSt7__cxx1112basic_stringIcSt11char_traitsIcESaIcEEEEvT_S7_
FNDA:0,_ZSt8_DestroyIPSt5queueINSt7__cxx1112basic_stringIcSt11char_traitsIcESaIcEEESt5dequeIS6_SaIS6_EEEEvT_SC_
FNDA:0,_ZSt8_DestroyIPN4Poco17DirectoryIteratorEEvT_S3_
FNDA:0,_ZSt8_DestroyIPNSt7__cxx1112basic_stringIcSt11char_traitsIcESaIcEEES5_EvT_S7_RSaIT0_E
FNDA:0,_ZSt8_DestroyIPSt5queueINSt7__cxx1112basic_stringIcSt11char_traitsIcESaIcEEESt5dequeIS6_SaIS6_EEESA_EvT_SC_RSaIT0_E
FNDA:0,_ZSt8_DestroyIPN4Poco17DirectoryIteratorES1_EvT_S3_RSaIT0_E
FNF:12
FNH:0
DA:97,0
DA:98,0
DA:105,0
DA:107,0
DA:108,0
DA:109,0
DA:127,0
DA:137,0
DA:138,0
DA:203,0
DA:206,0
DA:207,0
LF:12
LH:0
end_of_record
SF:/usr/include/c++/7/bits/stl_deque.h
FN:91,_ZSt16__deque_buf_sizem
FN:128,_ZNSt15_Deque_iteratorINSt7__cxx1112basic_stringIcSt11char_traitsIcESaIcEEERS5_PS5_E14_S_buffer_sizeEv
FN:128,_ZNSt15_Deque_iteratorISt5queueINSt7__cxx1112basic_stringIcSt11char_traitsIcESaIcEEESt5dequeIS6_SaIS6_EEERSA_PSA_E14_S_buffer_sizeEv
FN:128,_ZNSt15_Deque_iteratorIN4Poco17DirectoryIteratorERS1_PS1_E14_S_buffer_sizeEv
FN:148,_ZNSt15_Deque_iteratorINSt7__cxx1112basic_stringIcSt11char_traitsIcESaIcEEERS5_PS5_EC2Ev
FN:148,_ZNSt15_Deque_iteratorIN4Poco17DirectoryIteratorERS1_PS1_EC2Ev
FN:148,_ZNSt15_Deque_iteratorISt5queueINSt7__cxx1112basic_stringIcSt11char_traitsIcESaIcEEESt5dequeIS6_SaIS6_EEERSA_PSA_EC2Ev
FN:151,_ZNSt15_Deque_iteratorISt5queueINSt7__cxx1112basic_stringIcSt11char_traitsIcESaIcEEESt5dequeIS6_SaIS6_EEERSA_PSA_EC2ERKSD_
FN:151,_ZNSt15_Deque_iteratorINSt7__cxx1112basic_stringIcSt11char_traitsIcESaIcEEERS5_PS5_EC2ERKS8_
FN:151,_ZNSt15_Deque_iteratorIN4Poco17DirectoryIteratorERS1_PS1_EC2ERKS4_
FN:160,_ZNKSt15_Deque_iteratorINSt7__cxx1112basic_stringIcSt11char_traitsIcESaIcEEERS5_PS5_EdeEv
FN:160,_ZNKSt15_Deque_iteratorIN4Poco17DirectoryIteratorERS1_PS1_EdeEv
FN:160,_ZNKSt15_Deque_iteratorISt5queueINSt7__cxx1112basic_stringIcSt11char_traitsIcESaIcEEESt5dequeIS6_SaIS6_EEERSA_PSA_EdeEv
FN:188,_ZNSt15_Deque_iteratorIN4Poco17DirectoryIteratorERS1_PS1_EmmEv
FN:188,_ZNSt15_Deque_iteratorISt5queueINSt7__cxx1112basic_stringIcSt11char_traitsIcESaIcEEESt5dequeIS6_SaIS6_EEERSA_PSA_EmmEv
FN:254,_ZNSt15_Deque_iteratorIN4Poco17DirectoryIteratorERS1_PS1_E11_M_set_nodeEPS3_
FN:254,_ZNSt15_Deque_iteratorISt5queueINSt7__cxx1112basic_stringIcSt11char_traitsIcESaIcEEESt5dequeIS6_SaIS6_EEERSA_PSA_E11_M_set_nodeEPSC_
FN:254,_ZNSt15_Deque_iteratorINSt7__cxx1112basic_stringIcSt11char_traitsIcESaIcEEERS5_PS5_E11_M_set_nodeEPS7_
FN:267,_ZSteqIN4Poco17DirectoryIteratorERS1_PS1_EbRKSt15_Deque_iteratorIT_T0_T1_ESA_
FN:267,_ZSteqINSt7__cxx1112basic_stringIcSt11char_traitsIcESaIcEEERS5_PS5_EbRKSt15_Deque_iteratorIT_T0_T1_ESE_
FN:490,_ZNSt11_Deque_baseIN4Poco17DirectoryIteratorESaIS1_EEC2Ev
FN:490,_ZNSt11_Deque_baseISt5queueINSt7__cxx1112basic_stringIcSt11char_traitsIcESaIcEEESt5dequeIS6_SaIS6_EEESaISA_EEC2Ev
FN:490,_ZNSt11_Deque_baseINSt7__cxx1112basic_stringIcSt11char_traitsIcESaIcEEESaIS5_EEC2Ev
FN:511,_ZNSt11_Deque_baseINSt7__cxx1112basic_stringIcSt11char_traitsIcESaIcEEESaIS5_EEC2EOS7_St17integral_constantIbLb1EE
FN:519,_ZNSt11_Deque_baseINSt7__cxx1112basic_stringIcSt11char_traitsIcESaIcEEESaIS5_EEC2EOS7_
FN:549,_ZNSt11_Deque_baseINSt7__cxx1112basic_stringIcSt11char_traitsIcESaIcEEESaIS5_EE11_Deque_implD2Ev
FN:549,_ZNSt11_Deque_baseIN4Poco17DirectoryIteratorESaIS1_EE11_Deque_implD2Ev
FN:549,_ZNSt11_Deque_baseISt5queueINSt7__cxx1112basic_stringIcSt11char_traitsIcESaIcEEESt5dequeIS6_SaIS6_EEESaISA_EE11_Deque_implD2Ev
FN:557,_ZNSt11_Deque_baseINSt7__cxx1112basic_stringIcSt11char_traitsIcESaIcEEESaIS5_EE11_Deque_implC2Ev
FN:557,_ZNSt11_Deque_baseIN4Poco17DirectoryIteratorESaIS1_EE11_Deque_implC2Ev
FN:557,_ZNSt11_Deque_baseISt5queueINSt7__cxx1112basic_stringIcSt11char_traitsIcESaIcEEESt5dequeIS6_SaIS6_EEESaISA_EE11_Deque_implC2Ev
FN:570,_ZNSt11_Deque_baseINSt7__cxx1112basic_stringIcSt11char_traitsIcESaIcEEESaIS5_EE11_Deque_implC2EOS6_
FN:576,_ZNSt11_Deque_baseINSt7__cxx1112basic_stringIcSt11char_traitsIcESaIcEEESaIS5_EE11_Deque_impl12_M_swap_dataERS8_
FN:587,_ZNSt11_Deque_baseIN4Poco17DirectoryIteratorESaIS1_EE19_M_get_Tp_allocatorEv
FN:587,_ZNSt11_Deque_baseISt5queueINSt7__cxx1112basic_stringIcSt11char_traitsIcESaIcEEESt5dequeIS6_SaIS6_EEESaISA_EE19_M_get_Tp_allocatorEv
FN:587,_ZNSt11_Deque_baseINSt7__cxx1112basic_stringIcSt11char_traitsIcESaIcEEESaIS5_EE19_M_get_Tp_allocatorEv
FN:591,_ZNKSt11_Deque_baseISt5queueINSt7__cxx1112basic_stringIcSt11char_traitsIcESaIcEEESt5dequeIS6_SaIS6_EEESaISA_EE19_M_get_Tp_allocatorEv
FN:591,_ZNKSt11_Deque_baseINSt7__cxx1112basic_stringIcSt11char_traitsIcESaIcEEESaIS5_EE19_M_get_Tp_allocatorEv
FN:591,_ZNKSt11_Deque_baseIN4Poco17DirectoryIteratorESaIS1_EE19_M_get_Tp_allocatorEv
FN:595,_ZNKSt11_Deque_baseIN4Poco17DirectoryIteratorESaIS1_EE20_M_get_map_allocatorEv
FN:595,_ZNKSt11_Deque_baseINSt7__cxx1112basic_stringIcSt11char_traitsIcESaIcEEESaIS5_EE20_M_get_map_allocatorEv
FN:595,_ZNKSt11_Deque_baseISt5queueINSt7__cxx1112basic_stringIcSt11char_traitsIcESaIcEEESt5dequeIS6_SaIS6_EEESaISA_EE20_M_get_map_allocatorEv
FN:599,_ZNSt11_Deque_baseINSt7__cxx1112basic_stringIcSt11char_traitsIcESaIcEEESaIS5_EE16_M_allocate_nodeEv
FN:599,_ZNSt11_Deque_baseIN4Poco17DirectoryIteratorESaIS1_EE16_M_allocate_nodeEv
FN:599,_ZNSt11_Deque_baseISt5queueINSt7__cxx1112basic_stringIcSt11char_traitsIcESaIcEEESt5dequeIS6_SaIS6_EEESaISA_EE16_M_allocate_nodeEv
FN:606,_ZNSt11_Deque_baseINSt7__cxx1112basic_stringIcSt11char_traitsIcESaIcEEESaIS5_EE18_M_deallocate_nodeEPS5_
FN:606,_ZNSt11_Deque_baseIN4Poco17DirectoryIteratorESaIS1_EE18_M_deallocate_nodeEPS1_
FN:606,_ZNSt11_Deque_baseISt5queueINSt7__cxx1112basic_stringIcSt11char_traitsIcESaIcEEESt5dequeIS6_SaIS6_EEESaISA_EE18_M_deallocate_nodeEPSA_
FN:613,_ZNSt11_Deque_baseISt5queueINSt7__cxx1112basic_stringIcSt11char_traitsIcESaIcEEESt5dequeIS6_SaIS6_EEESaISA_EE15_M_allocate_mapEm
FN:613,_ZNSt11_Deque_baseINSt7__cxx1112basic_stringIcSt11char_traitsIcESaIcEEESaIS5_EE15_M_allocate_mapEm
FN:613,_ZNSt11_Deque_baseIN4Poco17DirectoryIteratorESaIS1_EE15_M_allocate_mapEm
FN:620,_ZNSt11_Deque_baseISt5queueINSt7__cxx1112basic_stringIcSt11char_traitsIcESaIcEEESt5dequeIS6_SaIS6_EEESaISA_EE17_M_deallocate_mapEPPSA_m
FN:620,_ZNSt11_Deque_baseINSt7__cxx1112basic_stringIcSt11char_traitsIcESaIcEEESaIS5_EE17_M_deallocate_mapEPPS5_m
FN:620,_ZNSt11_Deque_baseIN4Poco17DirectoryIteratorESaIS1_EE17_M_deallocate_mapEPPS1_m
FN:660,_ZNSt11_Deque_baseINSt7__cxx1112basic_stringIcSt11char_traitsIcESaIcEEESaIS5_EED2Ev
FN:660,_ZNSt11_Deque_baseIN4Poco17DirectoryIteratorESaIS1_EED2Ev
FN:660,_ZNSt11_Deque_baseISt5queueINSt7__cxx1112basic_stringIcSt11char_traitsIcESaIcEEESt5dequeIS6_SaIS6_EEESaISA_EED2Ev
FN:681,_ZNSt11_Deque_baseINSt7__cxx1112basic_stringIcSt11char_traitsIcESaIcEEESaIS5_EE17_M_initialize_mapEm
FN:681,_ZNSt11_Deque_baseIN4Poco17DirectoryIteratorESaIS1_EE17_M_initialize_mapEm
FN:681,_ZNSt11_Deque_baseISt5queueINSt7__cxx1112basic_stringIcSt11char_traitsIcESaIcEEESt5dequeIS6_SaIS6_EEESaISA_EE17_M_initialize_mapEm
FN:720,_ZNSt11_Deque_baseINSt7__cxx1112basic_stringIcSt11char_traitsIcESaIcEEESaIS5_EE15_M_create_nodesEPPS5_S9_
FN:720,_ZNSt11_Deque_baseISt5queueINSt7__cxx1112basic_stringIcSt11char_traitsIcESaIcEEESt5dequeIS6_SaIS6_EEESaISA_EE15_M_create_nodesEPPSA_SE_
FN:720,_ZNSt11_Deque_baseIN4Poco17DirectoryIteratorESaIS1_EE15_M_create_nodesEPPS1_S5_
FN:738,_ZNSt11_Deque_baseINSt7__cxx1112basic_stringIcSt11char_traitsIcESaIcEEESaIS5_EE16_M_destroy_nodesEPPS5_S9_
FN:738,_ZNSt11_Deque_baseISt5queueINSt7__cxx1112basic_stringIcSt11char_traitsIcESaIcEEESt5dequeIS6_SaIS6_EEESaISA_EE16_M_destroy_nodesEPPSA_SE_
FN:738,_ZNSt11_Deque_baseIN4Poco17DirectoryIteratorESaIS1_EE16_M_destroy_nodesEPPS1_S5_
FN:862,_ZNSt5dequeIN4Poco17DirectoryIteratorESaIS1_EE14_S_buffer_sizeEv
FN:862,_ZNSt5dequeINSt7__cxx1112basic_stringIcSt11char_traitsIcESaIcEEESaIS5_EE14_S_buffer_sizeEv
FN:862,_ZNSt5dequeISt5queueINSt7__cxx1112basic_stringIcSt11char_traitsIcESaIcEEES_IS6_SaIS6_EEESaIS9_EE14_S_buffer_sizeEv
FN:888,_ZNSt5dequeINSt7__cxx1112basic_stringIcSt11char_traitsIcESaIcEEESaIS5_EEC2Ev
FN:888,_ZNSt5dequeISt5queueINSt7__cxx1112basic_stringIcSt11char_traitsIcESaIcEEES_IS6_SaIS6_EEESaIS9_EEC2Ev
FN:888,_ZNSt5dequeIN4Poco17DirectoryIteratorESaIS1_EEC2Ev
FN:962,_ZNSt5dequeINSt7__cxx1112basic_stringIcSt11char_traitsIcESaIcEEESaIS5_EEC2EOS7_
FN:1044,_ZNSt5dequeIN4Poco17DirectoryIteratorESaIS1_EED2Ev
FN:1044,_ZNSt5dequeINSt7__cxx1112basic_stringIcSt11char_traitsIcESaIcEEESaIS5_EED2Ev
FN:1044,_ZNSt5dequeISt5queueINSt7__cxx1112basic_stringIcSt11char_traitsIcESaIcEEES_IS6_SaIS6_EEESaIS9_EED2Ev
FN:1166,_ZNSt5dequeISt5queueINSt7__cxx1112basic_stringIcSt11char_traitsIcESaIcEEES_IS6_SaIS6_EEESaIS9_EE5beginEv
FN:1166,_ZNSt5dequeIN4Poco17DirectoryIteratorESaIS1_EE5beginEv
FN:1166,_ZNSt5dequeINSt7__cxx1112basic_stringIcSt11char_traitsIcESaIcEEESaIS5_EE5beginEv
FN:1183,_ZNSt5dequeIN4Poco17DirectoryIteratorESaIS1_EE3endEv
FN:1183,_ZNSt5dequeISt5queueINSt7__cxx1112basic_stringIcSt11char_traitsIcESaIcEEES_IS6_SaIS6_EEESaIS9_EE3endEv
FN:1183,_ZNSt5dequeINSt7__cxx1112basic_stringIcSt11char_traitsIcESaIcEEESaIS5_EE3endEv
FN:1357,_ZNKSt5dequeINSt7__cxx1112basic_stringIcSt11char_traitsIcESaIcEEESaIS5_EE5emptyEv
FN:1357,_ZNKSt5dequeIN4Poco17DirectoryIteratorESaIS1_EE5emptyEv
FN:1451,_ZNSt5dequeINSt7__cxx1112basic_stringIcSt11char_traitsIcESaIcEEESaIS5_EE5frontEv
FN:1473,_ZNSt5dequeISt5queueINSt7__cxx1112basic_stringIcSt11char_traitsIcESaIcEEES_IS6_SaIS6_EEESaIS9_EE4backEv
FN:1473,_ZNSt5dequeIN4Poco17DirectoryIteratorESaIS1_EE4backEv
FN:1542,_ZNSt5dequeIN4Poco17DirectoryIteratorESaIS1_EE9push_backERKS1_
FN:1542,_ZNSt5dequeINSt7__cxx1112basic_stringIcSt11char_traitsIcESaIcEEESaIS5_EE9push_backERKS5_
FN:1557,_ZNSt5dequeISt5queueINSt7__cxx1112basic_stringIcSt11char_traitsIcESaIcEEES_IS6_SaIS6_EEESaIS9_EE9push_backEOS9_
FN:1578,_ZNSt5dequeINSt7__cxx1112basic_stringIcSt11char_traitsIcESaIcEEESaIS5_EE9pop_frontEv
FN:1601,_ZNSt5dequeISt5queueINSt7__cxx1112basic_stringIcSt11char_traitsIcESaIcEEES_IS6_SaIS6_EEESaIS9_EE8pop_backEv
FN:1601,_ZNSt5dequeIN4Poco17DirectoryIteratorESaIS1_EE8pop_backEv
FN:2068,_ZNSt5dequeISt5queueINSt7__cxx1112basic_stringIcSt11char_traitsIcESaIcEEES_IS6_SaIS6_EEESaIS9_EE15_M_destroy_dataESt15_Deque_iteratorIS9_RS9_PS9_ESF_RKSA_
FN:2068,_ZNSt5dequeINSt7__cxx1112basic_stringIcSt11char_traitsIcESaIcEEESaIS5_EE15_M_destroy_dataESt15_Deque_iteratorIS5_RS5_PS5_ESB_RKS6_
FN:2068,_ZNSt5dequeIN4Poco17DirectoryIteratorESaIS1_EE15_M_destroy_dataESt15_Deque_iteratorIS1_RS1_PS1_ES7_RKS2_
FN:2149,_ZNSt5dequeISt5queueINSt7__cxx1112basic_stringIcSt11char_traitsIcESaIcEEES_IS6_SaIS6_EEESaIS9_EE22_M_reserve_map_at_backEm
FN:2149,_ZNSt5dequeIN4Poco17DirectoryIteratorESaIS1_EE22_M_reserve_map_at_backEm
FN:2149,_ZNSt5dequeINSt7__cxx1112basic_stringIcSt11char_traitsIcESaIcEEESaIS5_EE22_M_reserve_map_at_backEm
FNDA:0,_ZSt16__deque_buf_sizem
FNDA:0,_ZNSt15_Deque_iteratorINSt7__cxx1112basic_stringIcSt11char_traitsIcESaIcEEERS5_PS5_E14_S_buffer_sizeEv
FNDA:0,_ZNSt15_Deque_iteratorISt5queueINSt7__cxx1112basic_stringIcSt11char_traitsIcESaIcEEESt5dequeIS6_SaIS6_EEERSA_PSA_E14_S_buffer_sizeEv
FNDA:0,_ZNSt15_Deque_iteratorIN4Poco17DirectoryIteratorERS1_PS1_E14_S_buffer_sizeEv
FNDA:0,_ZNSt15_Deque_iteratorINSt7__cxx1112basic_stringIcSt11char_traitsIcESaIcEEERS5_PS5_EC2Ev
FNDA:0,_ZNSt15_Deque_iteratorISt5queueINSt7__cxx1112basic_stringIcSt11char_traitsIcESaIcEEESt5dequeIS6_SaIS6_EEERSA_PSA_EC2Ev
FNDA:0,_ZNSt15_Deque_iteratorIN4Poco17DirectoryIteratorERS1_PS1_EC2Ev
FNDA:0,_ZNSt15_Deque_iteratorINSt7__cxx1112basic_stringIcSt11char_traitsIcESaIcEEERS5_PS5_EC2ERKS8_
FNDA:0,_ZNSt15_Deque_iteratorISt5queueINSt7__cxx1112basic_stringIcSt11char_traitsIcESaIcEEESt5dequeIS6_SaIS6_EEERSA_PSA_EC2ERKSD_
FNDA:0,_ZNSt15_Deque_iteratorIN4Poco17DirectoryIteratorERS1_PS1_EC2ERKS4_
FNDA:0,_ZNKSt15_Deque_iteratorINSt7__cxx1112basic_stringIcSt11char_traitsIcESaIcEEERS5_PS5_EdeEv
FNDA:0,_ZNKSt15_Deque_iteratorISt5queueINSt7__cxx1112basic_stringIcSt11char_traitsIcESaIcEEESt5dequeIS6_SaIS6_EEERSA_PSA_EdeEv
FNDA:0,_ZNKSt15_Deque_iteratorIN4Poco17DirectoryIteratorERS1_PS1_EdeEv
FNDA:0,_ZNSt15_Deque_iteratorISt5queueINSt7__cxx1112basic_stringIcSt11char_traitsIcESaIcEEESt5dequeIS6_SaIS6_EEERSA_PSA_EmmEv
FNDA:0,_ZNSt15_Deque_iteratorIN4Poco17DirectoryIteratorERS1_PS1_EmmEv
FNDA:0,_ZNSt15_Deque_iteratorINSt7__cxx1112basic_stringIcSt11char_traitsIcESaIcEEERS5_PS5_E11_M_set_nodeEPS7_
FNDA:0,_ZNSt15_Deque_iteratorISt5queueINSt7__cxx1112basic_stringIcSt11char_traitsIcESaIcEEESt5dequeIS6_SaIS6_EEERSA_PSA_E11_M_set_nodeEPSC_
FNDA:0,_ZNSt15_Deque_iteratorIN4Poco17DirectoryIteratorERS1_PS1_E11_M_set_nodeEPS3_
FNDA:0,_ZSteqINSt7__cxx1112basic_stringIcSt11char_traitsIcESaIcEEERS5_PS5_EbRKSt15_Deque_iteratorIT_T0_T1_ESE_
FNDA:0,_ZSteqIN4Poco17DirectoryIteratorERS1_PS1_EbRKSt15_Deque_iteratorIT_T0_T1_ESA_
FNDA:0,_ZNSt11_Deque_baseINSt7__cxx1112basic_stringIcSt11char_traitsIcESaIcEEESaIS5_EEC2Ev
FNDA:0,_ZNSt11_Deque_baseISt5queueINSt7__cxx1112basic_stringIcSt11char_traitsIcESaIcEEESt5dequeIS6_SaIS6_EEESaISA_EEC2Ev
FNDA:0,_ZNSt11_Deque_baseIN4Poco17DirectoryIteratorESaIS1_EEC2Ev
FNDA:0,_ZNSt11_Deque_baseINSt7__cxx1112basic_stringIcSt11char_traitsIcESaIcEEESaIS5_EEC2EOS7_St17integral_constantIbLb1EE
FNDA:0,_ZNSt11_Deque_baseINSt7__cxx1112basic_stringIcSt11char_traitsIcESaIcEEESaIS5_EEC2EOS7_
FNDA:0,_ZNSt11_Deque_baseINSt7__cxx1112basic_stringIcSt11char_traitsIcESaIcEEESaIS5_EE11_Deque_implD2Ev
FNDA:0,_ZNSt11_Deque_baseISt5queueINSt7__cxx1112basic_stringIcSt11char_traitsIcESaIcEEESt5dequeIS6_SaIS6_EEESaISA_EE11_Deque_implD2Ev
FNDA:0,_ZNSt11_Deque_baseIN4Poco17DirectoryIteratorESaIS1_EE11_Deque_implD2Ev
FNDA:0,_ZNSt11_Deque_baseINSt7__cxx1112basic_stringIcSt11char_traitsIcESaIcEEESaIS5_EE11_Deque_implC2Ev
FNDA:0,_ZNSt11_Deque_baseISt5queueINSt7__cxx1112basic_stringIcSt11char_traitsIcESaIcEEESt5dequeIS6_SaIS6_EEESaISA_EE11_Deque_implC2Ev
FNDA:0,_ZNSt11_Deque_baseIN4Poco17DirectoryIteratorESaIS1_EE11_Deque_implC2Ev
FNDA:0,_ZNSt11_Deque_baseINSt7__cxx1112basic_stringIcSt11char_traitsIcESaIcEEESaIS5_EE11_Deque_implC2EOS6_
FNDA:0,_ZNSt11_Deque_baseINSt7__cxx1112basic_stringIcSt11char_traitsIcESaIcEEESaIS5_EE11_Deque_impl12_M_swap_dataERS8_
FNDA:0,_ZNSt11_Deque_baseINSt7__cxx1112basic_stringIcSt11char_traitsIcESaIcEEESaIS5_EE19_M_get_Tp_allocatorEv
FNDA:0,_ZNSt11_Deque_baseISt5queueINSt7__cxx1112basic_stringIcSt11char_traitsIcESaIcEEESt5dequeIS6_SaIS6_EEESaISA_EE19_M_get_Tp_allocatorEv
FNDA:0,_ZNSt11_Deque_baseIN4Poco17DirectoryIteratorESaIS1_EE19_M_get_Tp_allocatorEv
FNDA:0,_ZNKSt11_Deque_baseINSt7__cxx1112basic_stringIcSt11char_traitsIcESaIcEEESaIS5_EE19_M_get_Tp_allocatorEv
FNDA:0,_ZNKSt11_Deque_baseISt5queueINSt7__cxx1112basic_stringIcSt11char_traitsIcESaIcEEESt5dequeIS6_SaIS6_EEESaISA_EE19_M_get_Tp_allocatorEv
FNDA:0,_ZNKSt11_Deque_baseIN4Poco17DirectoryIteratorESaIS1_EE19_M_get_Tp_allocatorEv
FNDA:0,_ZNKSt11_Deque_baseINSt7__cxx1112basic_stringIcSt11char_traitsIcESaIcEEESaIS5_EE20_M_get_map_allocatorEv
FNDA:0,_ZNKSt11_Deque_baseISt5queueINSt7__cxx1112basic_stringIcSt11char_traitsIcESaIcEEESt5dequeIS6_SaIS6_EEESaISA_EE20_M_get_map_allocatorEv
FNDA:0,_ZNKSt11_Deque_baseIN4Poco17DirectoryIteratorESaIS1_EE20_M_get_map_allocatorEv
FNDA:0,_ZNSt11_Deque_baseISt5queueINSt7__cxx1112basic_stringIcSt11char_traitsIcESaIcEEESt5dequeIS6_SaIS6_EEESaISA_EE16_M_allocate_nodeEv
FNDA:0,_ZNSt11_Deque_baseINSt7__cxx1112basic_stringIcSt11char_traitsIcESaIcEEESaIS5_EE16_M_allocate_nodeEv
FNDA:0,_ZNSt11_Deque_baseIN4Poco17DirectoryIteratorESaIS1_EE16_M_allocate_nodeEv
FNDA:0,_ZNSt11_Deque_baseINSt7__cxx1112basic_stringIcSt11char_traitsIcESaIcEEESaIS5_EE18_M_deallocate_nodeEPS5_
FNDA:0,_ZNSt11_Deque_baseISt5queueINSt7__cxx1112basic_stringIcSt11char_traitsIcESaIcEEESt5dequeIS6_SaIS6_EEESaISA_EE18_M_deallocate_nodeEPSA_
FNDA:0,_ZNSt11_Deque_baseIN4Poco17DirectoryIteratorESaIS1_EE18_M_deallocate_nodeEPS1_
FNDA:0,_ZNSt11_Deque_baseINSt7__cxx1112basic_stringIcSt11char_traitsIcESaIcEEESaIS5_EE15_M_allocate_mapEm
FNDA:0,_ZNSt11_Deque_baseISt5queueINSt7__cxx1112basic_stringIcSt11char_traitsIcESaIcEEESt5dequeIS6_SaIS6_EEESaISA_EE15_M_allocate_mapEm
FNDA:0,_ZNSt11_Deque_baseIN4Poco17DirectoryIteratorESaIS1_EE15_M_allocate_mapEm
FNDA:0,_ZNSt11_Deque_baseINSt7__cxx1112basic_stringIcSt11char_traitsIcESaIcEEESaIS5_EE17_M_deallocate_mapEPPS5_m
FNDA:0,_ZNSt11_Deque_baseISt5queueINSt7__cxx1112basic_stringIcSt11char_traitsIcESaIcEEESt5dequeIS6_SaIS6_EEESaISA_EE17_M_deallocate_mapEPPSA_m
FNDA:0,_ZNSt11_Deque_baseIN4Poco17DirectoryIteratorESaIS1_EE17_M_deallocate_mapEPPS1_m
FNDA:0,_ZNSt11_Deque_baseINSt7__cxx1112basic_stringIcSt11char_traitsIcESaIcEEESaIS5_EED2Ev
FNDA:0,_ZNSt11_Deque_baseISt5queueINSt7__cxx1112basic_stringIcSt11char_traitsIcESaIcEEESt5dequeIS6_SaIS6_EEESaISA_EED2Ev
FNDA:0,_ZNSt11_Deque_baseIN4Poco17DirectoryIteratorESaIS1_EED2Ev
FNDA:0,_ZNSt11_Deque_baseINSt7__cxx1112basic_stringIcSt11char_traitsIcESaIcEEESaIS5_EE17_M_initialize_mapEm
FNDA:0,_ZNSt11_Deque_baseISt5queueINSt7__cxx1112basic_stringIcSt11char_traitsIcESaIcEEESt5dequeIS6_SaIS6_EEESaISA_EE17_M_initialize_mapEm
FNDA:0,_ZNSt11_Deque_baseIN4Poco17DirectoryIteratorESaIS1_EE17_M_initialize_mapEm
FNDA:0,_ZNSt11_Deque_baseINSt7__cxx1112basic_stringIcSt11char_traitsIcESaIcEEESaIS5_EE15_M_create_nodesEPPS5_S9_
FNDA:0,_ZNSt11_Deque_baseISt5queueINSt7__cxx1112basic_stringIcSt11char_traitsIcESaIcEEESt5dequeIS6_SaIS6_EEESaISA_EE15_M_create_nodesEPPSA_SE_
FNDA:0,_ZNSt11_Deque_baseIN4Poco17DirectoryIteratorESaIS1_EE15_M_create_nodesEPPS1_S5_
FNDA:0,_ZNSt11_Deque_baseINSt7__cxx1112basic_stringIcSt11char_traitsIcESaIcEEESaIS5_EE16_M_destroy_nodesEPPS5_S9_
FNDA:0,_ZNSt11_Deque_baseISt5queueINSt7__cxx1112basic_stringIcSt11char_traitsIcESaIcEEESt5dequeIS6_SaIS6_EEESaISA_EE16_M_destroy_nodesEPPSA_SE_
FNDA:0,_ZNSt11_Deque_baseIN4Poco17DirectoryIteratorESaIS1_EE16_M_destroy_nodesEPPS1_S5_
FNDA:0,_ZNSt5dequeINSt7__cxx1112basic_stringIcSt11char_traitsIcESaIcEEESaIS5_EE14_S_buffer_sizeEv
FNDA:0,_ZNSt5dequeISt5queueINSt7__cxx1112basic_stringIcSt11char_traitsIcESaIcEEES_IS6_SaIS6_EEESaIS9_EE14_S_buffer_sizeEv
FNDA:0,_ZNSt5dequeIN4Poco17DirectoryIteratorESaIS1_EE14_S_buffer_sizeEv
FNDA:0,_ZNSt5dequeINSt7__cxx1112basic_stringIcSt11char_traitsIcESaIcEEESaIS5_EEC2Ev
FNDA:0,_ZNSt5dequeISt5queueINSt7__cxx1112basic_stringIcSt11char_traitsIcESaIcEEES_IS6_SaIS6_EEESaIS9_EEC2Ev
FNDA:0,_ZNSt5dequeIN4Poco17DirectoryIteratorESaIS1_EEC2Ev
FNDA:0,_ZNSt5dequeINSt7__cxx1112basic_stringIcSt11char_traitsIcESaIcEEESaIS5_EEC2EOS7_
FNDA:0,_ZNSt5dequeINSt7__cxx1112basic_stringIcSt11char_traitsIcESaIcEEESaIS5_EED2Ev
FNDA:0,_ZNSt5dequeISt5queueINSt7__cxx1112basic_stringIcSt11char_traitsIcESaIcEEES_IS6_SaIS6_EEESaIS9_EED2Ev
FNDA:0,_ZNSt5dequeIN4Poco17DirectoryIteratorESaIS1_EED2Ev
FNDA:0,_ZNSt5dequeINSt7__cxx1112basic_stringIcSt11char_traitsIcESaIcEEESaIS5_EE5beginEv
FNDA:0,_ZNSt5dequeISt5queueINSt7__cxx1112basic_stringIcSt11char_traitsIcESaIcEEES_IS6_SaIS6_EEESaIS9_EE5beginEv
FNDA:0,_ZNSt5dequeIN4Poco17DirectoryIteratorESaIS1_EE5beginEv
FNDA:0,_ZNSt5dequeINSt7__cxx1112basic_stringIcSt11char_traitsIcESaIcEEESaIS5_EE3endEv
FNDA:0,_ZNSt5dequeISt5queueINSt7__cxx1112basic_stringIcSt11char_traitsIcESaIcEEES_IS6_SaIS6_EEESaIS9_EE3endEv
FNDA:0,_ZNSt5dequeIN4Poco17DirectoryIteratorESaIS1_EE3endEv
FNDA:0,_ZNKSt5dequeINSt7__cxx1112basic_stringIcSt11char_traitsIcESaIcEEESaIS5_EE5emptyEv
FNDA:0,_ZNKSt5dequeIN4Poco17DirectoryIteratorESaIS1_EE5emptyEv
FNDA:0,_ZNSt5dequeINSt7__cxx1112basic_stringIcSt11char_traitsIcESaIcEEESaIS5_EE5frontEv
FNDA:0,_ZNSt5dequeISt5queueINSt7__cxx1112basic_stringIcSt11char_traitsIcESaIcEEES_IS6_SaIS6_EEESaIS9_EE4backEv
FNDA:0,_ZNSt5dequeIN4Poco17DirectoryIteratorESaIS1_EE4backEv
FNDA:0,_ZNSt5dequeINSt7__cxx1112basic_stringIcSt11char_traitsIcESaIcEEESaIS5_EE9push_backERKS5_
FNDA:0,_ZNSt5dequeIN4Poco17DirectoryIteratorESaIS1_EE9push_backERKS1_
FNDA:0,_ZNSt5dequeISt5queueINSt7__cxx1112basic_stringIcSt11char_traitsIcESaIcEEES_IS6_SaIS6_EEESaIS9_EE9push_backEOS9_
FNDA:0,_ZNSt5dequeINSt7__cxx1112basic_stringIcSt11char_traitsIcESaIcEEESaIS5_EE9pop_frontEv
FNDA:0,_ZNSt5dequeISt5queueINSt7__cxx1112basic_stringIcSt11char_traitsIcESaIcEEES_IS6_SaIS6_EEESaIS9_EE8pop_backEv
FNDA:0,_ZNSt5dequeIN4Poco17DirectoryIteratorESaIS1_EE8pop_backEv
FNDA:0,_ZNSt5dequeINSt7__cxx1112basic_stringIcSt11char_traitsIcESaIcEEESaIS5_EE15_M_destroy_dataESt15_Deque_iteratorIS5_RS5_PS5_ESB_RKS6_
FNDA:0,_ZNSt5dequeISt5queueINSt7__cxx1112basic_stringIcSt11char_traitsIcESaIcEEES_IS6_SaIS6_EEESaIS9_EE15_M_destroy_dataESt15_Deque_iteratorIS9_RS9_PS9_ESF_RKSA_
FNDA:0,_ZNSt5dequeIN4Poco17DirectoryIteratorESaIS1_EE15_M_destroy_dataESt15_Deque_iteratorIS1_RS1_PS1_ES7_RKS2_
FNDA:0,_ZNSt5dequeISt5queueINSt7__cxx1112basic_stringIcSt11char_traitsIcESaIcEEES_IS6_SaIS6_EEESaIS9_EE22_M_reserve_map_at_backEm
FNDA:0,_ZNSt5dequeINSt7__cxx1112basic_stringIcSt11char_traitsIcESaIcEEESaIS5_EE22_M_reserve_map_at_backEm
FNDA:0,_ZNSt5dequeIN4Poco17DirectoryIteratorESaIS1_EE22_M_reserve_map_at_backEm
FNF:99
FNH:0
DA:91,0
DA:93,0
DA:128,0
DA:129,0
DA:148,0
DA:149,0
DA:151,0
DA:152,0
DA:153,0
DA:160,0
DA:161,0
DA:188,0
DA:190,0
DA:192,0
DA:193,0
DA:195,0
DA:196,0
DA:254,0
DA:256,0
DA:257,0
DA:258,0
DA:259,0
DA:267,0
DA:269,0
DA:490,0
DA:491,0
DA:492,0
DA:511,0
DA:512,0
DA:514,0
DA:515,0
DA:516,0
DA:517,0
DA:519,0
DA:520,0
DA:521,0
DA:549,0
DA:557,0
DA:559,0
DA:560,0
DA:570,0
DA:571,0
DA:572,0
DA:573,0
DA:576,0
DA:579,0
DA:580,0
DA:581,0
DA:582,0
DA:583,0
DA:587,0
DA:588,0
DA:591,0
DA:592,0
DA:595,0
DA:596,0
DA:599,0
DA:602,0
DA:606,0
DA:609,0
DA:610,0
DA:613,0
DA:615,0
DA:616,0
DA:620,0
DA:622,0
DA:623,0
DA:624,0
DA:660,0
DA:663,0
DA:665,0
DA:666,0
DA:667,0
DA:669,0
DA:681,0
DA:684,0
DA:687,0
DA:688,0
DA:689,0
DA:696,0
DA:697,0
DA:698,0
DA:701,0
DA:702,0
DA:704,0
DA:705,0
DA:706,0
DA:707,0
DA:710,0
DA:711,0
DA:712,0
DA:713,0
DA:714,0
DA:715,0
DA:716,0
DA:720,0
DA:726,0
DA:727,0
DA:729,0
DA:731,0
DA:732,0
DA:734,0
DA:738,0
DA:742,0
DA:743,0
DA:744,0
DA:862,0
DA:863,0
DA:888,0
DA:962,0
DA:963,0
DA:1044,0
DA:1045,0
DA:1166,0
DA:1167,0
DA:1183,0
DA:1184,0
DA:1357,0
DA:1358,0
DA:1451,0
DA:1454,0
DA:1473,0
DA:1476,0
DA:1477,0
DA:1478,0
DA:1542,0
DA:1544,0
DA:1545,0
DA:1547,0
DA:1549,0
DA:1552,0
DA:1553,0
DA:1557,0
DA:1558,0
DA:1578,0
DA:1581,0
DA:1582,0
DA:1584,0
DA:1586,0
DA:1589,0
DA:1590,0
DA:1601,0
DA:1604,0
DA:1605,0
DA:1607,0
DA:1608,0
DA:1612,0
DA:1613,0
DA:2068,0
DA:2072,0
DA:2073,0
DA:2149,0
DA:2151,0
DA:2152,0
DA:2153,0
DA:2154,0
LF:156
LH:0
end_of_record
SF:/usr/include/c++/7/bits/stl_queue.h
FN:96,_ZNSt5queueINSt7__cxx1112basic_stringIcSt11char_traitsIcESaIcEEESt5dequeIS5_SaIS5_EEED2Ev
FN:96,_ZNSt5queueINSt7__cxx1112basic_stringIcSt11char_traitsIcESaIcEEESt5dequeIS5_SaIS5_EEEC2EOS9_
FN:152,_ZNSt5queueINSt7__cxx1112basic_stringIcSt11char_traitsIcESaIcEEESt5dequeIS5_SaIS5_EEEC2IS8_vEEv
FN:189,_ZNKSt5queueINSt7__cxx1112basic_stringIcSt11char_traitsIcESaIcEEESt5dequeIS5_SaIS5_EEE5emptyEv
FN:202,_ZNSt5queueINSt7__cxx1112basic_stringIcSt11char_traitsIcESaIcEEESt5dequeIS5_SaIS5_EEE5frontEv
FN:251,_ZNSt5queueINSt7__cxx1112basic_stringIcSt11char_traitsIcESaIcEEESt5dequeIS5_SaIS5_EEE4pushERKS5_
FN:284,_ZNSt5queueINSt7__cxx1112basic_stringIcSt11char_traitsIcESaIcEEESt5dequeIS5_SaIS5_EEE3popEv
FNDA:0,_ZNSt5queueINSt7__cxx1112basic_stringIcSt11char_traitsIcESaIcEEESt5dequeIS5_SaIS5_EEEC2EOS9_
FNDA:0,_ZNSt5queueINSt7__cxx1112basic_stringIcSt11char_traitsIcESaIcEEESt5dequeIS5_SaIS5_EEED2Ev
FNDA:0,_ZNSt5queueINSt7__cxx1112basic_stringIcSt11char_traitsIcESaIcEEESt5dequeIS5_SaIS5_EEEC2IS8_vEEv
FNDA:0,_ZNKSt5queueINSt7__cxx1112basic_stringIcSt11char_traitsIcESaIcEEESt5dequeIS5_SaIS5_EEE5emptyEv
FNDA:0,_ZNSt5queueINSt7__cxx1112basic_stringIcSt11char_traitsIcESaIcEEESt5dequeIS5_SaIS5_EEE5frontEv
FNDA:0,_ZNSt5queueINSt7__cxx1112basic_stringIcSt11char_traitsIcESaIcEEESt5dequeIS5_SaIS5_EEE4pushERKS5_
FNDA:0,_ZNSt5queueINSt7__cxx1112basic_stringIcSt11char_traitsIcESaIcEEESt5dequeIS5_SaIS5_EEE3popEv
FNF:7
FNH:0
DA:96,0
DA:152,0
DA:153,0
DA:189,0
DA:190,0
DA:202,0
DA:205,0
DA:251,0
DA:252,0
DA:284,0
DA:287,0
DA:288,0
LF:12
LH:0
end_of_record
SF:/usr/include/c++/7/bits/stl_stack.h
FN:99,_ZNSt5stackISt5queueINSt7__cxx1112basic_stringIcSt11char_traitsIcESaIcEEESt5dequeIS6_SaIS6_EEES7_ISA_SaISA_EEED2Ev
FN:99,_ZNSt5stackIN4Poco17DirectoryIteratorESt5dequeIS1_SaIS1_EEED2Ev
FN:148,_ZNSt5stackIN4Poco17DirectoryIteratorESt5dequeIS1_SaIS1_EEEC2IS4_vEEv
FN:148,_ZNSt5stackISt5queueINSt7__cxx1112basic_stringIcSt11char_traitsIcESaIcEEESt5dequeIS6_SaIS6_EEES7_ISA_SaISA_EEEC2ISC_vEEv
FN:185,_ZNKSt5stackIN4Poco17DirectoryIteratorESt5dequeIS1_SaIS1_EEE5emptyEv
FN:198,_ZNSt5stackIN4Poco17DirectoryIteratorESt5dequeIS1_SaIS1_EEE3topEv
FN:198,_ZNSt5stackISt5queueINSt7__cxx1112basic_stringIcSt11char_traitsIcESaIcEEESt5dequeIS6_SaIS6_EEES7_ISA_SaISA_EEE3topEv
FN:225,_ZNSt5stackIN4Poco17DirectoryIteratorESt5dequeIS1_SaIS1_EEE4pushERKS1_
FN:230,_ZNSt5stackISt5queueINSt7__cxx1112basic_stringIcSt11char_traitsIcESaIcEEESt5dequeIS6_SaIS6_EEES7_ISA_SaISA_EEE4pushEOSA_
FN:258,_ZNSt5stackIN4Poco17DirectoryIteratorESt5dequeIS1_SaIS1_EEE3popEv
FN:258,_ZNSt5stackISt5queueINSt7__cxx1112basic_stringIcSt11char_traitsIcESaIcEEESt5dequeIS6_SaIS6_EEES7_ISA_SaISA_EEE3popEv
FNDA:0,_ZNSt5stackISt5queueINSt7__cxx1112basic_stringIcSt11char_traitsIcESaIcEEESt5dequeIS6_SaIS6_EEES7_ISA_SaISA_EEED2Ev
FNDA:0,_ZNSt5stackIN4Poco17DirectoryIteratorESt5dequeIS1_SaIS1_EEED2Ev
FNDA:0,_ZNSt5stackISt5queueINSt7__cxx1112basic_stringIcSt11char_traitsIcESaIcEEESt5dequeIS6_SaIS6_EEES7_ISA_SaISA_EEEC2ISC_vEEv
FNDA:0,_ZNSt5stackIN4Poco17DirectoryIteratorESt5dequeIS1_SaIS1_EEEC2IS4_vEEv
FNDA:0,_ZNKSt5stackIN4Poco17DirectoryIteratorESt5dequeIS1_SaIS1_EEE5emptyEv
FNDA:0,_ZNSt5stackISt5queueINSt7__cxx1112basic_stringIcSt11char_traitsIcESaIcEEESt5dequeIS6_SaIS6_EEES7_ISA_SaISA_EEE3topEv
FNDA:0,_ZNSt5stackIN4Poco17DirectoryIteratorESt5dequeIS1_SaIS1_EEE3topEv
FNDA:0,_ZNSt5stackIN4Poco17DirectoryIteratorESt5dequeIS1_SaIS1_EEE4pushERKS1_
FNDA:0,_ZNSt5stackISt5queueINSt7__cxx1112basic_stringIcSt11char_traitsIcESaIcEEESt5dequeIS6_SaIS6_EEES7_ISA_SaISA_EEE4pushEOSA_
FNDA:0,_ZNSt5stackISt5queueINSt7__cxx1112basic_stringIcSt11char_traitsIcESaIcEEESt5dequeIS6_SaIS6_EEES7_ISA_SaISA_EEE3popEv
FNDA:0,_ZNSt5stackIN4Poco17DirectoryIteratorESt5dequeIS1_SaIS1_EEE3popEv
FNF:11
FNH:0
DA:99,0
DA:148,0
DA:149,0
DA:185,0
DA:186,0
DA:198,0
DA:201,0
DA:225,0
DA:226,0
DA:230,0
DA:231,0
DA:258,0
DA:261,0
DA:262,0
LF:14
LH:0
end_of_record
SF:/usr/include/c++/7/ext/new_allocator.h
FN:79,_ZN9__gnu_cxx13new_allocatorISt5queueINSt7__cxx1112basic_stringIcSt11char_traitsIcESaIcEEESt5dequeIS7_SaIS7_EEEEC2Ev
FN:79,_ZN9__gnu_cxx13new_allocatorIN4Poco17DirectoryIteratorEEC2Ev
FN:79,_ZN9__gnu_cxx13new_allocatorINSt7__cxx1112basic_stringIcSt11char_traitsIcESaIcEEEEC2Ev
FN:79,_ZN9__gnu_cxx13new_allocatorIPNSt7__cxx1112basic_stringIcSt11char_traitsIcESaIcEEEEC2Ev
FN:79,_ZN9__gnu_cxx13new_allocatorIPSt5queueINSt7__cxx1112basic_stringIcSt11char_traitsIcESaIcEEESt5dequeIS7_SaIS7_EEEEC2Ev
FN:79,_ZN9__gnu_cxx13new_allocatorIPN4Poco17DirectoryIteratorEEC2Ev
FN:81,_ZN9__gnu_cxx13new_allocatorINSt7__cxx1112basic_stringIcSt11char_traitsIcESaIcEEEEC2ERKS7_
FN:86,_ZN9__gnu_cxx13new_allocatorINSt7__cxx1112basic_stringIcSt11char_traitsIcESaIcEEEED2Ev
FN:86,_ZN9__gnu_cxx13new_allocatorIPN4Poco17DirectoryIteratorEED2Ev
FN:86,_ZN9__gnu_cxx13new_allocatorIPSt5queueINSt7__cxx1112basic_stringIcSt11char_traitsIcESaIcEEESt5dequeIS7_SaIS7_EEEED2Ev
FN:86,_ZN9__gnu_cxx13new_allocatorIPNSt7__cxx1112basic_stringIcSt11char_traitsIcESaIcEEEED2Ev
FN:86,_ZN9__gnu_cxx13new_allocatorISt5queueINSt7__cxx1112basic_stringIcSt11char_traitsIcESaIcEEESt5dequeIS7_SaIS7_EEEED2Ev
FN:86,_ZN9__gnu_cxx13new_allocatorIN4Poco17DirectoryIteratorEED2Ev
FN:99,_ZN9__gnu_cxx13new_allocatorISt5queueINSt7__cxx1112basic_stringIcSt11char_traitsIcESaIcEEESt5dequeIS7_SaIS7_EEEE8allocateEmPKv
FN:99,_ZN9__gnu_cxx13new_allocatorIN4Poco17DirectoryIteratorEE8allocateEmPKv
FN:99,_ZN9__gnu_cxx13new_allocatorIPSt5queueINSt7__cxx1112basic_stringIcSt11char_traitsIcESaIcEEESt5dequeIS7_SaIS7_EEEE8allocateEmPKv
FN:99,_ZN9__gnu_cxx13new_allocatorIPNSt7__cxx1112basic_stringIcSt11char_traitsIcESaIcEEEE8allocateEmPKv
FN:99,_ZN9__gnu_cxx13new_allocatorIPN4Poco17DirectoryIteratorEE8allocateEmPKv
FN:99,_ZN9__gnu_cxx13new_allocatorINSt7__cxx1112basic_stringIcSt11char_traitsIcESaIcEEEE8allocateEmPKv
FN:116,_ZN9__gnu_cxx13new_allocatorIPSt5queueINSt7__cxx1112basic_stringIcSt11char_traitsIcESaIcEEESt5dequeIS7_SaIS7_EEEE10deallocateEPSC_m
FN:116,_ZN9__gnu_cxx13new_allocatorIPNSt7__cxx1112basic_stringIcSt11char_traitsIcESaIcEEEE10deallocateEPS7_m
FN:116,_ZN9__gnu_cxx13new_allocatorIPN4Poco17DirectoryIteratorEE10deallocateEPS3_m
FN:116,_ZN9__gnu_cxx13new_allocatorISt5queueINSt7__cxx1112basic_stringIcSt11char_traitsIcESaIcEEESt5dequeIS7_SaIS7_EEEE10deallocateEPSB_m
FN:116,_ZN9__gnu_cxx13new_allocatorINSt7__cxx1112basic_stringIcSt11char_traitsIcESaIcEEEE10deallocateEPS6_m
FN:116,_ZN9__gnu_cxx13new_allocatorIN4Poco17DirectoryIteratorEE10deallocateEPS2_m
FN:129,_ZNK9__gnu_cxx13new_allocatorISt5queueINSt7__cxx1112basic_stringIcSt11char_traitsIcESaIcEEESt5dequeIS7_SaIS7_EEEE8max_sizeEv
FN:129,_ZNK9__gnu_cxx13new_allocatorIPNSt7__cxx1112basic_stringIcSt11char_traitsIcESaIcEEEE8max_sizeEv
FN:129,_ZNK9__gnu_cxx13new_allocatorIPSt5queueINSt7__cxx1112basic_stringIcSt11char_traitsIcESaIcEEESt5dequeIS7_SaIS7_EEEE8max_sizeEv
FN:129,_ZNK9__gnu_cxx13new_allocatorIN4Poco17DirectoryIteratorEE8max_sizeEv
FN:129,_ZNK9__gnu_cxx13new_allocatorIPN4Poco17DirectoryIteratorEE8max_sizeEv
FN:129,_ZNK9__gnu_cxx13new_allocatorINSt7__cxx1112basic_stringIcSt11char_traitsIcESaIcEEEE8max_sizeEv
FN:135,_ZN9__gnu_cxx13new_allocatorINSt7__cxx1112basic_stringIcSt11char_traitsIcESaIcEEEE9constructIS6_JRKS6_EEEvPT_DpOT0_
FN:135,_ZN9__gnu_cxx13new_allocatorIN4Poco17DirectoryIteratorEE9constructIS2_JRKS2_EEEvPT_DpOT0_
FN:135,_ZN9__gnu_cxx13new_allocatorISt5queueINSt7__cxx1112basic_stringIcSt11char_traitsIcESaIcEEESt5dequeIS7_SaIS7_EEEE9constructISB_JSB_EEEvPT_DpOT0_
FN:140,_ZN9__gnu_cxx13new_allocatorIN4Poco17DirectoryIteratorEE7destroyIS2_EEvPT_
FN:140,_ZN9__gnu_cxx13new_allocatorISt5queueINSt7__cxx1112basic_stringIcSt11char_traitsIcESaIcEEESt5dequeIS7_SaIS7_EEEE7destroyISB_EEvPT_
FN:140,_ZN9__gnu_cxx13new_allocatorINSt7__cxx1112basic_stringIcSt11char_traitsIcESaIcEEEE7destroyIS6_EEvPT_
FNDA:0,_ZN9__gnu_cxx13new_allocatorIPNSt7__cxx1112basic_stringIcSt11char_traitsIcESaIcEEEEC2Ev
FNDA:0,_ZN9__gnu_cxx13new_allocatorINSt7__cxx1112basic_stringIcSt11char_traitsIcESaIcEEEEC2Ev
FNDA:0,_ZN9__gnu_cxx13new_allocatorIPSt5queueINSt7__cxx1112basic_stringIcSt11char_traitsIcESaIcEEESt5dequeIS7_SaIS7_EEEEC2Ev
FNDA:0,_ZN9__gnu_cxx13new_allocatorISt5queueINSt7__cxx1112basic_stringIcSt11char_traitsIcESaIcEEESt5dequeIS7_SaIS7_EEEEC2Ev
FNDA:0,_ZN9__gnu_cxx13new_allocatorIPN4Poco17DirectoryIteratorEEC2Ev
FNDA:0,_ZN9__gnu_cxx13new_allocatorIN4Poco17DirectoryIteratorEEC2Ev
FNDA:0,_ZN9__gnu_cxx13new_allocatorINSt7__cxx1112basic_stringIcSt11char_traitsIcESaIcEEEEC2ERKS7_
FNDA:0,_ZN9__gnu_cxx13new_allocatorIPNSt7__cxx1112basic_stringIcSt11char_traitsIcESaIcEEEED2Ev
FNDA:0,_ZN9__gnu_cxx13new_allocatorIPSt5queueINSt7__cxx1112basic_stringIcSt11char_traitsIcESaIcEEESt5dequeIS7_SaIS7_EEEED2Ev
FNDA:0,_ZN9__gnu_cxx13new_allocatorIPN4Poco17DirectoryIteratorEED2Ev
FNDA:0,_ZN9__gnu_cxx13new_allocatorINSt7__cxx1112basic_stringIcSt11char_traitsIcESaIcEEEED2Ev
FNDA:0,_ZN9__gnu_cxx13new_allocatorISt5queueINSt7__cxx1112basic_stringIcSt11char_traitsIcESaIcEEESt5dequeIS7_SaIS7_EEEED2Ev
FNDA:0,_ZN9__gnu_cxx13new_allocatorIN4Poco17DirectoryIteratorEED2Ev
FNDA:0,_ZN9__gnu_cxx13new_allocatorISt5queueINSt7__cxx1112basic_stringIcSt11char_traitsIcESaIcEEESt5dequeIS7_SaIS7_EEEE8allocateEmPKv
FNDA:0,_ZN9__gnu_cxx13new_allocatorIPNSt7__cxx1112basic_stringIcSt11char_traitsIcESaIcEEEE8allocateEmPKv
FNDA:0,_ZN9__gnu_cxx13new_allocatorIPSt5queueINSt7__cxx1112basic_stringIcSt11char_traitsIcESaIcEEESt5dequeIS7_SaIS7_EEEE8allocateEmPKv
FNDA:0,_ZN9__gnu_cxx13new_allocatorIPN4Poco17DirectoryIteratorEE8allocateEmPKv
FNDA:0,_ZN9__gnu_cxx13new_allocatorINSt7__cxx1112basic_stringIcSt11char_traitsIcESaIcEEEE8allocateEmPKv
FNDA:0,_ZN9__gnu_cxx13new_allocatorIN4Poco17DirectoryIteratorEE8allocateEmPKv
FNDA:0,_ZN9__gnu_cxx13new_allocatorINSt7__cxx1112basic_stringIcSt11char_traitsIcESaIcEEEE10deallocateEPS6_m
FNDA:0,_ZN9__gnu_cxx13new_allocatorISt5queueINSt7__cxx1112basic_stringIcSt11char_traitsIcESaIcEEESt5dequeIS7_SaIS7_EEEE10deallocateEPSB_m
FNDA:0,_ZN9__gnu_cxx13new_allocatorIN4Poco17DirectoryIteratorEE10deallocateEPS2_m
FNDA:0,_ZN9__gnu_cxx13new_allocatorIPNSt7__cxx1112basic_stringIcSt11char_traitsIcESaIcEEEE10deallocateEPS7_m
FNDA:0,_ZN9__gnu_cxx13new_allocatorIPSt5queueINSt7__cxx1112basic_stringIcSt11char_traitsIcESaIcEEESt5dequeIS7_SaIS7_EEEE10deallocateEPSC_m
FNDA:0,_ZN9__gnu_cxx13new_allocatorIPN4Poco17DirectoryIteratorEE10deallocateEPS3_m
FNDA:0,_ZNK9__gnu_cxx13new_allocatorISt5queueINSt7__cxx1112basic_stringIcSt11char_traitsIcESaIcEEESt5dequeIS7_SaIS7_EEEE8max_sizeEv
FNDA:0,_ZNK9__gnu_cxx13new_allocatorIPNSt7__cxx1112basic_stringIcSt11char_traitsIcESaIcEEEE8max_sizeEv
FNDA:0,_ZNK9__gnu_cxx13new_allocatorIPSt5queueINSt7__cxx1112basic_stringIcSt11char_traitsIcESaIcEEESt5dequeIS7_SaIS7_EEEE8max_sizeEv
FNDA:0,_ZNK9__gnu_cxx13new_allocatorIPN4Poco17DirectoryIteratorEE8max_sizeEv
FNDA:0,_ZNK9__gnu_cxx13new_allocatorINSt7__cxx1112basic_stringIcSt11char_traitsIcESaIcEEEE8max_sizeEv
FNDA:0,_ZNK9__gnu_cxx13new_allocatorIN4Poco17DirectoryIteratorEE8max_sizeEv
FNDA:0,_ZN9__gnu_cxx13new_allocatorISt5queueINSt7__cxx1112basic_stringIcSt11char_traitsIcESaIcEEESt5dequeIS7_SaIS7_EEEE9constructISB_JSB_EEEvPT_DpOT0_
FNDA:0,_ZN9__gnu_cxx13new_allocatorINSt7__cxx1112basic_stringIcSt11char_traitsIcESaIcEEEE9constructIS6_JRKS6_EEEvPT_DpOT0_
FNDA:0,_ZN9__gnu_cxx13new_allocatorIN4Poco17DirectoryIteratorEE9constructIS2_JRKS2_EEEvPT_DpOT0_
FNDA:0,_ZN9__gnu_cxx13new_allocatorISt5queueINSt7__cxx1112basic_stringIcSt11char_traitsIcESaIcEEESt5dequeIS7_SaIS7_EEEE7destroyISB_EEvPT_
FNDA:0,_ZN9__gnu_cxx13new_allocatorINSt7__cxx1112basic_stringIcSt11char_traitsIcESaIcEEEE7destroyIS6_EEvPT_
FNDA:0,_ZN9__gnu_cxx13new_allocatorIN4Poco17DirectoryIteratorEE7destroyIS2_EEvPT_
FNF:37
FNH:0
DA:79,0
DA:81,0
DA:86,0
DA:99,0
DA:101,0
DA:102,0
DA:111,0
DA:116,0
DA:125,0
DA:126,0
DA:129,0
DA:130,0
DA:135,0
DA:136,0
DA:140,0
LF:15
LH:0
end_of_record
SF:/usr/include/c++/7/iostream
DA:74,1
LF:1
LH:1
end_of_record
SF:/usr/include/c++/7/new
FN:168,_ZnwmPv
FN:174,_ZdlPvS_
FNDA:0,_ZnwmPv
FNDA:0,_ZdlPvS_
FNF:2
FNH:0
DA:168,0
DA:169,0
DA:174,0
LF:3
LH:0
end_of_record
TN:
SF:/home/vera/poco/Foundation/include/Poco/MemoryStream.h
FN:54,_ZN4Poco20BasicMemoryStreamBufIcSt11char_traitsIcEEC2EPcl
FN:62,_ZN4Poco20BasicMemoryStreamBufIcSt11char_traitsIcEED2Ev
FN:62,_ZN4Poco20BasicMemoryStreamBufIcSt11char_traitsIcEED0Ev
FN:66,_ZN4Poco20BasicMemoryStreamBufIcSt11char_traitsIcEE8overflowEi
FN:71,_ZN4Poco20BasicMemoryStreamBufIcSt11char_traitsIcEE9underflowEv
FN:76,_ZN4Poco20BasicMemoryStreamBufIcSt11char_traitsIcEE7seekoffElSt12_Ios_SeekdirSt13_Ios_Openmode
FN:144,_ZN4Poco20BasicMemoryStreamBufIcSt11char_traitsIcEE4syncEv
FNDA:0,_ZN4Poco20BasicMemoryStreamBufIcSt11char_traitsIcEEC2EPcl
FNDA:0,_ZN4Poco20BasicMemoryStreamBufIcSt11char_traitsIcEED0Ev
FNDA:0,_ZN4Poco20BasicMemoryStreamBufIcSt11char_traitsIcEED2Ev
FNDA:0,_ZN4Poco20BasicMemoryStreamBufIcSt11char_traitsIcEE8overflowEi
FNDA:0,_ZN4Poco20BasicMemoryStreamBufIcSt11char_traitsIcEE9underflowEv
FNDA:0,_ZN4Poco20BasicMemoryStreamBufIcSt11char_traitsIcEE7seekoffElSt12_Ios_SeekdirSt13_Ios_Openmode
FNDA:0,_ZN4Poco20BasicMemoryStreamBufIcSt11char_traitsIcEE4syncEv
FNF:7
FNH:0
DA:54,0
DA:56,0
DA:58,0
DA:59,0
DA:60,0
DA:62,0
DA:64,0
DA:66,0
DA:68,0
DA:71,0
DA:73,0
DA:76,0
DA:78,0
DA:79,0
DA:81,0
DA:83,0
DA:84,0
DA:86,0
DA:88,0
DA:90,0
DA:93,0
DA:94,0
DA:95,0
DA:97,0
DA:99,0
DA:103,0
DA:106,0
DA:107,0
DA:108,0
DA:111,0
DA:113,0
DA:114,0
DA:116,0
DA:118,0
DA:120,0
DA:123,0
DA:124,0
DA:125,0
DA:127,0
DA:129,0
DA:133,0
DA:136,0
DA:137,0
DA:138,0
DA:141,0
DA:144,0
DA:146,0
LF:47
LH:0
end_of_record
SF:/home/vera/poco/Foundation/src/MemoryStream.cpp
FN:21,_ZN4Poco9MemoryIOSC2EPcl
FN:21,_ZN4Poco9MemoryIOSC1EPcl
FN:28,_ZN4Poco9MemoryIOSD1Ev
FN:28,_ZN4Poco9MemoryIOSD2Ev
FN:28,_ZN4Poco9MemoryIOSD0Ev
FN:33,_ZN4Poco17MemoryInputStreamC2EPKcl
FN:33,_ZN4Poco17MemoryInputStreamC1EPKcl
FN:40,_ZN4Poco17MemoryInputStreamD2Ev
FN:40,_ZN4Poco17MemoryInputStreamD1Ev
FN:40,_ZN4Poco17MemoryInputStreamD0Ev
FN:45,_ZN4Poco18MemoryOutputStreamC2EPcl
FN:45,_ZN4Poco18MemoryOutputStreamC1EPcl
FN:52,_ZN4Poco18MemoryOutputStreamD1Ev
FN:52,_ZN4Poco18MemoryOutputStreamD0Ev
FN:52,_ZN4Poco18MemoryOutputStreamD2Ev
FN:57,_GLOBAL__sub_I_MemoryStream.cpp
FN:57,_Z41__static_initialization_and_destruction_0ii
FNDA:0,_ZN4Poco9MemoryIOSC1EPcl
FNDA:0,_ZN4Poco9MemoryIOSC2EPcl
FNDA:0,_ZN4Poco9MemoryIOSD0Ev
FNDA:0,_ZN4Poco9MemoryIOSD1Ev
FNDA:0,_ZN4Poco9MemoryIOSD2Ev
FNDA:0,_ZN4Poco17MemoryInputStreamC1EPKcl
FNDA:0,_ZN4Poco17MemoryInputStreamC2EPKcl
FNDA:0,_ZN4Poco17MemoryInputStreamD0Ev
FNDA:0,_ZN4Poco17MemoryInputStreamD1Ev
FNDA:0,_ZN4Poco17MemoryInputStreamD2Ev
FNDA:0,_ZN4Poco18MemoryOutputStreamC1EPcl
FNDA:0,_ZN4Poco18MemoryOutputStreamC2EPcl
FNDA:0,_ZN4Poco18MemoryOutputStreamD0Ev
FNDA:0,_ZN4Poco18MemoryOutputStreamD1Ev
FNDA:0,_ZN4Poco18MemoryOutputStreamD2Ev
FNDA:1,_GLOBAL__sub_I_MemoryStream.cpp
FNDA:1,_Z41__static_initialization_and_destruction_0ii
FNF:17
FNH:2
DA:21,0
DA:22,0
DA:24,0
DA:25,0
DA:28,0
DA:30,0
DA:33,0
DA:35,0
DA:37,0
DA:40,0
DA:42,0
DA:45,0
DA:47,0
DA:49,0
DA:52,0
DA:54,0
DA:57,3
LF:17
LH:1
end_of_record
SF:/usr/include/c++/7/bits/char_traits.h
FN:376,_ZNSt11char_traitsIcE3eofEv
FNDA:0,_ZNSt11char_traitsIcE3eofEv
FNF:1
FNH:0
DA:376,0
DA:377,0
LF:2
LH:0
end_of_record
SF:/usr/include/c++/7/bits/ios_base.h
FN:125,_ZStanSt13_Ios_OpenmodeS_
FNDA:0,_ZStanSt13_Ios_OpenmodeS_
FNF:1
FNH:0
DA:125,0
DA:126,0
LF:2
LH:0
end_of_record
SF:/usr/include/c++/7/bits/postypes.h
FN:133,_ZNSt4fposI11__mbstate_tEC2El
FNDA:0,_ZNSt4fposI11__mbstate_tEC2El
FNF:1
FNH:0
DA:133,0
DA:134,0
LF:2
LH:0
end_of_record
SF:/usr/include/c++/7/iostream
DA:74,1
LF:1
LH:1
end_of_record
TN:
SF:/home/vera/poco/Foundation/include/Poco/UnbufferedStreamBuf.h
FN:50,_ZN4Poco24BasicUnbufferedStreamBufIcSt11char_traitsIcEEC2Ev
FN:58,_ZN4Poco24BasicUnbufferedStreamBufIcSt11char_traitsIcEED0Ev
FN:58,_ZN4Poco24BasicUnbufferedStreamBufIcSt11char_traitsIcEED2Ev
FN:62,_ZN4Poco24BasicUnbufferedStreamBufIcSt11char_traitsIcEE8overflowEi
FN:70,_ZN4Poco24BasicUnbufferedStreamBufIcSt11char_traitsIcEE9underflowEv
FN:88,_ZN4Poco24BasicUnbufferedStreamBufIcSt11char_traitsIcEE5uflowEv
FN:106,_ZN4Poco24BasicUnbufferedStreamBufIcSt11char_traitsIcEE9pbackfailEi
FN:120,_ZN4Poco24BasicUnbufferedStreamBufIcSt11char_traitsIcEE6xsgetnEPcl
FN:139,_ZN4Poco24BasicUnbufferedStreamBufIcSt11char_traitsIcEE9charToIntEc
FN:145,_ZN4Poco24BasicUnbufferedStreamBufIcSt11char_traitsIcEE14readFromDeviceEv
FN:150,_ZN4Poco24BasicUnbufferedStreamBufIcSt11char_traitsIcEE13writeToDeviceEc
FNDA:0,_ZN4Poco24BasicUnbufferedStreamBufIcSt11char_traitsIcEEC2Ev
FNDA:0,_ZN4Poco24BasicUnbufferedStreamBufIcSt11char_traitsIcEED0Ev
FNDA:0,_ZN4Poco24BasicUnbufferedStreamBufIcSt11char_traitsIcEED2Ev
FNDA:0,_ZN4Poco24BasicUnbufferedStreamBufIcSt11char_traitsIcEE8overflowEi
FNDA:0,_ZN4Poco24BasicUnbufferedStreamBufIcSt11char_traitsIcEE9underflowEv
FNDA:0,_ZN4Poco24BasicUnbufferedStreamBufIcSt11char_traitsIcEE5uflowEv
FNDA:0,_ZN4Poco24BasicUnbufferedStreamBufIcSt11char_traitsIcEE9pbackfailEi
FNDA:0,_ZN4Poco24BasicUnbufferedStreamBufIcSt11char_traitsIcEE6xsgetnEPcl
FNDA:0,_ZN4Poco24BasicUnbufferedStreamBufIcSt11char_traitsIcEE9charToIntEc
FNDA:0,_ZN4Poco24BasicUnbufferedStreamBufIcSt11char_traitsIcEE14readFromDeviceEv
FNDA:0,_ZN4Poco24BasicUnbufferedStreamBufIcSt11char_traitsIcEE13writeToDeviceEc
FNF:11
FNH:0
DA:50,0
DA:51,0
DA:52,0
DA:54,0
DA:55,0
DA:56,0
DA:58,0
DA:60,0
DA:62,0
DA:64,0
DA:65,0
DA:67,0
DA:70,0
DA:72,0
DA:74,0
DA:78,0
DA:79,0
DA:81,0
DA:82,0
DA:84,0
DA:88,0
DA:90,0
DA:92,0
DA:93,0
DA:97,0
DA:98,0
DA:100,0
DA:102,0
DA:106,0
DA:108,0
DA:110,0
DA:114,0
DA:115,0
DA:116,0
DA:120,0
DA:126,0
DA:127,0
DA:129,0
DA:130,0
DA:131,0
DA:132,0
DA:133,0
DA:135,0
DA:139,0
DA:141,0
DA:145,0
DA:147,0
DA:150,0
DA:152,0
LF:49
LH:0
end_of_record
SF:/home/vera/poco/Foundation/src/Base64Encoder.cpp
FN:47,_ZN4Poco16Base64EncoderBufC2ERSoi
FN:58,_ZN4Poco16Base64EncoderBufD0Ev
FN:58,_ZN4Poco16Base64EncoderBufD2Ev
FN:70,_ZN4Poco16Base64EncoderBuf13setLineLengthEi
FN:76,_ZNK4Poco16Base64EncoderBuf13getLineLengthEv
FN:82,_ZN4Poco16Base64EncoderBuf13writeToDeviceEc
FN:111,_ZN4Poco16Base64EncoderBuf5closeEv
FN:150,_ZN4Poco16Base64EncoderIOSC1ERSoi
FN:150,_ZN4Poco16Base64EncoderIOSC2ERSoi
FN:156,_ZN4Poco16Base64EncoderIOSD1Ev
FN:156,_ZN4Poco16Base64EncoderIOSD2Ev
FN:156,_ZN4Poco16Base64EncoderIOSD0Ev
FN:161,_ZN4Poco16Base64EncoderIOS5closeEv
FN:167,_ZN4Poco16Base64EncoderIOS5rdbufEv
FN:173,_ZN4Poco13Base64EncoderC1ERSoi
FN:173,_ZN4Poco13Base64EncoderC2ERSoi
FN:178,_ZN4Poco13Base64EncoderD1Ev
FN:178,_ZN4Poco13Base64EncoderD2Ev
FN:178,_ZN4Poco13Base64EncoderD0Ev
FN:183,_GLOBAL__sub_I_Base64Encoder.cpp
FN:183,_Z41__static_initialization_and_destruction_0ii
FNDA:0,_ZN4Poco16Base64EncoderBufC2ERSoi
FNDA:0,_ZN4Poco16Base64EncoderBufD0Ev
FNDA:0,_ZN4Poco16Base64EncoderBufD2Ev
FNDA:0,_ZN4Poco16Base64EncoderBuf13setLineLengthEi
FNDA:0,_ZNK4Poco16Base64EncoderBuf13getLineLengthEv
FNDA:0,_ZN4Poco16Base64EncoderBuf13writeToDeviceEc
FNDA:0,_ZN4Poco16Base64EncoderBuf5closeEv
FNDA:0,_ZN4Poco16Base64EncoderIOSC1ERSoi
FNDA:0,_ZN4Poco16Base64EncoderIOSC2ERSoi
FNDA:0,_ZN4Poco16Base64EncoderIOSD0Ev
FNDA:0,_ZN4Poco16Base64EncoderIOSD1Ev
FNDA:0,_ZN4Poco16Base64EncoderIOSD2Ev
FNDA:0,_ZN4Poco16Base64EncoderIOS5closeEv
FNDA:0,_ZN4Poco16Base64EncoderIOS5rdbufEv
FNDA:0,_ZN4Poco13Base64EncoderC1ERSoi
FNDA:0,_ZN4Poco13Base64EncoderC2ERSoi
FNDA:0,_ZN4Poco13Base64EncoderD0Ev
FNDA:0,_ZN4Poco13Base64EncoderD1Ev
FNDA:0,_ZN4Poco13Base64EncoderD2Ev
FNDA:1,_GLOBAL__sub_I_Base64Encoder.cpp
FNDA:1,_Z41__static_initialization_and_destruction_0ii
FNF:21
FNH:2
DA:47,0
DA:51,0
DA:52,0
DA:53,0
DA:55,0
DA:58,0
DA:62,0
DA:64,0
DA:67,0
DA:70,0
DA:72,0
DA:73,0
DA:76,0
DA:78,0
DA:82,0
DA:86,0
DA:87,0
DA:90,0
DA:91,0
DA:92,0
DA:93,0
DA:94,0
DA:95,0
DA:96,0
DA:97,0
DA:98,0
DA:99,0
DA:101,0
DA:102,0
DA:103,0
DA:105,0
DA:107,0
DA:111,0
DA:115,0
DA:116,0
DA:118,0
DA:120,0
DA:121,0
DA:122,0
DA:123,0
DA:124,0
DA:126,0
DA:127,0
DA:130,0
DA:132,0
DA:134,0
DA:135,0
DA:136,0
DA:137,0
DA:138,0
DA:139,0
DA:140,0
DA:142,0
DA:145,0
DA:146,0
DA:150,0
DA:152,0
DA:153,0
DA:156,0
DA:158,0
DA:161,0
DA:163,0
DA:167,0
DA:169,0
DA:173,0
DA:175,0
DA:178,0
DA:180,0
DA:183,3
LF:69
LH:1
end_of_record
SF:/usr/include/c++/7/bits/char_traits.h
FN:362,_ZNSt11char_traitsIcE12to_char_typeERKi
FN:368,_ZNSt11char_traitsIcE11to_int_typeERKc
FN:376,_ZNSt11char_traitsIcE3eofEv
FNDA:0,_ZNSt11char_traitsIcE12to_char_typeERKi
FNDA:0,_ZNSt11char_traitsIcE11to_int_typeERKc
FNDA:0,_ZNSt11char_traitsIcE3eofEv
FNF:3
FNH:0
DA:362,0
DA:363,0
DA:368,0
DA:369,0
DA:376,0
DA:377,0
LF:6
LH:0
end_of_record
SF:/usr/include/c++/7/iostream
DA:74,1
LF:1
LH:1
end_of_record
TN:
SF:/home/vera/poco/Foundation/include/Poco/Message.h
FN:220,_ZNK4Poco7Message7getTextB5cxx11Ev
FN:226,_ZNK4Poco7Message11getPriorityEv
FNDA:0,_ZNK4Poco7Message7getTextB5cxx11Ev
FNDA:0,_ZNK4Poco7Message11getPriorityEv
FNF:2
FNH:0
DA:220,0
DA:222,0
DA:226,0
DA:228,0
LF:4
LH:0
end_of_record
SF:/home/vera/poco/Foundation/include/Poco/StringTokenizer.h
FN:97,_ZNK4Poco15StringTokenizer5beginB5cxx11Ev
FN:103,_ZNK4Poco15StringTokenizer3endB5cxx11Ev
FNDA:0,_ZNK4Poco15StringTokenizer5beginB5cxx11Ev
FNDA:0,_ZNK4Poco15StringTokenizer3endB5cxx11Ev
FNF:2
FNH:0
DA:97,0
DA:99,0
DA:103,0
DA:105,0
LF:4
LH:0
end_of_record
SF:/home/vera/poco/Foundation/src/SyslogChannel.cpp
FN:29,_ZN4Poco13SyslogChannelC2Ev
FN:37,_ZN4Poco13SyslogChannelC2ERKNSt7__cxx1112basic_stringIcSt11char_traitsIcESaIcEEEii
FN:46,_ZN4Poco13SyslogChannelD2Ev
FN:46,_ZN4Poco13SyslogChannelD0Ev
FN:52,_ZN4Poco13SyslogChannel4openEv
FN:59,_ZN4Poco13SyslogChannel5closeEv
FN:69,_ZN4Poco13SyslogChannel3logERKNS_7MessageE
FN:76,_ZN4Poco13SyslogChannel11setPropertyERKNSt7__cxx1112basic_stringIcSt11char_traitsIcESaIcEEES8_
FN:148,_ZNK4Poco13SyslogChannel11getPropertyERKNSt7__cxx1112basic_stringIcSt11char_traitsIcESaIcEEE
FN:231,_ZN4Poco13SyslogChannel7getPrioERKNS_7MessageE
FN:256,_Z41__static_initialization_and_destruction_0ii
FN:256,_GLOBAL__sub_I_SyslogChannel.cpp
FNDA:0,_ZN4Poco13SyslogChannelC2Ev
FNDA:0,_ZN4Poco13SyslogChannelC2ERKNSt7__cxx1112basic_stringIcSt11char_traitsIcESaIcEEEii
FNDA:0,_ZN4Poco13SyslogChannelD0Ev
FNDA:0,_ZN4Poco13SyslogChannelD2Ev
FNDA:0,_ZN4Poco13SyslogChannel4openEv
FNDA:0,_ZN4Poco13SyslogChannel5closeEv
FNDA:0,_ZN4Poco13SyslogChannel3logERKNS_7MessageE
FNDA:0,_ZN4Poco13SyslogChannel11setPropertyERKNSt7__cxx1112basic_stringIcSt11char_traitsIcESaIcEEES8_
FNDA:0,_ZNK4Poco13SyslogChannel11getPropertyERKNSt7__cxx1112basic_stringIcSt11char_traitsIcESaIcEEE
FNDA:0,_ZN4Poco13SyslogChannel7getPrioERKNS_7MessageE
FNDA:1,_GLOBAL__sub_I_SyslogChannel.cpp
FNDA:1,_Z41__static_initialization_and_destruction_0ii
FNF:12
FNH:2
DA:24,1
DA:25,1
DA:26,1
DA:29,0
DA:32,0
DA:34,0
DA:37,0
DA:41,0
DA:43,0
DA:46,0
DA:48,0
DA:49,0
DA:52,0
DA:54,0
DA:55,0
DA:56,0
DA:59,0
DA:61,0
DA:63,0
DA:64,0
DA:66,0
DA:69,0
DA:71,0
DA:72,0
DA:73,0
DA:76,0
DA:78,0
DA:80,0
DA:82,0
DA:84,0
DA:85,0
DA:86,0
DA:87,0
DA:88,0
DA:89,0
DA:90,0
DA:91,0
DA:92,0
DA:93,0
DA:94,0
DA:95,0
DA:96,0
DA:97,0
DA:98,0
DA:99,0
DA:100,0
DA:101,0
DA:102,0
DA:103,0
DA:104,0
DA:105,0
DA:106,0
DA:107,0
DA:108,0
DA:109,0
DA:110,0
DA:111,0
DA:112,0
DA:113,0
DA:114,0
DA:115,0
DA:116,0
DA:117,0
DA:118,0
DA:119,0
DA:120,0
DA:121,0
DA:122,0
DA:123,0
DA:125,0
DA:127,0
DA:128,0
DA:129,0
DA:131,0
DA:132,0
DA:133,0
DA:134,0
DA:135,0
DA:136,0
DA:137,0
DA:138,0
DA:143,0
DA:145,0
DA:148,0
DA:150,0
DA:152,0
DA:154,0
DA:156,0
DA:157,0
DA:158,0
DA:159,0
DA:160,0
DA:161,0
DA:162,0
DA:163,0
DA:164,0
DA:165,0
DA:166,0
DA:167,0
DA:168,0
DA:169,0
DA:170,0
DA:171,0
DA:172,0
DA:173,0
DA:174,0
DA:175,0
DA:176,0
DA:177,0
DA:178,0
DA:179,0
DA:180,0
DA:181,0
DA:182,0
DA:183,0
DA:184,0
DA:185,0
DA:186,0
DA:187,0
DA:188,0
DA:189,0
DA:190,0
DA:191,0
DA:192,0
DA:193,0
DA:194,0
DA:195,0
DA:197,0
DA:199,0
DA:201,0
DA:202,0
DA:204,0
DA:205,0
DA:207,0
DA:209,0
DA:210,0
DA:212,0
DA:214,0
DA:215,0
DA:217,0
DA:219,0
DA:220,0
DA:222,0
DA:226,0
DA:231,0
DA:233,0
DA:235,0
DA:237,0
DA:238,0
DA:239,0
DA:240,0
DA:241,0
DA:242,0
DA:243,0
DA:244,0
DA:245,0
DA:246,0
DA:247,0
DA:248,0
DA:249,0
DA:250,0
DA:251,0
DA:256,3
LF:163
LH:4
end_of_record
SF:/usr/include/c++/7/bits/basic_string.h
FN:6017,_ZSteqIcEN9__gnu_cxx11__enable_ifIXsrSt9__is_charIT_E7__valueEbE6__typeERKNSt7__cxx1112basic_stringIS3_St11char_traitsIS3_ESaIS3_EEESE_
FN:6043,_ZSteqIcSt11char_traitsIcESaIcEEbRKNSt7__cxx1112basic_stringIT_T0_T1_EEPKS5_
FNDA:0,_ZSteqIcEN9__gnu_cxx11__enable_ifIXsrSt9__is_charIT_E7__valueEbE6__typeERKNSt7__cxx1112basic_stringIS3_St11char_traitsIS3_ESaIS3_EEESE_
FNDA:0,_ZSteqIcSt11char_traitsIcESaIcEEbRKNSt7__cxx1112basic_stringIT_T0_T1_EEPKS5_
FNF:2
FNH:0
DA:6017,0
DA:6019,0
DA:6020,0
DA:6021,0
DA:6043,0
DA:6045,0
LF:6
LH:0
end_of_record
SF:/usr/include/c++/7/bits/char_traits.h
FN:300,_ZNSt11char_traitsIcE7compareEPKcS2_m
FNDA:0,_ZNSt11char_traitsIcE7compareEPKcS2_m
FNF:1
FNH:0
DA:300,0
DA:308,0
DA:309,0
DA:310,0
LF:4
LH:0
end_of_record
SF:/usr/include/c++/7/bits/stl_iterator.h
FN:782,_ZN9__gnu_cxx17__normal_iteratorIPKNSt7__cxx1112basic_stringIcSt11char_traitsIcESaIcEEESt6vectorIS6_SaIS6_EEEC2ERKS8_
FN:795,_ZNK9__gnu_cxx17__normal_iteratorIPKNSt7__cxx1112basic_stringIcSt11char_traitsIcESaIcEEESt6vectorIS6_SaIS6_EEEdeEv
FN:803,_ZN9__gnu_cxx17__normal_iteratorIPKNSt7__cxx1112basic_stringIcSt11char_traitsIcESaIcEEESt6vectorIS6_SaIS6_EEEppEv
FN:847,_ZNK9__gnu_cxx17__normal_iteratorIPKNSt7__cxx1112basic_stringIcSt11char_traitsIcESaIcEEESt6vectorIS6_SaIS6_EEE4baseEv
FN:883,_ZN9__gnu_cxxneIPKNSt7__cxx1112basic_stringIcSt11char_traitsIcESaIcEEESt6vectorIS6_SaIS6_EEEEbRKNS_17__normal_iteratorIT_T0_EESH_
FNDA:0,_ZN9__gnu_cxx17__normal_iteratorIPKNSt7__cxx1112basic_stringIcSt11char_traitsIcESaIcEEESt6vectorIS6_SaIS6_EEEC2ERKS8_
FNDA:0,_ZNK9__gnu_cxx17__normal_iteratorIPKNSt7__cxx1112basic_stringIcSt11char_traitsIcESaIcEEESt6vectorIS6_SaIS6_EEEdeEv
FNDA:0,_ZN9__gnu_cxx17__normal_iteratorIPKNSt7__cxx1112basic_stringIcSt11char_traitsIcESaIcEEESt6vectorIS6_SaIS6_EEEppEv
FNDA:0,_ZNK9__gnu_cxx17__normal_iteratorIPKNSt7__cxx1112basic_stringIcSt11char_traitsIcESaIcEEESt6vectorIS6_SaIS6_EEE4baseEv
FNDA:0,_ZN9__gnu_cxxneIPKNSt7__cxx1112basic_stringIcSt11char_traitsIcESaIcEEESt6vectorIS6_SaIS6_EEEEbRKNS_17__normal_iteratorIT_T0_EESH_
FNF:5
FNH:0
DA:782,0
DA:783,0
DA:795,0
DA:796,0
DA:803,0
DA:805,0
DA:806,0
DA:847,0
DA:848,0
DA:883,0
DA:886,0
LF:11
LH:0
end_of_record
SF:/usr/include/c++/7/bits/stl_vector.h
FN:572,_ZNKSt6vectorINSt7__cxx1112basic_stringIcSt11char_traitsIcESaIcEEESaIS5_EE5beginEv
FN:590,_ZNKSt6vectorINSt7__cxx1112basic_stringIcSt11char_traitsIcESaIcEEESaIS5_EE3endEv
FNDA:0,_ZNKSt6vectorINSt7__cxx1112basic_stringIcSt11char_traitsIcESaIcEEESaIS5_EE5beginEv
FNDA:0,_ZNKSt6vectorINSt7__cxx1112basic_stringIcSt11char_traitsIcESaIcEEESaIS5_EE3endEv
FNF:2
FNH:0
DA:572,0
DA:573,0
DA:590,0
DA:591,0
LF:4
LH:0
end_of_record
SF:/usr/include/c++/7/iostream
DA:74,1
LF:1
LH:1
end_of_record
TN:
SF:/home/vera/poco/Foundation/include/Poco/AtomicCounter.h
FN:100,_ZN4Poco13AtomicCounterppEv
FN:112,_ZN4Poco13AtomicCountermmEv
FNDA:0,_ZN4Poco13AtomicCounterppEv
FNDA:0,_ZN4Poco13AtomicCountermmEv
FNF:2
FNH:0
DA:100,0
DA:102,0
DA:112,0
DA:114,0
LF:4
LH:0
end_of_record
SF:/home/vera/poco/Foundation/include/Poco/AutoPtr.h
FN:78,_ZN4Poco7AutoPtrINS_12NotificationEEC2ERKS2_
FN:83,_ZN4Poco7AutoPtrINS_12NotificationEEC2EOS2_
FN:94,_ZN4Poco7AutoPtrINS_12NotificationEED2Ev
FN:279,_ZNK4Poco7AutoPtrINS_12NotificationEEntEv
FN:289,_ZN4Poco7AutoPtrINS_12NotificationEE9duplicateEv
FNDA:0,_ZN4Poco7AutoPtrINS_12NotificationEEC2ERKS2_
FNDA:0,_ZN4Poco7AutoPtrINS_12NotificationEEC2EOS2_
FNDA:0,_ZN4Poco7AutoPtrINS_12NotificationEED2Ev
FNDA:0,_ZNK4Poco7AutoPtrINS_12NotificationEEntEv
FNDA:0,_ZN4Poco7AutoPtrINS_12NotificationEE9duplicateEv
FNF:5
FNH:0
DA:78,0
DA:80,0
DA:81,0
DA:83,0
DA:85,0
DA:86,0
DA:94,0
DA:96,0
DA:97,0
DA:279,0
DA:281,0
DA:289,0
DA:291,0
DA:292,0
LF:14
LH:0
end_of_record
SF:/home/vera/poco/Foundation/include/Poco/Clock.h
FN:152,_ZNK4Poco5ClockltERKS0_
FN:176,_ZNK4Poco5ClockmiERKS0_
FN:182,_ZN4Poco5ClockpLEl
FN:202,_ZNK4Poco5Clock7elapsedEv
FNDA:0,_ZNK4Poco5ClockltERKS0_
FNDA:0,_ZNK4Poco5ClockmiERKS0_
FNDA:0,_ZN4Poco5ClockpLEl
FNDA:0,_ZNK4Poco5Clock7elapsedEv
FNF:4
FNH:0
DA:152,0
DA:154,0
DA:176,0
DA:178,0
DA:182,0
DA:184,0
DA:185,0
DA:202,0
DA:204,0
DA:205,0
LF:10
LH:0
end_of_record
SF:/home/vera/poco/Foundation/include/Poco/Event.h
FN:99,_ZN4Poco5Event3setEv
FN:105,_ZN4Poco5Event4waitEv
FN:118,_ZN4Poco5Event7tryWaitEl
FNDA:0,_ZN4Poco5Event3setEv
FNDA:0,_ZN4Poco5Event4waitEv
FNDA:0,_ZN4Poco5Event7tryWaitEl
FNF:3
FNH:0
DA:99,0
DA:101,0
DA:102,0
DA:105,0
DA:107,0
DA:108,0
DA:118,0
DA:120,0
LF:8
LH:0
end_of_record
SF:/home/vera/poco/Foundation/include/Poco/Event_POSIX.h
FN:51,_ZN4Poco9EventImpl7setImplEv
FNDA:0,_ZN4Poco9EventImpl7setImplEv
FNF:1
FNH:0
DA:51,0
DA:53,0
DA:54,0
DA:55,0
DA:56,0
DA:58,0
DA:59,0
DA:61,0
DA:62,0
LF:9
LH:0
end_of_record
SF:/home/vera/poco/Foundation/include/Poco/Mutex.h
FN:308,_ZN4Poco9FastMutex4lockEv
FN:333,_ZN4Poco9FastMutex6unlockEv
FNDA:0,_ZN4Poco9FastMutex4lockEv
FNDA:0,_ZN4Poco9FastMutex6unlockEv
FNF:2
FNH:0
DA:308,0
DA:310,0
DA:311,0
DA:333,0
DA:335,0
DA:336,0
LF:6
LH:0
end_of_record
SF:/home/vera/poco/Foundation/include/Poco/Mutex_POSIX.h
FN:57,_ZN4Poco9MutexImpl8lockImplEv
FN:76,_ZN4Poco9MutexImpl10unlockImplEv
FNDA:0,_ZN4Poco9MutexImpl8lockImplEv
FNDA:0,_ZN4Poco9MutexImpl10unlockImplEv
FNF:2
FNH:0
DA:57,0
DA:59,0
DA:60,0
DA:61,0
DA:76,0
DA:78,0
DA:79,0
DA:80,0
LF:8
LH:0
end_of_record
SF:/home/vera/poco/Foundation/include/Poco/RefCountedObject.h
FN:72,_ZNK4Poco16RefCountedObject9duplicateEv
FN:78,_ZNK4Poco16RefCountedObject7releaseEv
FNDA:0,_ZNK4Poco16RefCountedObject9duplicateEv
FNDA:0,_ZNK4Poco16RefCountedObject7releaseEv
FNF:2
FNH:0
DA:72,0
DA:74,0
DA:75,0
DA:78,0
DA:82,0
DA:84,0
DA:86,0
DA:88,0
LF:8
LH:0
end_of_record
SF:/home/vera/poco/Foundation/include/Poco/ScopedLock.h
FN:36,_ZN4Poco10ScopedLockINS_9FastMutexEEC2ERS1_
FN:46,_ZN4Poco10ScopedLockINS_9FastMutexEED2Ev
FNDA:0,_ZN4Poco10ScopedLockINS_9FastMutexEEC2ERS1_
FNDA:0,_ZN4Poco10ScopedLockINS_9FastMutexEED2Ev
FNF:2
FNH:0
DA:36,0
DA:38,0
DA:39,0
DA:46,0
DA:50,0
DA:52,0
DA:54,0
DA:56,0
LF:8
LH:0
end_of_record
SF:/home/vera/poco/Foundation/include/Poco/Timestamp.h
FN:204,_ZNK4Poco9TimestampmiERKS0_
FNDA:0,_ZNK4Poco9TimestampmiERKS0_
FNF:1
FNH:0
DA:204,0
DA:206,0
LF:2
LH:0
end_of_record
SF:/home/vera/poco/Foundation/src/TimedNotificationQueue.cpp
FN:23,_ZN4Poco22TimedNotificationQueueC2Ev
FN:28,_ZN4Poco22TimedNotificationQueueD2Ev
FN:41,_ZN4Poco22TimedNotificationQueue19enqueueNotificationENS_7AutoPtrINS_12NotificationEEENS_9TimestampE
FN:56,_ZN4Poco22TimedNotificationQueue19enqueueNotificationENS_7AutoPtrINS_12NotificationEEENS_5ClockE
FN:66,_ZN4Poco22TimedNotificationQueue19dequeueNotificationEv
FN:85,_ZN4Poco22TimedNotificationQueue23waitDequeueNotificationEv
FN:114,_ZN4Poco22TimedNotificationQueue23waitDequeueNotificationEl
FN:158,_ZN4Poco22TimedNotificationQueue4waitEl
FN:173,_ZNK4Poco22TimedNotificationQueue5emptyEv
FN:180,_ZNK4Poco22TimedNotificationQueue4sizeEv
FN:187,_ZN4Poco22TimedNotificationQueue5clearEv
FN:194,_ZN4Poco22TimedNotificationQueue10dequeueOneERSt17_Rb_tree_iteratorISt4pairIKNS_5ClockENS_7AutoPtrINS_12NotificationEEEEE
FN:203,_Z41__static_initialization_and_destruction_0ii
FN:203,_GLOBAL__sub_I_TimedNotificationQueue.cpp
FNDA:0,_ZN4Poco22TimedNotificationQueueC2Ev
FNDA:0,_ZN4Poco22TimedNotificationQueueD2Ev
FNDA:0,_ZN4Poco22TimedNotificationQueue19enqueueNotificationENS_7AutoPtrINS_12NotificationEEENS_9TimestampE
FNDA:0,_ZN4Poco22TimedNotificationQueue19enqueueNotificationENS_7AutoPtrINS_12NotificationEEENS_5ClockE
FNDA:0,_ZN4Poco22TimedNotificationQueue19dequeueNotificationEv
FNDA:0,_ZN4Poco22TimedNotificationQueue23waitDequeueNotificationEv
FNDA:0,_ZN4Poco22TimedNotificationQueue23waitDequeueNotificationEl
FNDA:0,_ZN4Poco22TimedNotificationQueue4waitEl
FNDA:0,_ZNK4Poco22TimedNotificationQueue5emptyEv
FNDA:0,_ZNK4Poco22TimedNotificationQueue4sizeEv
FNDA:0,_ZN4Poco22TimedNotificationQueue5clearEv
FNDA:0,_ZN4Poco22TimedNotificationQueue10dequeueOneERSt17_Rb_tree_iteratorISt4pairIKNS_5ClockENS_7AutoPtrINS_12NotificationEEEEE
FNDA:1,_GLOBAL__sub_I_TimedNotificationQueue.cpp
FNDA:1,_Z41__static_initialization_and_destruction_0ii
FNF:14
FNH:2
DA:23,0
DA:25,0
DA:28,0
DA:32,0
DA:34,0
DA:36,0
DA:38,0
DA:41,0
DA:43,0
DA:45,0
DA:46,0
DA:47,0
DA:48,0
DA:50,0
DA:51,0
DA:52,0
DA:53,0
DA:56,0
DA:58,0
DA:60,0
DA:61,0
DA:62,0
DA:63,0
DA:66,0
DA:68,0
DA:70,0
DA:71,0
DA:73,0
DA:74,0
DA:76,0
DA:77,0
DA:78,0
DA:81,0
DA:85,0
DA:89,0
DA:90,0
DA:91,0
DA:93,0
DA:94,0
DA:95,0
DA:97,0
DA:99,0
DA:101,0
DA:103,0
DA:107,0
DA:109,0
DA:110,0
DA:114,0
DA:116,0
DA:118,0
DA:119,0
DA:120,0
DA:122,0
DA:123,0
DA:124,0
DA:125,0
DA:127,0
DA:129,0
DA:131,0
DA:133,0
DA:137,0
DA:138,0
DA:144,0
DA:146,0
DA:148,0
DA:149,0
DA:150,0
DA:152,0
DA:154,0
DA:158,0
DA:160,0
DA:161,0
DA:163,0
DA:164,0
DA:165,0
DA:166,0
DA:167,0
DA:169,0
DA:173,0
DA:175,0
DA:176,0
DA:180,0
DA:182,0
DA:183,0
DA:187,0
DA:189,0
DA:190,0
DA:191,0
DA:194,0
DA:196,0
DA:197,0
DA:198,0
DA:199,0
DA:203,3
LF:94
LH:1
end_of_record
SF:/usr/include/c++/7/bits/alloc_traits.h
FN:435,_ZNSt16allocator_traitsISaISt13_Rb_tree_nodeISt4pairIKN4Poco5ClockENS2_7AutoPtrINS2_12NotificationEEEEEEE8allocateERSA_m
FN:461,_ZNSt16allocator_traitsISaISt13_Rb_tree_nodeISt4pairIKN4Poco5ClockENS2_7AutoPtrINS2_12NotificationEEEEEEE10deallocateERSA_PS9_m
FN:474,_ZNSt16allocator_traitsISaISt13_Rb_tree_nodeISt4pairIKN4Poco5ClockENS2_7AutoPtrINS2_12NotificationEEEEEEE9constructIS8_JS8_EEEvRSA_PT_DpOT0_
FN:486,_ZNSt16allocator_traitsISaISt13_Rb_tree_nodeISt4pairIKN4Poco5ClockENS2_7AutoPtrINS2_12NotificationEEEEEEE7destroyIS8_EEvRSA_PT_
FNDA:0,_ZNSt16allocator_traitsISaISt13_Rb_tree_nodeISt4pairIKN4Poco5ClockENS2_7AutoPtrINS2_12NotificationEEEEEEE8allocateERSA_m
FNDA:0,_ZNSt16allocator_traitsISaISt13_Rb_tree_nodeISt4pairIKN4Poco5ClockENS2_7AutoPtrINS2_12NotificationEEEEEEE10deallocateERSA_PS9_m
FNDA:0,_ZNSt16allocator_traitsISaISt13_Rb_tree_nodeISt4pairIKN4Poco5ClockENS2_7AutoPtrINS2_12NotificationEEEEEEE9constructIS8_JS8_EEEvRSA_PT_DpOT0_
FNDA:0,_ZNSt16allocator_traitsISaISt13_Rb_tree_nodeISt4pairIKN4Poco5ClockENS2_7AutoPtrINS2_12NotificationEEEEEEE7destroyIS8_EEvRSA_PT_
FNF:4
FNH:0
DA:435,0
DA:436,0
DA:461,0
DA:462,0
DA:474,0
DA:475,0
DA:486,0
DA:487,0
LF:8
LH:0
end_of_record
SF:/usr/include/c++/7/bits/allocator.h
FN:131,_ZNSaISt13_Rb_tree_nodeISt4pairIKN4Poco5ClockENS1_7AutoPtrINS1_12NotificationEEEEEEC2Ev
FN:139,_ZNSaISt13_Rb_tree_nodeISt4pairIKN4Poco5ClockENS1_7AutoPtrINS1_12NotificationEEEEEED2Ev
FNDA:0,_ZNSaISt13_Rb_tree_nodeISt4pairIKN4Poco5ClockENS1_7AutoPtrINS1_12NotificationEEEEEEC2Ev
FNDA:0,_ZNSaISt13_Rb_tree_nodeISt4pairIKN4Poco5ClockENS1_7AutoPtrINS1_12NotificationEEEEEED2Ev
FNF:2
FNH:0
DA:131,0
DA:139,0
LF:2
LH:0
end_of_record
SF:/usr/include/c++/7/bits/atomic_base.h
FN:295,_ZNSt13__atomic_baseIiEppEv
FN:303,_ZNSt13__atomic_baseIiEmmEv
FNDA:0,_ZNSt13__atomic_baseIiEppEv
FNDA:0,_ZNSt13__atomic_baseIiEmmEv
FNF:2
FNH:0
DA:295,0
DA:296,0
DA:303,0
DA:304,0
LF:4
LH:0
end_of_record
SF:/usr/include/c++/7/bits/move.h
FN:73,_ZSt7forwardIRPSt13_Rb_tree_nodeISt4pairIKN4Poco5ClockENS2_7AutoPtrINS2_12NotificationEEEEEEOT_RNSt16remove_referenceISC_E4typeE
FN:73,_ZSt7forwardISt4pairIKN4Poco5ClockENS1_7AutoPtrINS1_12NotificationEEEEEOT_RNSt16remove_referenceIS8_E4typeE
FN:73,_ZSt7forwardIRN4Poco7AutoPtrINS0_12NotificationEEEEOT_RNSt16remove_referenceIS5_E4typeE
FN:73,_ZSt7forwardIRN4Poco5ClockEEOT_RNSt16remove_referenceIS3_E4typeE
FN:73,_ZSt7forwardIRPSt18_Rb_tree_node_baseEOT_RNSt16remove_referenceIS3_E4typeE
FN:98,_ZSt4moveIRPN4Poco12NotificationEEONSt16remove_referenceIT_E4typeEOS5_
FN:98,_ZSt4moveIRSt4pairIKN4Poco5ClockENS1_7AutoPtrINS1_12NotificationEEEEEONSt16remove_referenceIT_E4typeEOSA_
FNDA:0,_ZSt7forwardIRPSt18_Rb_tree_node_baseEOT_RNSt16remove_referenceIS3_E4typeE
FNDA:0,_ZSt7forwardIRPSt13_Rb_tree_nodeISt4pairIKN4Poco5ClockENS2_7AutoPtrINS2_12NotificationEEEEEEOT_RNSt16remove_referenceISC_E4typeE
FNDA:0,_ZSt7forwardISt4pairIKN4Poco5ClockENS1_7AutoPtrINS1_12NotificationEEEEEOT_RNSt16remove_referenceIS8_E4typeE
FNDA:0,_ZSt7forwardIRN4Poco7AutoPtrINS0_12NotificationEEEEOT_RNSt16remove_referenceIS5_E4typeE
FNDA:0,_ZSt7forwardIRN4Poco5ClockEEOT_RNSt16remove_referenceIS3_E4typeE
FNDA:0,_ZSt4moveIRPN4Poco12NotificationEEONSt16remove_referenceIT_E4typeEOS5_
FNDA:0,_ZSt4moveIRSt4pairIKN4Poco5ClockENS1_7AutoPtrINS1_12NotificationEEEEEONSt16remove_referenceIT_E4typeEOSA_
FNF:7
FNH:0
DA:73,0
DA:74,0
DA:98,0
DA:99,0
LF:4
LH:0
end_of_record
SF:/usr/include/c++/7/bits/stl_function.h
FN:385,_ZNKSt4lessIN4Poco5ClockEEclERKS1_S4_
FN:886,_ZNKSt10_Select1stISt4pairIKN4Poco5ClockENS1_7AutoPtrINS1_12NotificationEEEEEclERS7_
FN:890,_ZNKSt10_Select1stISt4pairIKN4Poco5ClockENS1_7AutoPtrINS1_12NotificationEEEEEclERKS7_
FNDA:0,_ZNKSt4lessIN4Poco5ClockEEclERKS1_S4_
FNDA:0,_ZNKSt10_Select1stISt4pairIKN4Poco5ClockENS1_7AutoPtrINS1_12NotificationEEEEEclERS7_
FNDA:0,_ZNKSt10_Select1stISt4pairIKN4Poco5ClockENS1_7AutoPtrINS1_12NotificationEEEEEclERKS7_
FNF:3
FNH:0
DA:385,0
DA:386,0
DA:886,0
DA:887,0
DA:890,0
DA:891,0
LF:6
LH:0
end_of_record
SF:/usr/include/c++/7/bits/stl_multimap.h
FN:174,_ZNSt8multimapIN4Poco5ClockENS0_7AutoPtrINS0_12NotificationEEESt4lessIS1_ESaISt4pairIKS1_S4_EEEC2Ev
FN:289,_ZNSt8multimapIN4Poco5ClockENS0_7AutoPtrINS0_12NotificationEEESt4lessIS1_ESaISt4pairIKS1_S4_EEED2Ev
FN:343,_ZNSt8multimapIN4Poco5ClockENS0_7AutoPtrINS0_12NotificationEEESt4lessIS1_ESaISt4pairIKS1_S4_EEE5beginEv
FN:361,_ZNSt8multimapIN4Poco5ClockENS0_7AutoPtrINS0_12NotificationEEESt4lessIS1_ESaISt4pairIKS1_S4_EEE3endEv
FN:450,_ZNKSt8multimapIN4Poco5ClockENS0_7AutoPtrINS0_12NotificationEEESt4lessIS1_ESaISt4pairIKS1_S4_EEE5emptyEv
FN:455,_ZNKSt8multimapIN4Poco5ClockENS0_7AutoPtrINS0_12NotificationEEESt4lessIS1_ESaISt4pairIKS1_S4_EEE4sizeEv
FN:538,_ZNSt8multimapIN4Poco5ClockENS0_7AutoPtrINS0_12NotificationEEESt4lessIS1_ESaISt4pairIKS1_S4_EEE6insertEOS9_
FN:700,_ZNSt8multimapIN4Poco5ClockENS0_7AutoPtrINS0_12NotificationEEESt4lessIS1_ESaISt4pairIKS1_S4_EEE5eraseB5cxx11ESt17_Rb_tree_iteratorIS9_E
FN:800,_ZNSt8multimapIN4Poco5ClockENS0_7AutoPtrINS0_12NotificationEEESt4lessIS1_ESaISt4pairIKS1_S4_EEE5clearEv
FNDA:0,_ZNSt8multimapIN4Poco5ClockENS0_7AutoPtrINS0_12NotificationEEESt4lessIS1_ESaISt4pairIKS1_S4_EEEC2Ev
FNDA:0,_ZNSt8multimapIN4Poco5ClockENS0_7AutoPtrINS0_12NotificationEEESt4lessIS1_ESaISt4pairIKS1_S4_EEED2Ev
FNDA:0,_ZNSt8multimapIN4Poco5ClockENS0_7AutoPtrINS0_12NotificationEEESt4lessIS1_ESaISt4pairIKS1_S4_EEE5beginEv
FNDA:0,_ZNSt8multimapIN4Poco5ClockENS0_7AutoPtrINS0_12NotificationEEESt4lessIS1_ESaISt4pairIKS1_S4_EEE3endEv
FNDA:0,_ZNKSt8multimapIN4Poco5ClockENS0_7AutoPtrINS0_12NotificationEEESt4lessIS1_ESaISt4pairIKS1_S4_EEE5emptyEv
FNDA:0,_ZNKSt8multimapIN4Poco5ClockENS0_7AutoPtrINS0_12NotificationEEESt4lessIS1_ESaISt4pairIKS1_S4_EEE4sizeEv
FNDA:0,_ZNSt8multimapIN4Poco5ClockENS0_7AutoPtrINS0_12NotificationEEESt4lessIS1_ESaISt4pairIKS1_S4_EEE6insertEOS9_
FNDA:0,_ZNSt8multimapIN4Poco5ClockENS0_7AutoPtrINS0_12NotificationEEESt4lessIS1_ESaISt4pairIKS1_S4_EEE5eraseB5cxx11ESt17_Rb_tree_iteratorIS9_E
FNDA:0,_ZNSt8multimapIN4Poco5ClockENS0_7AutoPtrINS0_12NotificationEEESt4lessIS1_ESaISt4pairIKS1_S4_EEE5clearEv
FNF:9
FNH:0
DA:174,0
DA:289,0
DA:343,0
DA:344,0
DA:361,0
DA:362,0
DA:450,0
DA:451,0
DA:455,0
DA:456,0
DA:538,0
DA:539,0
DA:700,0
DA:701,0
DA:800,0
DA:801,0
LF:16
LH:0
end_of_record
SF:/usr/include/c++/7/bits/stl_pair.h
FN:208,_ZNSt4pairIKN4Poco5ClockENS0_7AutoPtrINS0_12NotificationEEEED2Ev
FN:304,_ZNSt4pairIKN4Poco5ClockENS0_7AutoPtrINS0_12NotificationEEEEC2EOS6_
FN:341,_ZNSt4pairIKN4Poco5ClockENS0_7AutoPtrINS0_12NotificationEEEEC2IRS1_RS5_Lb1EEEOT_OT0_
FN:341,_ZNSt4pairIPSt18_Rb_tree_node_baseS1_EC2IRPSt13_Rb_tree_nodeIS_IKN4Poco5ClockENS5_7AutoPtrINS5_12NotificationEEEEERS1_Lb1EEEOT_OT0_
FNDA:0,_ZNSt4pairIKN4Poco5ClockENS0_7AutoPtrINS0_12NotificationEEEED2Ev
FNDA:0,_ZNSt4pairIKN4Poco5ClockENS0_7AutoPtrINS0_12NotificationEEEEC2EOS6_
FNDA:0,_ZNSt4pairIPSt18_Rb_tree_node_baseS1_EC2IRPSt13_Rb_tree_nodeIS_IKN4Poco5ClockENS5_7AutoPtrINS5_12NotificationEEEEERS1_Lb1EEEOT_OT0_
FNDA:0,_ZNSt4pairIKN4Poco5ClockENS0_7AutoPtrINS0_12NotificationEEEEC2IRS1_RS5_Lb1EEEOT_OT0_
FNF:4
FNH:0
DA:208,0
DA:304,0
DA:341,0
DA:342,0
LF:4
LH:0
end_of_record
SF:/usr/include/c++/7/bits/stl_tree.h
FN:146,_ZNSt20_Rb_tree_key_compareISt4lessIN4Poco5ClockEEEC2Ev
FN:173,_ZNSt15_Rb_tree_headerC2Ev
FN:206,_ZNSt15_Rb_tree_header8_M_resetEv
FN:234,_ZNSt13_Rb_tree_nodeISt4pairIKN4Poco5ClockENS1_7AutoPtrINS1_12NotificationEEEEE9_M_valptrEv
FN:238,_ZNKSt13_Rb_tree_nodeISt4pairIKN4Poco5ClockENS1_7AutoPtrINS1_12NotificationEEEEE9_M_valptrEv
FN:273,_ZNSt17_Rb_tree_iteratorISt4pairIKN4Poco5ClockENS1_7AutoPtrINS1_12NotificationEEEEEC2EPSt18_Rb_tree_node_base
FN:281,_ZNKSt17_Rb_tree_iteratorISt4pairIKN4Poco5ClockENS1_7AutoPtrINS1_12NotificationEEEEEptEv
FN:285,_ZNSt17_Rb_tree_iteratorISt4pairIKN4Poco5ClockENS1_7AutoPtrINS1_12NotificationEEEEEppEv
FN:319,_ZNKSt17_Rb_tree_iteratorISt4pairIKN4Poco5ClockENS1_7AutoPtrINS1_12NotificationEEEEEneERKS8_
FN:348,_ZNSt23_Rb_tree_const_iteratorISt4pairIKN4Poco5ClockENS1_7AutoPtrINS1_12NotificationEEEEEC2ERKSt17_Rb_tree_iteratorIS7_E
FN:546,_ZNSt8_Rb_treeIN4Poco5ClockESt4pairIKS1_NS0_7AutoPtrINS0_12NotificationEEEESt10_Select1stIS7_ESt4lessIS1_ESaIS7_EE11_Alloc_nodeC2ERSD_
FN:554,_ZNKSt8_Rb_treeIN4Poco5ClockESt4pairIKS1_NS0_7AutoPtrINS0_12NotificationEEEESt10_Select1stIS7_ESt4lessIS1_ESaIS7_EE11_Alloc_nodeclIS7_EEPSt13_Rb_tree_nodeIS7_EOT_
FN:574,_ZNSt8_Rb_treeIN4Poco5ClockESt4pairIKS1_NS0_7AutoPtrINS0_12NotificationEEEESt10_Select1stIS7_ESt4lessIS1_ESaIS7_EE21_M_get_Node_allocatorEv
FN:587,_ZNSt8_Rb_treeIN4Poco5ClockESt4pairIKS1_NS0_7AutoPtrINS0_12NotificationEEEESt10_Select1stIS7_ESt4lessIS1_ESaIS7_EE11_M_get_nodeEv
FN:591,_ZNSt8_Rb_treeIN4Poco5ClockESt4pairIKS1_NS0_7AutoPtrINS0_12NotificationEEEESt10_Select1stIS7_ESt4lessIS1_ESaIS7_EE11_M_put_nodeEPSt13_Rb_tree_nodeIS7_E
FN:621,_ZNSt8_Rb_treeIN4Poco5ClockESt4pairIKS1_NS0_7AutoPtrINS0_12NotificationEEEESt10_Select1stIS7_ESt4lessIS1_ESaIS7_EE17_M_construct_nodeIJS7_EEEvPSt13_Rb_tree_nodeIS7_EDpOT_
FN:640,_ZNSt8_Rb_treeIN4Poco5ClockESt4pairIKS1_NS0_7AutoPtrINS0_12NotificationEEEESt10_Select1stIS7_ESt4lessIS1_ESaIS7_EE14_M_create_nodeIJS7_EEEPSt13_Rb_tree_nodeIS7_EDpOT_
FN:648,_ZNSt8_Rb_treeIN4Poco5ClockESt4pairIKS1_NS0_7AutoPtrINS0_12NotificationEEEESt10_Select1stIS7_ESt4lessIS1_ESaIS7_EE15_M_destroy_nodeEPSt13_Rb_tree_nodeIS7_E
FN:656,_ZNSt8_Rb_treeIN4Poco5ClockESt4pairIKS1_NS0_7AutoPtrINS0_12NotificationEEEESt10_Select1stIS7_ESt4lessIS1_ESaIS7_EE12_M_drop_nodeEPSt13_Rb_tree_nodeIS7_E
FN:677,_ZNSt8_Rb_treeIN4Poco5ClockESt4pairIKS1_NS0_7AutoPtrINS0_12NotificationEEEESt10_Select1stIS7_ESt4lessIS1_ESaIS7_EE13_Rb_tree_implISB_Lb1EED2Ev
FN:688,_ZNSt8_Rb_treeIN4Poco5ClockESt4pairIKS1_NS0_7AutoPtrINS0_12NotificationEEEESt10_Select1stIS7_ESt4lessIS1_ESaIS7_EE13_Rb_tree_implISB_Lb1EEC2Ev
FN:736,_ZNSt8_Rb_treeIN4Poco5ClockESt4pairIKS1_NS0_7AutoPtrINS0_12NotificationEEEESt10_Select1stIS7_ESt4lessIS1_ESaIS7_EE8_M_beginEv
FN:747,_ZNSt8_Rb_treeIN4Poco5ClockESt4pairIKS1_NS0_7AutoPtrINS0_12NotificationEEEESt10_Select1stIS7_ESt4lessIS1_ESaIS7_EE6_M_endEv
FN:755,_ZNSt8_Rb_treeIN4Poco5ClockESt4pairIKS1_NS0_7AutoPtrINS0_12NotificationEEEESt10_Select1stIS7_ESt4lessIS1_ESaIS7_EE8_S_valueEPKSt13_Rb_tree_nodeIS7_E
FN:759,_ZNSt8_Rb_treeIN4Poco5ClockESt4pairIKS1_NS0_7AutoPtrINS0_12NotificationEEEESt10_Select1stIS7_ESt4lessIS1_ESaIS7_EE6_S_keyEPKSt13_Rb_tree_nodeIS7_E
FN:763,_ZNSt8_Rb_treeIN4Poco5ClockESt4pairIKS1_NS0_7AutoPtrINS0_12NotificationEEEESt10_Select1stIS7_ESt4lessIS1_ESaIS7_EE7_S_leftEPSt18_Rb_tree_node_base
FN:771,_ZNSt8_Rb_treeIN4Poco5ClockESt4pairIKS1_NS0_7AutoPtrINS0_12NotificationEEEESt10_Select1stIS7_ESt4lessIS1_ESaIS7_EE8_S_rightEPSt18_Rb_tree_node_base
FN:779,_ZNSt8_Rb_treeIN4Poco5ClockESt4pairIKS1_NS0_7AutoPtrINS0_12NotificationEEEESt10_Select1stIS7_ESt4lessIS1_ESaIS7_EE8_S_valueEPKSt18_Rb_tree_node_base
FN:783,_ZNSt8_Rb_treeIN4Poco5ClockESt4pairIKS1_NS0_7AutoPtrINS0_12NotificationEEEESt10_Select1stIS7_ESt4lessIS1_ESaIS7_EE6_S_keyEPKSt18_Rb_tree_node_base
FN:913,_ZNSt8_Rb_treeIN4Poco5ClockESt4pairIKS1_NS0_7AutoPtrINS0_12NotificationEEEESt10_Select1stIS7_ESt4lessIS1_ESaIS7_EEC2Ev
FN:948,_ZNSt8_Rb_treeIN4Poco5ClockESt4pairIKS1_NS0_7AutoPtrINS0_12NotificationEEEESt10_Select1stIS7_ESt4lessIS1_ESaIS7_EED2Ev
FN:960,_ZNSt8_Rb_treeIN4Poco5ClockESt4pairIKS1_NS0_7AutoPtrINS0_12NotificationEEEESt10_Select1stIS7_ESt4lessIS1_ESaIS7_EE5beginEv
FN:968,_ZNSt8_Rb_treeIN4Poco5ClockESt4pairIKS1_NS0_7AutoPtrINS0_12NotificationEEEESt10_Select1stIS7_ESt4lessIS1_ESaIS7_EE3endEv
FN:992,_ZNKSt8_Rb_treeIN4Poco5ClockESt4pairIKS1_NS0_7AutoPtrINS0_12NotificationEEEESt10_Select1stIS7_ESt4lessIS1_ESaIS7_EE5emptyEv
FN:996,_ZNKSt8_Rb_treeIN4Poco5ClockESt4pairIKS1_NS0_7AutoPtrINS0_12NotificationEEEESt10_Select1stIS7_ESt4lessIS1_ESaIS7_EE4sizeEv
FN:1120,_ZNSt8_Rb_treeIN4Poco5ClockESt4pairIKS1_NS0_7AutoPtrINS0_12NotificationEEEESt10_Select1stIS7_ESt4lessIS1_ESaIS7_EE5eraseB5cxx11ESt17_Rb_tree_iteratorIS7_E
FN:1169,_ZNSt8_Rb_treeIN4Poco5ClockESt4pairIKS1_NS0_7AutoPtrINS0_12NotificationEEEESt10_Select1stIS7_ESt4lessIS1_ESaIS7_EE5clearEv
FN:1740,_ZNSt8_Rb_treeIN4Poco5ClockESt4pairIKS1_NS0_7AutoPtrINS0_12NotificationEEEESt10_Select1stIS7_ESt4lessIS1_ESaIS7_EE10_M_insert_IS7_NSD_11_Alloc_nodeEEESt17_Rb_tree_iteratorIS7_EPSt18_Rb_tree_node_baseSJ_OT_RT0_
FN:1850,_ZNSt8_Rb_treeIN4Poco5ClockESt4pairIKS1_NS0_7AutoPtrINS0_12NotificationEEEESt10_Select1stIS7_ESt4lessIS1_ESaIS7_EE8_M_eraseEPSt13_Rb_tree_nodeIS7_E
FN:2060,_ZNSt8_Rb_treeIN4Poco5ClockESt4pairIKS1_NS0_7AutoPtrINS0_12NotificationEEEESt10_Select1stIS7_ESt4lessIS1_ESaIS7_EE23_M_get_insert_equal_posERS3_
FN:2110,_ZNSt8_Rb_treeIN4Poco5ClockESt4pairIKS1_NS0_7AutoPtrINS0_12NotificationEEEESt10_Select1stIS7_ESt4lessIS1_ESaIS7_EE15_M_insert_equalIS7_EESt17_Rb_tree_iteratorIS7_EOT_
FN:2470,_ZNSt8_Rb_treeIN4Poco5ClockESt4pairIKS1_NS0_7AutoPtrINS0_12NotificationEEEESt10_Select1stIS7_ESt4lessIS1_ESaIS7_EE12_M_erase_auxESt23_Rb_tree_const_iteratorIS7_E
FNDA:0,_ZNSt20_Rb_tree_key_compareISt4lessIN4Poco5ClockEEEC2Ev
FNDA:0,_ZNSt15_Rb_tree_headerC2Ev
FNDA:0,_ZNSt15_Rb_tree_header8_M_resetEv
FNDA:0,_ZNSt13_Rb_tree_nodeISt4pairIKN4Poco5ClockENS1_7AutoPtrINS1_12NotificationEEEEE9_M_valptrEv
FNDA:0,_ZNKSt13_Rb_tree_nodeISt4pairIKN4Poco5ClockENS1_7AutoPtrINS1_12NotificationEEEEE9_M_valptrEv
FNDA:0,_ZNSt17_Rb_tree_iteratorISt4pairIKN4Poco5ClockENS1_7AutoPtrINS1_12NotificationEEEEEC2EPSt18_Rb_tree_node_base
FNDA:0,_ZNKSt17_Rb_tree_iteratorISt4pairIKN4Poco5ClockENS1_7AutoPtrINS1_12NotificationEEEEEptEv
FNDA:0,_ZNSt17_Rb_tree_iteratorISt4pairIKN4Poco5ClockENS1_7AutoPtrINS1_12NotificationEEEEEppEv
FNDA:0,_ZNKSt17_Rb_tree_iteratorISt4pairIKN4Poco5ClockENS1_7AutoPtrINS1_12NotificationEEEEEneERKS8_
FNDA:0,_ZNSt23_Rb_tree_const_iteratorISt4pairIKN4Poco5ClockENS1_7AutoPtrINS1_12NotificationEEEEEC2ERKSt17_Rb_tree_iteratorIS7_E
FNDA:0,_ZNSt8_Rb_treeIN4Poco5ClockESt4pairIKS1_NS0_7AutoPtrINS0_12NotificationEEEESt10_Select1stIS7_ESt4lessIS1_ESaIS7_EE11_Alloc_nodeC2ERSD_
FNDA:0,_ZNKSt8_Rb_treeIN4Poco5ClockESt4pairIKS1_NS0_7AutoPtrINS0_12NotificationEEEESt10_Select1stIS7_ESt4lessIS1_ESaIS7_EE11_Alloc_nodeclIS7_EEPSt13_Rb_tree_nodeIS7_EOT_
FNDA:0,_ZNSt8_Rb_treeIN4Poco5ClockESt4pairIKS1_NS0_7AutoPtrINS0_12NotificationEEEESt10_Select1stIS7_ESt4lessIS1_ESaIS7_EE21_M_get_Node_allocatorEv
FNDA:0,_ZNSt8_Rb_treeIN4Poco5ClockESt4pairIKS1_NS0_7AutoPtrINS0_12NotificationEEEESt10_Select1stIS7_ESt4lessIS1_ESaIS7_EE11_M_get_nodeEv
FNDA:0,_ZNSt8_Rb_treeIN4Poco5ClockESt4pairIKS1_NS0_7AutoPtrINS0_12NotificationEEEESt10_Select1stIS7_ESt4lessIS1_ESaIS7_EE11_M_put_nodeEPSt13_Rb_tree_nodeIS7_E
FNDA:0,_ZNSt8_Rb_treeIN4Poco5ClockESt4pairIKS1_NS0_7AutoPtrINS0_12NotificationEEEESt10_Select1stIS7_ESt4lessIS1_ESaIS7_EE17_M_construct_nodeIJS7_EEEvPSt13_Rb_tree_nodeIS7_EDpOT_
FNDA:0,_ZNSt8_Rb_treeIN4Poco5ClockESt4pairIKS1_NS0_7AutoPtrINS0_12NotificationEEEESt10_Select1stIS7_ESt4lessIS1_ESaIS7_EE14_M_create_nodeIJS7_EEEPSt13_Rb_tree_nodeIS7_EDpOT_
FNDA:0,_ZNSt8_Rb_treeIN4Poco5ClockESt4pairIKS1_NS0_7AutoPtrINS0_12NotificationEEEESt10_Select1stIS7_ESt4lessIS1_ESaIS7_EE15_M_destroy_nodeEPSt13_Rb_tree_nodeIS7_E
FNDA:0,_ZNSt8_Rb_treeIN4Poco5ClockESt4pairIKS1_NS0_7AutoPtrINS0_12NotificationEEEESt10_Select1stIS7_ESt4lessIS1_ESaIS7_EE12_M_drop_nodeEPSt13_Rb_tree_nodeIS7_E
FNDA:0,_ZNSt8_Rb_treeIN4Poco5ClockESt4pairIKS1_NS0_7AutoPtrINS0_12NotificationEEEESt10_Select1stIS7_ESt4lessIS1_ESaIS7_EE13_Rb_tree_implISB_Lb1EED2Ev
FNDA:0,_ZNSt8_Rb_treeIN4Poco5ClockESt4pairIKS1_NS0_7AutoPtrINS0_12NotificationEEEESt10_Select1stIS7_ESt4lessIS1_ESaIS7_EE13_Rb_tree_implISB_Lb1EEC2Ev
FNDA:0,_ZNSt8_Rb_treeIN4Poco5ClockESt4pairIKS1_NS0_7AutoPtrINS0_12NotificationEEEESt10_Select1stIS7_ESt4lessIS1_ESaIS7_EE8_M_beginEv
FNDA:0,_ZNSt8_Rb_treeIN4Poco5ClockESt4pairIKS1_NS0_7AutoPtrINS0_12NotificationEEEESt10_Select1stIS7_ESt4lessIS1_ESaIS7_EE6_M_endEv
FNDA:0,_ZNSt8_Rb_treeIN4Poco5ClockESt4pairIKS1_NS0_7AutoPtrINS0_12NotificationEEEESt10_Select1stIS7_ESt4lessIS1_ESaIS7_EE8_S_valueEPKSt13_Rb_tree_nodeIS7_E
FNDA:0,_ZNSt8_Rb_treeIN4Poco5ClockESt4pairIKS1_NS0_7AutoPtrINS0_12NotificationEEEESt10_Select1stIS7_ESt4lessIS1_ESaIS7_EE6_S_keyEPKSt13_Rb_tree_nodeIS7_E
FNDA:0,_ZNSt8_Rb_treeIN4Poco5ClockESt4pairIKS1_NS0_7AutoPtrINS0_12NotificationEEEESt10_Select1stIS7_ESt4lessIS1_ESaIS7_EE7_S_leftEPSt18_Rb_tree_node_base
FNDA:0,_ZNSt8_Rb_treeIN4Poco5ClockESt4pairIKS1_NS0_7AutoPtrINS0_12NotificationEEEESt10_Select1stIS7_ESt4lessIS1_ESaIS7_EE8_S_rightEPSt18_Rb_tree_node_base
FNDA:0,_ZNSt8_Rb_treeIN4Poco5ClockESt4pairIKS1_NS0_7AutoPtrINS0_12NotificationEEEESt10_Select1stIS7_ESt4lessIS1_ESaIS7_EE8_S_valueEPKSt18_Rb_tree_node_base
FNDA:0,_ZNSt8_Rb_treeIN4Poco5ClockESt4pairIKS1_NS0_7AutoPtrINS0_12NotificationEEEESt10_Select1stIS7_ESt4lessIS1_ESaIS7_EE6_S_keyEPKSt18_Rb_tree_node_base
FNDA:0,_ZNSt8_Rb_treeIN4Poco5ClockESt4pairIKS1_NS0_7AutoPtrINS0_12NotificationEEEESt10_Select1stIS7_ESt4lessIS1_ESaIS7_EEC2Ev
FNDA:0,_ZNSt8_Rb_treeIN4Poco5ClockESt4pairIKS1_NS0_7AutoPtrINS0_12NotificationEEEESt10_Select1stIS7_ESt4lessIS1_ESaIS7_EED2Ev
FNDA:0,_ZNSt8_Rb_treeIN4Poco5ClockESt4pairIKS1_NS0_7AutoPtrINS0_12NotificationEEEESt10_Select1stIS7_ESt4lessIS1_ESaIS7_EE5beginEv
FNDA:0,_ZNSt8_Rb_treeIN4Poco5ClockESt4pairIKS1_NS0_7AutoPtrINS0_12NotificationEEEESt10_Select1stIS7_ESt4lessIS1_ESaIS7_EE3endEv
FNDA:0,_ZNKSt8_Rb_treeIN4Poco5ClockESt4pairIKS1_NS0_7AutoPtrINS0_12NotificationEEEESt10_Select1stIS7_ESt4lessIS1_ESaIS7_EE5emptyEv
FNDA:0,_ZNKSt8_Rb_treeIN4Poco5ClockESt4pairIKS1_NS0_7AutoPtrINS0_12NotificationEEEESt10_Select1stIS7_ESt4lessIS1_ESaIS7_EE4sizeEv
FNDA:0,_ZNSt8_Rb_treeIN4Poco5ClockESt4pairIKS1_NS0_7AutoPtrINS0_12NotificationEEEESt10_Select1stIS7_ESt4lessIS1_ESaIS7_EE5eraseB5cxx11ESt17_Rb_tree_iteratorIS7_E
FNDA:0,_ZNSt8_Rb_treeIN4Poco5ClockESt4pairIKS1_NS0_7AutoPtrINS0_12NotificationEEEESt10_Select1stIS7_ESt4lessIS1_ESaIS7_EE5clearEv
FNDA:0,_ZNSt8_Rb_treeIN4Poco5ClockESt4pairIKS1_NS0_7AutoPtrINS0_12NotificationEEEESt10_Select1stIS7_ESt4lessIS1_ESaIS7_EE10_M_insert_IS7_NSD_11_Alloc_nodeEEESt17_Rb_tree_iteratorIS7_EPSt18_Rb_tree_node_baseSJ_OT_RT0_
FNDA:0,_ZNSt8_Rb_treeIN4Poco5ClockESt4pairIKS1_NS0_7AutoPtrINS0_12NotificationEEEESt10_Select1stIS7_ESt4lessIS1_ESaIS7_EE8_M_eraseEPSt13_Rb_tree_nodeIS7_E
FNDA:0,_ZNSt8_Rb_treeIN4Poco5ClockESt4pairIKS1_NS0_7AutoPtrINS0_12NotificationEEEESt10_Select1stIS7_ESt4lessIS1_ESaIS7_EE23_M_get_insert_equal_posERS3_
FNDA:0,_ZNSt8_Rb_treeIN4Poco5ClockESt4pairIKS1_NS0_7AutoPtrINS0_12NotificationEEEESt10_Select1stIS7_ESt4lessIS1_ESaIS7_EE15_M_insert_equalIS7_EESt17_Rb_tree_iteratorIS7_EOT_
FNDA:0,_ZNSt8_Rb_treeIN4Poco5ClockESt4pairIKS1_NS0_7AutoPtrINS0_12NotificationEEEESt10_Select1stIS7_ESt4lessIS1_ESaIS7_EE12_M_erase_auxESt23_Rb_tree_const_iteratorIS7_E
FNF:42
FNH:0
DA:146,0
DA:150,0
DA:173,0
DA:174,0
DA:175,0
DA:176,0
DA:177,0
DA:206,0
DA:208,0
DA:209,0
DA:210,0
DA:211,0
DA:212,0
DA:234,0
DA:235,0
DA:238,0
DA:239,0
DA:273,0
DA:274,0
DA:281,0
DA:282,0
DA:285,0
DA:287,0
DA:288,0
DA:319,0
DA:320,0
DA:348,0
DA:349,0
DA:546,0
DA:547,0
DA:554,0
DA:556,0
DA:574,0
DA:575,0
DA:587,0
DA:588,0
DA:591,0
DA:592,0
DA:621,0
DA:625,0
DA:626,0
DA:630,0
DA:633,0
DA:634,0
DA:636,0
DA:640,0
DA:642,0
DA:643,0
DA:644,0
DA:648,0
DA:650,0
DA:652,0
DA:656,0
DA:658,0
DA:659,0
DA:660,0
DA:677,0
DA:688,0
DA:736,0
DA:737,0
DA:747,0
DA:748,0
DA:755,0
DA:756,0
DA:759,0
DA:760,0
DA:763,0
DA:764,0
DA:771,0
DA:772,0
DA:779,0
DA:780,0
DA:783,0
DA:784,0
DA:913,0
DA:948,0
DA:949,0
DA:960,0
DA:961,0
DA:968,0
DA:969,0
DA:992,0
DA:993,0
DA:996,0
DA:997,0
DA:1120,0
DA:1123,0
DA:1124,0
DA:1125,0
DA:1126,0
DA:1169,0
DA:1171,0
DA:1172,0
DA:1173,0
DA:1740,0
DA:1749,0
DA:1750,0
DA:1753,0
DA:1755,0
DA:1757,0
DA:1758,0
DA:1850,0
DA:1854,0
DA:1856,0
DA:1857,0
DA:1858,0
DA:1859,0
DA:1861,0
DA:2060,0
DA:2064,0
DA:2065,0
DA:2066,0
DA:2068,0
DA:2069,0
DA:2070,0
DA:2072,0
DA:2110,0
DA:2117,0
DA:2118,0
DA:2119,0
DA:2120,0
DA:2121,0
DA:2470,0
DA:2473,0
DA:2475,0
DA:2477,0
DA:2478,0
DA:2479,0
LF:128
LH:0
end_of_record
SF:/usr/include/c++/7/ext/aligned_buffer.h
FN:62,_ZN9__gnu_cxx16__aligned_membufISt4pairIKN4Poco5ClockENS2_7AutoPtrINS2_12NotificationEEEEE7_M_addrEv
FN:66,_ZNK9__gnu_cxx16__aligned_membufISt4pairIKN4Poco5ClockENS2_7AutoPtrINS2_12NotificationEEEEE7_M_addrEv
FN:70,_ZN9__gnu_cxx16__aligned_membufISt4pairIKN4Poco5ClockENS2_7AutoPtrINS2_12NotificationEEEEE6_M_ptrEv
FN:74,_ZNK9__gnu_cxx16__aligned_membufISt4pairIKN4Poco5ClockENS2_7AutoPtrINS2_12NotificationEEEEE6_M_ptrEv
FNDA:0,_ZN9__gnu_cxx16__aligned_membufISt4pairIKN4Poco5ClockENS2_7AutoPtrINS2_12NotificationEEEEE7_M_addrEv
FNDA:0,_ZNK9__gnu_cxx16__aligned_membufISt4pairIKN4Poco5ClockENS2_7AutoPtrINS2_12NotificationEEEEE7_M_addrEv
FNDA:0,_ZN9__gnu_cxx16__aligned_membufISt4pairIKN4Poco5ClockENS2_7AutoPtrINS2_12NotificationEEEEE6_M_ptrEv
FNDA:0,_ZNK9__gnu_cxx16__aligned_membufISt4pairIKN4Poco5ClockENS2_7AutoPtrINS2_12NotificationEEEEE6_M_ptrEv
FNF:4
FNH:0
DA:62,0
DA:63,0
DA:66,0
DA:67,0
DA:70,0
DA:71,0
DA:74,0
DA:75,0
LF:8
LH:0
end_of_record
SF:/usr/include/c++/7/ext/new_allocator.h
FN:79,_ZN9__gnu_cxx13new_allocatorISt13_Rb_tree_nodeISt4pairIKN4Poco5ClockENS3_7AutoPtrINS3_12NotificationEEEEEEC2Ev
FN:86,_ZN9__gnu_cxx13new_allocatorISt13_Rb_tree_nodeISt4pairIKN4Poco5ClockENS3_7AutoPtrINS3_12NotificationEEEEEED2Ev
FN:99,_ZN9__gnu_cxx13new_allocatorISt13_Rb_tree_nodeISt4pairIKN4Poco5ClockENS3_7AutoPtrINS3_12NotificationEEEEEE8allocateEmPKv
FN:116,_ZN9__gnu_cxx13new_allocatorISt13_Rb_tree_nodeISt4pairIKN4Poco5ClockENS3_7AutoPtrINS3_12NotificationEEEEEE10deallocateEPSA_m
FN:129,_ZNK9__gnu_cxx13new_allocatorISt13_Rb_tree_nodeISt4pairIKN4Poco5ClockENS3_7AutoPtrINS3_12NotificationEEEEEE8max_sizeEv
FN:135,_ZN9__gnu_cxx13new_allocatorISt13_Rb_tree_nodeISt4pairIKN4Poco5ClockENS3_7AutoPtrINS3_12NotificationEEEEEE9constructIS9_JS9_EEEvPT_DpOT0_
FN:140,_ZN9__gnu_cxx13new_allocatorISt13_Rb_tree_nodeISt4pairIKN4Poco5ClockENS3_7AutoPtrINS3_12NotificationEEEEEE7destroyIS9_EEvPT_
FNDA:0,_ZN9__gnu_cxx13new_allocatorISt13_Rb_tree_nodeISt4pairIKN4Poco5ClockENS3_7AutoPtrINS3_12NotificationEEEEEEC2Ev
FNDA:0,_ZN9__gnu_cxx13new_allocatorISt13_Rb_tree_nodeISt4pairIKN4Poco5ClockENS3_7AutoPtrINS3_12NotificationEEEEEED2Ev
FNDA:0,_ZN9__gnu_cxx13new_allocatorISt13_Rb_tree_nodeISt4pairIKN4Poco5ClockENS3_7AutoPtrINS3_12NotificationEEEEEE8allocateEmPKv
FNDA:0,_ZN9__gnu_cxx13new_allocatorISt13_Rb_tree_nodeISt4pairIKN4Poco5ClockENS3_7AutoPtrINS3_12NotificationEEEEEE10deallocateEPSA_m
FNDA:0,_ZNK9__gnu_cxx13new_allocatorISt13_Rb_tree_nodeISt4pairIKN4Poco5ClockENS3_7AutoPtrINS3_12NotificationEEEEEE8max_sizeEv
FNDA:0,_ZN9__gnu_cxx13new_allocatorISt13_Rb_tree_nodeISt4pairIKN4Poco5ClockENS3_7AutoPtrINS3_12NotificationEEEEEE9constructIS9_JS9_EEEvPT_DpOT0_
FNDA:0,_ZN9__gnu_cxx13new_allocatorISt13_Rb_tree_nodeISt4pairIKN4Poco5ClockENS3_7AutoPtrINS3_12NotificationEEEEEE7destroyIS9_EEvPT_
FNF:7
FNH:0
DA:79,0
DA:86,0
DA:99,0
DA:101,0
DA:102,0
DA:111,0
DA:116,0
DA:125,0
DA:126,0
DA:129,0
DA:130,0
DA:135,0
DA:136,0
DA:140,0
LF:14
LH:0
end_of_record
SF:/usr/include/c++/7/iostream
DA:74,1
LF:1
LH:1
end_of_record
SF:/usr/include/c++/7/new
FN:168,_ZnwmPv
FN:174,_ZdlPvS_
FNDA:0,_ZnwmPv
FNDA:0,_ZdlPvS_
FNF:2
FNH:0
DA:168,0
DA:169,0
DA:174,0
LF:3
LH:0
end_of_record
TN:
SF:/home/vera/poco/Foundation/src/TextBufferIterator.cpp
FN:24,_ZN4Poco18TextBufferIteratorC2Ev
FN:32,_ZN4Poco18TextBufferIteratorC2EPKcRKNS_12TextEncodingE
FN:40,_ZN4Poco18TextBufferIteratorC2EPKcmRKNS_12TextEncodingE
FN:48,_ZN4Poco18TextBufferIteratorC2EPKcS2_RKNS_12TextEncodingE
FN:56,_ZN4Poco18TextBufferIteratorC2EPKc
FN:64,_ZN4Poco18TextBufferIteratorD2Ev
FN:69,_ZN4Poco18TextBufferIteratorC2ERKS0_
FN:77,_ZN4Poco18TextBufferIteratoraSERKS0_
FN:89,_ZN4Poco18TextBufferIterator4swapERS0_
FN:97,_ZNK4Poco18TextBufferIteratordeEv
FN:135,_ZN4Poco18TextBufferIteratorppEv
FN:170,_ZN4Poco18TextBufferIteratorppEi
FN:178,_Z41__static_initialization_and_destruction_0ii
FN:178,_GLOBAL__sub_I_TextBufferIterator.cpp
FNDA:0,_ZN4Poco18TextBufferIteratorC2Ev
FNDA:0,_ZN4Poco18TextBufferIteratorC2EPKcRKNS_12TextEncodingE
FNDA:0,_ZN4Poco18TextBufferIteratorC2EPKcmRKNS_12TextEncodingE
FNDA:0,_ZN4Poco18TextBufferIteratorC2EPKcS2_RKNS_12TextEncodingE
FNDA:0,_ZN4Poco18TextBufferIteratorC2EPKc
FNDA:0,_ZN4Poco18TextBufferIteratorD2Ev
FNDA:0,_ZN4Poco18TextBufferIteratorC2ERKS0_
FNDA:0,_ZN4Poco18TextBufferIteratoraSERKS0_
FNDA:0,_ZN4Poco18TextBufferIterator4swapERS0_
FNDA:0,_ZNK4Poco18TextBufferIteratordeEv
FNDA:0,_ZN4Poco18TextBufferIteratorppEv
FNDA:0,_ZN4Poco18TextBufferIteratorppEi
FNDA:1,_GLOBAL__sub_I_TextBufferIterator.cpp
FNDA:1,_Z41__static_initialization_and_destruction_0ii
FNF:14
FNH:2
DA:24,0
DA:27,0
DA:29,0
DA:32,0
DA:35,0
DA:37,0
DA:40,0
DA:43,0
DA:45,0
DA:48,0
DA:51,0
DA:53,0
DA:56,0
DA:59,0
DA:61,0
DA:64,0
DA:66,0
DA:69,0
DA:70,0
DA:71,0
DA:72,0
DA:74,0
DA:77,0
DA:79,0
DA:81,0
DA:82,0
DA:83,0
DA:85,0
DA:89,0
DA:91,0
DA:92,0
DA:93,0
DA:94,0
DA:97,0
DA:99,0
DA:100,0
DA:101,0
DA:104,0
DA:106,0
DA:107,0
DA:109,0
DA:111,0
DA:112,0
DA:114,0
DA:116,0
DA:118,0
DA:119,0
DA:121,0
DA:124,0
DA:126,0
DA:130,0
DA:135,0
DA:137,0
DA:138,0
DA:141,0
DA:143,0
DA:144,0
DA:146,0
DA:148,0
DA:149,0
DA:151,0
DA:153,0
DA:155,0
DA:156,0
DA:158,0
DA:160,0
DA:162,0
DA:163,0
DA:166,0
DA:170,0
DA:172,0
DA:173,0
DA:174,0
DA:178,3
LF:74
LH:1
end_of_record
SF:/usr/include/c++/7/bits/move.h
FN:98,_ZSt4moveIRPKcEONSt16remove_referenceIT_E4typeEOS4_
FN:98,_ZSt4moveIRPKN4Poco12TextEncodingEEONSt16remove_referenceIT_E4typeEOS6_
FN:187,_ZSt4swapIPKcENSt9enable_ifIXsrSt6__and_IJSt6__not_ISt15__is_tuple_likeIT_EESt21is_move_constructibleIS6_ESt18is_move_assignableIS6_EEE5valueEvE4typeERS6_SG_
FN:187,_ZSt4swapIPKN4Poco12TextEncodingEENSt9enable_ifIXsrSt6__and_IJSt6__not_ISt15__is_tuple_likeIT_EESt21is_move_constructibleIS8_ESt18is_move_assignableIS8_EEE5valueEvE4typeERS8_SI_
FNDA:0,_ZSt4moveIRPKcEONSt16remove_referenceIT_E4typeEOS4_
FNDA:0,_ZSt4moveIRPKN4Poco12TextEncodingEEONSt16remove_referenceIT_E4typeEOS6_
FNDA:0,_ZSt4swapIPKcENSt9enable_ifIXsrSt6__and_IJSt6__not_ISt15__is_tuple_likeIT_EESt21is_move_constructibleIS6_ESt18is_move_assignableIS6_EEE5valueEvE4typeERS6_SG_
FNDA:0,_ZSt4swapIPKN4Poco12TextEncodingEENSt9enable_ifIXsrSt6__and_IJSt6__not_ISt15__is_tuple_likeIT_EESt21is_move_constructibleIS8_ESt18is_move_assignableIS8_EEE5valueEvE4typeERS8_SI_
FNF:4
FNH:0
DA:98,0
DA:99,0
DA:187,0
DA:198,0
DA:199,0
DA:200,0
DA:201,0
LF:7
LH:0
end_of_record
SF:/usr/include/c++/7/iostream
DA:74,1
LF:1
LH:1
end_of_record
TN:
SF:/home/vera/poco/Foundation/src/pcre_compile.c
FN:897,find_error_text
FN:924,expand_workspace
FN:963,is_counted_repeat
FN:1008,check_escape
FN:1514,get_ucp
FN:1610,read_repeat_counts
FN:1672,first_significant_code
FN:1739,find_fixedlength
FN:2083,_pcre_find_bracket
FN:2246,find_recurse
FN:2399,could_be_empty_branch
FN:2774,could_be_empty
FN:2800,get_repeat_base
FN:2830,check_char_prop
FN:2918,get_chr_property_list
FN:3123,compare_opcodes
FN:3662,auto_possessify
FN:3936,check_posix_syntax
FN:3975,check_posix_name
FN:4023,adjust_recurse
FN:4079,auto_callout
FN:4107,complete_callout
FN:4139,get_othercase_range
FN:4204,add_to_class
FN:4368,add_list_to_class
FN:4406,add_not_list_to_class
FN:4455,compile_branch
FN:8309,compile_regex
FN:8663,is_anchored
FN:8761,is_startline
FN:8882,find_firstassertedchar
FN:8973,add_name
FN:9034,pcre_compile
FN:9058,pcre_compile2
FNDA:0,find_error_text
FNDA:0,expand_workspace
FNDA:0,is_counted_repeat
FNDA:0,check_escape
FNDA:0,get_ucp
FNDA:0,read_repeat_counts
FNDA:0,first_significant_code
FNDA:0,find_fixedlength
FNDA:0,_pcre_find_bracket
FNDA:0,find_recurse
FNDA:0,could_be_empty_branch
FNDA:0,could_be_empty
FNDA:0,get_repeat_base
FNDA:0,check_char_prop
FNDA:0,get_chr_property_list
FNDA:0,compare_opcodes
FNDA:0,auto_possessify
FNDA:0,check_posix_syntax
FNDA:0,check_posix_name
FNDA:0,adjust_recurse
FNDA:0,auto_callout
FNDA:0,complete_callout
FNDA:0,get_othercase_range
FNDA:0,add_to_class
FNDA:0,add_list_to_class
FNDA:0,add_not_list_to_class
FNDA:0,compile_branch
FNDA:0,compile_regex
FNDA:0,is_anchored
FNDA:0,is_startline
FNDA:0,find_firstassertedchar
FNDA:0,add_name
FNDA:0,pcre_compile
FNDA:0,pcre_compile2
FNF:34
FNH:0
DA:897,0
DA:899,0
DA:900,0
DA:902,0
DA:903,0
DA:905,0
DA:924,0
DA:927,0
DA:929,0
DA:930,0
DA:931,0
DA:932,0
DA:934,0
DA:935,0
DA:936,0
DA:937,0
DA:938,0
DA:939,0
DA:940,0
DA:941,0
DA:942,0
DA:963,0
DA:965,0
DA:966,0
DA:967,0
DA:968,0
DA:970,0
DA:971,0
DA:973,0
DA:974,0
DA:975,0
DA:977,0
DA:1008,0
DA:1012,0
DA:1013,0
DA:1015,0
DA:1018,0
DA:1019,0
DA:1023,0
DA:1031,0
DA:1032,0
DA:1033,0
DA:1049,0
DA:1054,0
DA:1056,0
DA:1057,0
DA:1059,0
DA:1060,0
DA:1064,0
DA:1065,0
DA:1066,0
DA:1067,0
DA:1069,0
DA:1070,0
DA:1072,0
DA:1074,0
DA:1075,0
DA:1083,0
DA:1090,0
DA:1092,0
DA:1096,0
DA:1097,0
DA:1099,0
DA:1101,0
DA:1102,0
DA:1121,0
DA:1122,0
DA:1123,0
DA:1125,0
DA:1126,0
DA:1131,0
DA:1134,0
DA:1135,0
DA:1136,0
DA:1138,0
DA:1139,0
DA:1141,0
DA:1142,0
DA:1144,0
DA:1146,0
DA:1148,0
DA:1149,0
DA:1151,0
DA:1154,0
DA:1155,0
DA:1156,0
DA:1158,0
DA:1160,0
DA:1161,0
DA:1163,0
DA:1165,0
DA:1167,0
DA:1168,0
DA:1169,0
DA:1170,0
DA:1173,0
DA:1175,0
DA:1176,0
DA:1179,0
DA:1181,0
DA:1182,0
DA:1185,0
DA:1187,0
DA:1189,0
DA:1190,0
DA:1192,0
DA:1195,0
DA:1196,0
DA:1214,0
DA:1217,0
DA:1219,0
DA:1221,0
DA:1222,0
DA:1223,0
DA:1225,0
DA:1227,0
DA:1228,0
DA:1230,0
DA:1232,0
DA:1234,0
DA:1235,0
DA:1236,0
DA:1237,0
DA:1239,0
DA:1241,0
DA:1242,0
DA:1244,0
DA:1252,0
DA:1263,0
DA:1264,0
DA:1265,0
DA:1267,0
DA:1269,0
DA:1274,0
DA:1275,0
DA:1276,0
DA:1278,0
DA:1279,0
DA:1280,0
DA:1281,0
DA:1283,0
DA:1284,0
DA:1288,0
DA:1290,0
DA:1297,0
DA:1299,0
DA:1300,0
DA:1302,0
DA:1304,0
DA:1306,0
DA:1308,0
DA:1313,0
DA:1314,0
DA:1316,0
DA:1317,0
DA:1319,0
DA:1320,0
DA:1322,0
DA:1324,0
DA:1325,0
DA:1343,0
DA:1345,0
DA:1346,0
DA:1348,0
DA:1349,0
DA:1351,0
DA:1352,0
DA:1353,0
DA:1355,0
DA:1356,0
DA:1363,0
DA:1364,0
DA:1371,0
DA:1379,0
DA:1381,0
DA:1382,0
DA:1385,0
DA:1387,0
DA:1395,0
DA:1402,0
DA:1403,0
DA:1406,0
DA:1408,0
DA:1409,0
DA:1417,0
DA:1424,0
DA:1425,0
DA:1426,0
DA:1428,0
DA:1429,0
DA:1432,0
DA:1434,0
DA:1435,0
DA:1437,0
DA:1438,0
DA:1452,0
DA:1460,0
DA:1461,0
DA:1464,0
DA:1465,0
DA:1467,0
DA:1469,0
DA:1475,0
DA:1476,0
DA:1477,0
DA:1481,0
DA:1482,0
DA:1486,0
DA:1487,0
DA:1488,0
DA:1514,0
DA:1519,0
DA:1522,0
DA:1523,0
DA:1525,0
DA:1530,0
DA:1532,0
DA:1534,0
DA:1535,0
DA:1537,0
DA:1539,0
DA:1540,0
DA:1541,0
DA:1542,0
DA:1544,0
DA:1545,0
DA:1552,0
DA:1553,0
DA:1556,0
DA:1560,0
DA:1561,0
DA:1563,0
DA:1566,0
DA:1567,0
DA:1568,0
DA:1570,0
DA:1571,0
DA:1572,0
DA:1574,0
DA:1577,0
DA:1578,0
DA:1579,0
DA:1581,0
DA:1582,0
DA:1583,0
DA:1584,0
DA:1610,0
DA:1612,0
DA:1613,0
DA:1615,0
DA:1617,0
DA:1618,0
DA:1620,0
DA:1621,0
DA:1625,0
DA:1627,0
DA:1629,0
DA:1630,0
DA:1632,0
DA:1633,0
DA:1635,0
DA:1636,0
DA:1639,0
DA:1641,0
DA:1642,0
DA:1647,0
DA:1648,0
DA:1649,0
DA:1672,0
DA:1676,0
DA:1678,0
DA:1681,0
DA:1682,0
DA:1683,0
DA:1684,0
DA:1686,0
DA:1688,0
DA:1697,0
DA:1698,0
DA:1700,0
DA:1701,0
DA:1739,0
DA:1742,0
DA:1744,0
DA:1745,0
DA:1751,0
DA:1754,0
DA:1756,0
DA:1763,0
DA:1768,0
DA:1770,0
DA:1771,0
DA:1772,0
DA:1773,0
DA:1774,0
DA:1782,0
DA:1787,0
DA:1788,0
DA:1789,0
DA:1790,0
DA:1791,0
DA:1792,0
DA:1798,0
DA:1799,0
DA:1800,0
DA:1801,0
DA:1802,0
DA:1805,0
DA:1806,0
DA:1807,0
DA:1809,0
DA:1810,0
DA:1811,0
DA:1812,0
DA:1813,0
DA:1814,0
DA:1815,0
DA:1819,0
DA:1823,0
DA:1824,0
DA:1825,0
DA:1829,0
DA:1833,0
DA:1834,0
DA:1836,0
DA:1860,0
DA:1861,0
DA:1865,0
DA:1869,0
DA:1870,0
DA:1872,0
DA:1874,0
DA:1879,0
DA:1883,0
DA:1884,0
DA:1886,0
DA:1888,0
DA:1890,0
DA:1891,0
DA:1892,0
DA:1893,0
DA:1894,0
DA:1895,0
DA:1899,0
DA:1901,0
DA:1904,0
DA:1916,0
DA:1917,0
DA:1918,0
DA:1923,0
DA:1924,0
DA:1928,0
DA:1934,0
DA:1935,0
DA:1937,0
DA:1942,0
DA:1944,0
DA:1953,0
DA:1955,0
DA:1958,0
DA:1959,0
DA:1960,0
DA:1961,0
DA:1963,0
DA:1964,0
DA:1966,0
DA:1970,0
DA:2050,0
DA:2055,0
DA:2056,0
DA:2083,0
DA:2086,0
DA:2087,0
DA:2089,0
DA:2095,0
DA:2099,0
DA:2101,0
DA:2102,0
DA:2107,0
DA:2108,0
DA:2109,0
DA:2110,0
DA:2111,0
DA:2112,0
DA:2122,0
DA:2124,0
DA:2133,0
DA:2134,0
DA:2136,0
DA:2140,0
DA:2141,0
DA:2142,0
DA:2144,0
DA:2148,0
DA:2149,0
DA:2154,0
DA:2161,0
DA:2163,0
DA:2219,0
DA:2220,0
DA:2246,0
DA:2249,0
DA:2250,0
DA:2251,0
DA:2252,0
DA:2258,0
DA:2267,0
DA:2269,0
DA:2278,0
DA:2279,0
DA:2281,0
DA:2285,0
DA:2286,0
DA:2287,0
DA:2289,0
DA:2293,0
DA:2294,0
DA:2299,0
DA:2306,0
DA:2308,0
DA:2364,0
DA:2365,0
DA:2399,0
DA:2405,0
DA:2407,0
DA:2411,0
DA:2416,0
DA:2418,0
DA:2419,0
DA:2420,0
DA:2430,0
DA:2432,0
DA:2433,0
DA:2440,0
DA:2443,0
DA:2444,0
DA:2445,0
DA:2453,0
DA:2454,0
DA:2457,0
DA:2458,0
DA:2459,0
DA:2460,0
DA:2466,0
DA:2467,0
DA:2468,0
DA:2472,0
DA:2474,0
DA:2475,0
DA:2477,0
DA:2479,0
DA:2481,0
DA:2482,0
DA:2487,0
DA:2490,0
DA:2491,0
DA:2492,0
DA:2493,0
DA:2499,0
DA:2500,0
DA:2502,0
DA:2503,0
DA:2504,0
DA:2509,0
DA:2510,0
DA:2511,0
DA:2512,0
DA:2515,0
DA:2521,0
DA:2522,0
DA:2525,0
DA:2528,0
DA:2529,0
DA:2530,0
DA:2532,0
DA:2533,0
DA:2536,0
DA:2537,0
DA:2542,0
DA:2551,0
DA:2552,0
DA:2553,0
DA:2556,0
DA:2558,0
DA:2561,0
DA:2564,0
DA:2566,0
DA:2572,0
DA:2574,0
DA:2578,0
DA:2580,0
DA:2583,0
DA:2584,0
DA:2586,0
DA:2590,0
DA:2641,0
DA:2646,0
DA:2652,0
DA:2653,0
DA:2657,0
DA:2660,0
DA:2661,0
DA:2662,0
DA:2666,0
DA:2671,0
DA:2678,0
DA:2708,0
DA:2709,0
DA:2711,0
DA:2726,0
DA:2727,0
DA:2733,0
DA:2737,0
DA:2738,0
DA:2742,0
DA:2743,0
DA:2747,0
DA:2774,0
DA:2777,0
DA:2779,0
DA:2780,0
DA:2781,0
DA:2783,0
DA:2800,0
DA:2802,0
DA:2830,0
DA:2834,0
DA:2836,0
DA:2838,0
DA:2839,0
DA:2840,0
DA:2841,0
DA:2843,0
DA:2844,0
DA:2846,0
DA:2847,0
DA:2849,0
DA:2850,0
DA:2854,0
DA:2855,0
DA:2856,0
DA:2862,0
DA:2864,0
DA:2866,0
DA:2868,0
DA:2870,0
DA:2871,0
DA:2875,0
DA:2876,0
DA:2877,0
DA:2878,0
DA:2880,0
DA:2881,0
DA:2884,0
DA:2885,0
DA:2890,0
DA:2918,0
DA:2921,0
DA:2933,0
DA:2934,0
DA:2935,0
DA:2937,0
DA:2939,0
DA:2940,0
DA:2942,0
DA:2943,0
DA:2945,0
DA:2947,0
DA:2949,0
DA:2950,0
DA:2951,0
DA:2953,0
DA:2954,0
DA:2955,0
DA:2957,0
DA:2958,0
DA:2959,0
DA:2961,0
DA:2962,0
DA:2963,0
DA:2965,0
DA:2966,0
DA:2967,0
DA:2968,0
DA:2970,0
DA:2973,0
DA:2975,0
DA:2993,0
DA:2995,0
DA:2997,0
DA:2998,0
DA:2999,0
DA:3000,0
DA:3002,0
DA:3004,0
DA:3005,0
DA:3006,0
DA:3009,0
DA:3010,0
DA:3012,0
DA:3021,0
DA:3022,0
DA:3024,0
DA:3025,0
DA:3028,0
DA:3030,0
DA:3032,0
DA:3033,0
DA:3034,0
DA:3039,0
DA:3040,0
DA:3041,0
DA:3044,0
DA:3048,0
DA:3049,0
DA:3050,0
DA:3052,0
DA:3054,0
DA:3059,0
DA:3060,0
DA:3063,0
DA:3067,0
DA:3068,0
DA:3071,0
DA:3073,0
DA:3075,0
DA:3081,0
DA:3082,0
DA:3083,0
DA:3085,0
DA:3088,0
DA:3089,0
DA:3091,0
DA:3094,0
DA:3095,0
DA:3096,0
DA:3098,0
DA:3099,0
DA:3101,0
DA:3123,0
DA:3139,0
DA:3141,0
DA:3142,0
DA:3154,0
DA:3158,0
DA:3160,0
DA:3161,0
DA:3164,0
DA:3166,0
DA:3167,0
DA:3170,0
DA:3172,0
DA:3178,0
DA:3180,0
DA:3185,0
DA:3187,0
DA:3189,0
DA:3199,0
DA:3202,0
DA:3203,0
DA:3205,0
DA:3209,0
DA:3210,0
DA:3212,0
DA:3214,0
DA:3215,0
DA:3216,0
DA:3217,0
DA:3220,0
DA:3221,0
DA:3223,0
DA:3226,0
DA:3227,0
DA:3228,0
DA:3230,0
DA:3234,0
DA:3235,0
DA:3236,0
DA:3238,0
DA:3239,0
DA:3241,0
DA:3242,0
DA:3247,0
DA:3248,0
DA:3253,0
DA:3255,0
DA:3256,0
DA:3258,0
DA:3260,0
DA:3261,0
DA:3266,0
DA:3269,0
DA:3274,0
DA:3279,0
DA:3280,0
DA:3284,0
DA:3285,0
DA:3288,0
DA:3289,0
DA:3291,0
DA:3293,0
DA:3294,0
DA:3295,0
DA:3298,0
DA:3299,0
DA:3300,0
DA:3301,0
DA:3304,0
DA:3306,0
DA:3308,0
DA:3309,0
DA:3312,0
DA:3313,0
DA:3315,0
DA:3316,0
DA:3317,0
DA:3319,0
DA:3320,0
DA:3322,0
DA:3323,0
DA:3324,0
DA:3326,0
DA:3327,0
DA:3329,0
DA:3330,0
DA:3331,0
DA:3333,0
DA:3334,0
DA:3339,0
DA:3340,0
DA:3344,0
DA:3346,0
DA:3352,0
DA:3354,0
DA:3357,0
DA:3359,0
DA:3369,0
DA:3370,0
DA:3373,0
DA:3374,0
DA:3376,0
DA:3377,0
DA:3378,0
DA:3382,0
DA:3383,0
DA:3384,0
DA:3385,0
DA:3396,0
DA:3397,0
DA:3399,0
DA:3400,0
DA:3401,0
DA:3402,0
DA:3404,0
DA:3405,0
DA:3406,0
DA:3408,0
DA:3409,0
DA:3410,0
DA:3431,0
DA:3434,0
DA:3435,0
DA:3436,0
DA:3437,0
DA:3438,0
DA:3439,0
DA:3441,0
DA:3444,0
DA:3445,0
DA:3446,0
DA:3447,0
DA:3448,0
DA:3449,0
DA:3451,0
DA:3454,0
DA:3455,0
DA:3456,0
DA:3457,0
DA:3458,0
DA:3459,0
DA:3461,0
DA:3464,0
DA:3465,0
DA:3466,0
DA:3467,0
DA:3468,0
DA:3469,0
DA:3477,0
DA:3478,0
DA:3479,0
DA:3481,0
DA:3483,0
DA:3485,0
DA:3493,0
DA:3495,0
DA:3497,0
DA:3498,0
DA:3501,0
DA:3502,0
DA:3504,0
DA:3505,0
DA:3507,0
DA:3508,0
DA:3511,0
DA:3512,0
DA:3513,0
DA:3515,0
DA:3516,0
DA:3517,0
DA:3522,0
DA:3523,0
DA:3524,0
DA:3526,0
DA:3527,0
DA:3528,0
DA:3530,0
DA:3531,0
DA:3532,0
DA:3534,0
DA:3535,0
DA:3536,0
DA:3538,0
DA:3539,0
DA:3540,0
DA:3542,0
DA:3543,0
DA:3544,0
DA:3546,0
DA:3547,0
DA:3549,0
DA:3550,0
DA:3552,0
DA:3554,0
DA:3555,0
DA:3557,0
DA:3558,0
DA:3560,0
DA:3562,0
DA:3564,0
DA:3566,0
DA:3567,0
DA:3569,0
DA:3571,0
DA:3572,0
DA:3574,0
DA:3575,0
DA:3577,0
DA:3579,0
DA:3581,0
DA:3583,0
DA:3592,0
DA:3594,0
DA:3596,0
DA:3597,0
DA:3600,0
DA:3602,0
DA:3603,0
DA:3604,0
DA:3605,0
DA:3608,0
DA:3609,0
DA:3613,0
DA:3614,0
DA:3615,0
DA:3616,0
DA:3617,0
DA:3620,0
DA:3621,0
DA:3622,0
DA:3623,0
DA:3626,0
DA:3627,0
DA:3630,0
DA:3632,0
DA:3636,0
DA:3662,0
DA:3672,0
DA:3680,0
DA:3682,0
DA:3684,0
DA:3685,0
DA:3686,0
DA:3687,0
DA:3689,0
DA:3690,0
DA:3692,0
DA:3694,0
DA:3695,0
DA:3696,0
DA:3698,0
DA:3699,0
DA:3700,0
DA:3702,0
DA:3703,0
DA:3704,0
DA:3706,0
DA:3707,0
DA:3708,0
DA:3710,0
DA:3711,0
DA:3712,0
DA:3714,0
DA:3715,0
DA:3716,0
DA:3718,0
DA:3719,0
DA:3720,0
DA:3722,0
DA:3723,0
DA:3724,0
DA:3727,0
DA:3729,0
DA:3732,0
DA:3733,0
DA:3736,0
DA:3738,0
DA:3739,0
DA:3742,0
DA:3744,0
DA:3746,0
DA:3747,0
DA:3749,0
DA:3751,0
DA:3753,0
DA:3754,0
DA:3756,0
DA:3758,0
DA:3759,0
DA:3761,0
DA:3763,0
DA:3764,0
DA:3766,0
DA:3768,0
DA:3769,0
DA:3773,0
DA:3776,0
DA:3778,0
DA:3779,0
DA:3781,0
DA:3790,0
DA:3791,0
DA:3793,0
DA:3797,0
DA:3798,0
DA:3799,0
DA:3802,0
DA:3803,0
DA:3804,0
DA:3807,0
DA:3811,0
DA:3812,0
DA:3817,0
DA:3824,0
DA:3826,0
DA:3882,0
DA:3883,0
DA:3936,0
DA:3939,0
DA:3940,0
DA:3942,0
DA:3943,0
DA:3944,0
DA:3945,0
DA:3946,0
DA:3947,0
DA:3948,0
DA:3950,0
DA:3951,0
DA:3954,0
DA:3975,0
DA:3977,0
DA:3978,0
DA:3979,0
DA:3981,0
DA:3982,0
DA:3983,0
DA:3984,0
DA:3986,0
DA:4023,0
DA:4028,0
DA:4030,0
DA:4032,0
DA:4033,0
DA:4035,0
DA:4036,0
DA:4042,0
DA:4044,0
DA:4045,0
DA:4048,0
DA:4053,0
DA:4054,0
DA:4056,0
DA:4057,0
DA:4059,0
DA:4079,0
DA:4081,0
DA:4082,0
DA:4083,0
DA:4084,0
DA:4085,0
DA:4107,0
DA:4109,0
DA:4110,0
DA:4111,0
DA:4139,0
DA:4148,0
DA:4150,0
DA:4152,0
DA:4153,0
DA:4154,0
DA:4156,0
DA:4159,0
DA:4165,0
DA:4166,0
DA:4168,0
DA:4170,0
DA:4171,0
DA:4174,0
DA:4175,0
DA:4176,0
DA:4204,0
DA:4208,0
DA:4209,0
DA:4216,0
DA:4219,0
DA:4224,0
DA:4225,0
DA:4227,0
DA:4231,0
DA:4232,0
DA:4236,0
DA:4242,0
DA:4243,0
DA:4245,0
DA:4246,0
DA:4248,0
DA:4256,0
DA:4258,0
DA:4259,0
DA:4269,0
DA:4271,0
DA:4283,0
DA:4286,0
DA:4287,0
DA:4291,0
DA:4293,0
DA:4295,0
DA:4297,0
DA:4299,0
DA:4301,0
DA:4302,0
DA:4303,0
DA:4305,0
DA:4307,0
DA:4308,0
DA:4333,0
DA:4337,0
DA:4368,0
DA:4371,0
DA:4372,0
DA:4374,0
DA:4375,0
DA:4377,0
DA:4378,0
DA:4380,0
DA:4382,0
DA:4406,0
DA:4409,0
DA:4410,0
DA:4411,0
DA:4412,0
DA:4413,0
DA:4415,0
DA:4416,0
DA:4417,0
DA:4418,0
DA:4420,0
DA:4455,0
DA:4463,0
DA:4464,0
DA:4471,0
DA:4472,0
DA:4473,0
DA:4476,0
DA:4477,0
DA:4478,0
DA:4480,0
DA:4481,0
DA:4482,0
DA:4484,0
DA:4485,0
DA:4486,0
DA:4487,0
DA:4496,0
DA:4521,0
DA:4522,0
DA:4534,0
DA:4535,0
DA:4543,0
DA:4547,0
DA:4548,0
DA:4574,0
DA:4578,0
DA:4583,0
DA:4585,0
DA:4586,0
DA:4587,0
DA:4593,0
DA:4598,0
DA:4601,0
DA:4602,0
DA:4603,0
DA:4612,0
DA:4616,0
DA:4618,0
DA:4619,0
DA:4622,0
DA:4630,0
DA:4632,0
DA:4634,0
DA:4635,0
DA:4636,0
DA:4639,0
DA:4644,0
DA:4650,0
DA:4652,0
DA:4653,0
DA:4659,0
DA:4661,0
DA:4663,0
DA:4664,0
DA:4665,0
DA:4667,0
DA:4669,0
DA:4671,0
DA:4672,0
DA:4673,0
DA:4675,0
DA:4677,0
DA:4678,0
DA:4680,0
DA:4687,0
DA:4689,0
DA:4690,0
DA:4691,0
DA:4697,0
DA:4699,0
DA:4700,0
DA:4701,0
DA:4703,0
DA:4704,0
DA:4706,0
DA:4708,0
DA:4709,0
DA:4711,0
DA:4713,0
DA:4721,0
DA:4728,0
DA:4729,0
DA:4731,0
DA:4732,0
DA:4733,0
DA:4735,0
DA:4736,0
DA:4738,0
DA:4743,0
DA:4744,0
DA:4745,0
DA:4750,0
DA:4751,0
DA:4753,0
DA:4754,0
DA:4755,0
DA:4761,0
DA:4763,0
DA:4764,0
DA:4769,0
DA:4772,0
DA:4775,0
DA:4776,0
DA:4777,0
DA:4778,0
DA:4779,0
DA:4780,0
DA:4781,0
DA:4783,0
DA:4785,0
DA:4786,0
DA:4788,0
DA:4791,0
DA:4798,0
DA:4799,0
DA:4800,0
DA:4802,0
DA:4803,0
DA:4804,0
DA:4806,0
DA:4807,0
DA:4809,0
DA:4810,0
DA:4811,0
DA:4812,0
DA:4817,0
DA:4818,0
DA:4819,0
DA:4820,0
DA:4821,0
DA:4822,0
DA:4823,0
DA:4824,0
DA:4825,0
DA:4826,0
DA:4844,0
DA:4845,0
DA:4847,0
DA:4848,0
DA:4850,0
DA:4858,0
DA:4859,0
DA:4861,0
DA:4862,0
DA:4863,0
DA:4866,0
DA:4868,0
DA:4869,0
DA:4870,0
DA:4875,0
DA:4876,0
DA:4881,0
DA:4882,0
DA:4883,0
DA:4885,0
DA:4886,0
DA:4893,0
DA:4896,0
DA:4897,0
DA:4899,0
DA:4900,0
DA:4901,0
DA:4902,0
DA:4904,0
DA:4906,0
DA:4907,0
DA:4916,0
DA:4917,0
DA:4919,0
DA:4920,0
DA:4921,0
DA:4922,0
DA:4923,0
DA:4930,0
DA:4936,0
DA:4937,0
DA:4938,0
DA:4947,0
DA:4948,0
DA:4950,0
DA:4958,0
DA:4964,0
DA:4969,0
DA:4971,0
DA:4982,0
DA:4984,0
DA:4986,0
DA:4987,0
DA:4993,0
DA:4995,0
DA:4997,0
DA:4998,0
DA:4999,0
DA:5001,0
DA:5010,0
DA:5011,0
DA:5012,0
DA:5014,0
DA:5016,0
DA:5019,0
DA:5021,0
DA:5022,0
DA:5025,0
DA:5026,0
DA:5028,0
DA:5029,0
DA:5030,0
DA:5033,0
DA:5034,0
DA:5036,0
DA:5037,0
DA:5044,0
DA:5045,0
DA:5053,0
DA:5055,0
DA:5056,0
DA:5061,0
DA:5063,0
DA:5064,0
DA:5065,0
DA:5071,0
DA:5073,0
DA:5074,0
DA:5076,0
DA:5077,0
DA:5080,0
DA:5081,0
DA:5082,0
DA:5083,0
DA:5084,0
DA:5085,0
DA:5086,0
DA:5102,0
DA:5103,0
DA:5104,0
DA:5106,0
DA:5107,0
DA:5108,0
DA:5110,0
DA:5112,0
DA:5120,0
DA:5124,0
DA:5129,0
DA:5130,0
DA:5132,0
DA:5134,0
DA:5135,0
DA:5137,0
DA:5143,0
DA:5144,0
DA:5145,0
DA:5150,0
DA:5151,0
DA:5153,0
DA:5155,0
DA:5157,0
DA:5159,0
DA:5160,0
DA:5172,0
DA:5174,0
DA:5176,0
DA:5177,0
DA:5178,0
DA:5179,0
DA:5181,0
DA:5182,0
DA:5184,0
DA:5186,0
DA:5188,0
DA:5190,0
DA:5191,0
DA:5193,0
DA:5197,0
DA:5199,0
DA:5201,0
DA:5203,0
DA:5206,0
DA:5212,0
DA:5213,0
DA:5214,0
DA:5215,0
DA:5217,0
DA:5218,0
DA:5219,0
DA:5221,0
DA:5222,0
DA:5223,0
DA:5224,0
DA:5226,0
DA:5227,0
DA:5228,0
DA:5230,0
DA:5231,0
DA:5232,0
DA:5233,0
DA:5242,0
DA:5243,0
DA:5244,0
DA:5246,0
DA:5247,0
DA:5248,0
DA:5249,0
DA:5253,0
DA:5254,0
DA:5256,0
DA:5258,0
DA:5259,0
DA:5261,0
DA:5263,0
DA:5264,0
DA:5266,0
DA:5268,0
DA:5269,0
DA:5271,0
DA:5273,0
DA:5278,0
DA:5279,0
DA:5280,0
DA:5281,0
DA:5283,0
DA:5284,0
DA:5285,0
DA:5286,0
DA:5287,0
DA:5297,0
DA:5298,0
DA:5300,0
DA:5301,0
DA:5303,0
DA:5304,0
DA:5305,0
DA:5306,0
DA:5313,0
DA:5322,0
DA:5323,0
DA:5325,0
DA:5326,0
DA:5328,0
DA:5332,0
DA:5336,0
DA:5339,0
DA:5340,0
DA:5345,0
DA:5347,0
DA:5348,0
DA:5349,0
DA:5350,0
DA:5351,0
DA:5357,0
DA:5359,0
DA:5360,0
DA:5366,0
DA:5368,0
DA:5372,0
DA:5380,0
DA:5382,0
DA:5385,0
DA:5386,0
DA:5391,0
DA:5393,0
DA:5395,0
DA:5396,0
DA:5403,0
DA:5404,0
DA:5405,0
DA:5406,0
DA:5408,0
DA:5409,0
DA:5416,0
DA:5418,0
DA:5419,0
DA:5421,0
DA:5427,0
DA:5431,0
DA:5433,0
DA:5434,0
DA:5436,0
DA:5445,0
DA:5446,0
DA:5457,0
DA:5459,0
DA:5461,0
DA:5463,0
DA:5464,0
DA:5465,0
DA:5467,0
DA:5472,0
DA:5473,0
DA:5474,0
DA:5481,0
DA:5482,0
DA:5484,0
DA:5485,0
DA:5486,0
DA:5493,0
DA:5495,0
DA:5496,0
DA:5499,0
DA:5504,0
DA:5511,0
DA:5512,0
DA:5516,0
DA:5517,0
DA:5519,0
DA:5525,0
DA:5526,0
DA:5533,0
DA:5534,0
DA:5535,0
DA:5536,0
DA:5540,0
DA:5542,0
DA:5543,0
DA:5555,0
DA:5562,0
DA:5563,0
DA:5564,0
DA:5565,0
DA:5566,0
DA:5577,0
DA:5578,0
DA:5588,0
DA:5590,0
DA:5592,0
DA:5594,0
DA:5595,0
DA:5597,0
DA:5598,0
DA:5612,0
DA:5613,0
DA:5614,0
DA:5615,0
DA:5616,0
DA:5621,0
DA:5623,0
DA:5624,0
DA:5625,0
DA:5626,0
DA:5627,0
DA:5628,0
DA:5629,0
DA:5631,0
DA:5635,0
DA:5636,0
DA:5642,0
DA:5643,0
DA:5652,0
DA:5653,0
DA:5655,0
DA:5656,0
DA:5657,0
DA:5659,0
DA:5661,0
DA:5662,0
DA:5669,0
DA:5670,0
DA:5671,0
DA:5672,0
DA:5673,0
DA:5675,0
DA:5676,0
DA:5677,0
DA:5678,0
DA:5680,0
DA:5681,0
DA:5682,0
DA:5683,0
DA:5685,0
DA:5686,0
DA:5687,0
DA:5689,0
DA:5690,0
DA:5692,0
DA:5693,0
DA:5696,0
DA:5698,0
DA:5699,0
DA:5700,0
DA:5701,0
DA:5706,0
DA:5708,0
DA:5709,0
DA:5714,0
DA:5720,0
DA:5722,0
DA:5725,0
DA:5726,0
DA:5727,0
DA:5728,0
DA:5730,0
DA:5732,0
DA:5733,0
DA:5735,0
DA:5737,0
DA:5741,0
DA:5747,0
DA:5748,0
DA:5750,0
DA:5751,0
DA:5752,0
DA:5754,0
DA:5755,0
DA:5765,0
DA:5767,0
DA:5768,0
DA:5769,0
DA:5771,0
DA:5773,0
DA:5774,0
DA:5776,0
DA:5784,0
DA:5786,0
DA:5787,0
DA:5788,0
DA:5789,0
DA:5790,0
DA:5791,0
DA:5792,0
DA:5797,0
DA:5799,0
DA:5800,0
DA:5801,0
DA:5813,0
DA:5814,0
DA:5816,0
DA:5818,0
DA:5819,0
DA:5820,0
DA:5821,0
DA:5822,0
DA:5831,0
DA:5832,0
DA:5833,0
DA:5834,0
DA:5835,0
DA:5836,0
DA:5837,0
DA:5845,0
DA:5846,0
DA:5848,0
DA:5849,0
DA:5853,0
DA:5863,0
DA:5867,0
DA:5868,0
DA:5870,0
DA:5871,0
DA:5873,0
DA:5874,0
DA:5876,0
DA:5878,0
DA:5879,0
DA:5884,0
DA:5888,0
DA:5893,0
DA:5895,0
DA:5896,0
DA:5899,0
DA:5900,0
DA:5909,0
DA:5911,0
DA:5912,0
DA:5915,0
DA:5916,0
DA:5917,0
DA:5918,0
DA:5927,0
DA:5928,0
DA:5936,0
DA:5939,0
DA:5941,0
DA:5942,0
DA:5947,0
DA:5948,0
DA:5950,0
DA:5951,0
DA:5954,0
DA:5961,0
DA:5964,0
DA:5966,0
DA:5967,0
DA:5971,0
DA:5972,0
DA:5974,0
DA:5975,0
DA:5977,0
DA:5979,0
DA:5981,0
DA:5985,0
DA:5986,0
DA:5994,0
DA:5996,0
DA:5997,0
DA:6001,0
DA:6007,0
DA:6009,0
DA:6010,0
DA:6018,0
DA:6020,0
DA:6022,0
DA:6023,0
DA:6025,0
DA:6027,0
DA:6028,0
DA:6031,0
DA:6032,0
DA:6033,0
DA:6034,0
DA:6035,0
DA:6036,0
DA:6039,0
DA:6040,0
DA:6041,0
DA:6042,0
DA:6055,0
DA:6056,0
DA:6058,0
DA:6059,0
DA:6060,0
DA:6061,0
DA:6066,0
DA:6067,0
DA:6074,0
DA:6076,0
DA:6077,0
DA:6087,0
DA:6111,0
DA:6113,0
DA:6114,0
DA:6115,0
DA:6116,0
DA:6117,0
DA:6119,0
DA:6120,0
DA:6122,0
DA:6123,0
DA:6137,0
DA:6138,0
DA:6139,0
DA:6140,0
DA:6141,0
DA:6142,0
DA:6147,0
DA:6148,0
DA:6149,0
DA:6152,0
DA:6164,0
DA:6171,0
DA:6173,0
DA:6174,0
DA:6175,0
DA:6176,0
DA:6177,0
DA:6179,0
DA:6180,0
DA:6182,0
DA:6192,0
DA:6194,0
DA:6195,0
DA:6198,0
DA:6201,0
DA:6202,0
DA:6204,0
DA:6205,0
DA:6208,0
DA:6209,0
DA:6212,0
DA:6213,0
DA:6214,0
DA:6216,0
DA:6217,0
DA:6219,0
DA:6220,0
DA:6225,0
DA:6235,0
DA:6244,0
DA:6245,0
DA:6246,0
DA:6248,0
DA:6249,0
DA:6250,0
DA:6251,0
DA:6253,0
DA:6254,0
DA:6256,0
DA:6261,0
DA:6264,0
DA:6266,0
DA:6271,0
DA:6274,0
DA:6275,0
DA:6276,0
DA:6277,0
DA:6280,0
DA:6285,0
DA:6286,0
DA:6289,0
DA:6290,0
DA:6293,0
DA:6294,0
DA:6295,0
DA:6297,0
DA:6298,0
DA:6300,0
DA:6301,0
DA:6307,0
DA:6310,0
DA:6311,0
DA:6312,0
DA:6313,0
DA:6314,0
DA:6315,0
DA:6316,0
DA:6347,0
DA:6348,0
DA:6352,0
DA:6353,0
DA:6358,0
DA:6359,0
DA:6368,0
DA:6370,0
DA:6373,0
DA:6375,0
DA:6376,0
DA:6378,0
DA:6380,0
DA:6386,0
DA:6387,0
DA:6391,0
DA:6398,0
DA:6399,0
DA:6400,0
DA:6401,0
DA:6402,0
DA:6403,0
DA:6404,0
DA:6405,0
DA:6406,0
DA:6407,0
DA:6408,0
DA:6409,0
DA:6416,0
DA:6417,0
DA:6423,0
DA:6424,0
DA:6429,0
DA:6439,0
DA:6445,0
DA:6446,0
DA:6461,0
DA:6471,0
DA:6473,0
DA:6474,0
DA:6475,0
DA:6476,0
DA:6477,0
DA:6481,0
DA:6489,0
DA:6491,0
DA:6492,0
DA:6494,0
DA:6499,0
DA:6501,0
DA:6502,0
DA:6505,0
DA:6506,0
DA:6507,0
DA:6517,0
DA:6518,0
DA:6520,0
DA:6526,0
DA:6527,0
DA:6535,0
DA:6536,0
DA:6537,0
DA:6538,0
DA:6539,0
DA:6540,0
DA:6541,0
DA:6542,0
DA:6543,0
DA:6602,0
DA:6603,0
DA:6604,0
DA:6605,0
DA:6613,0
DA:6614,0
DA:6618,0
DA:6619,0
DA:6622,0
DA:6623,0
DA:6624,0
DA:6625,0
DA:6626,0
DA:6627,0
DA:6628,0
DA:6629,0
DA:6635,0
DA:6637,0
DA:6638,0
DA:6639,0
DA:6640,0
DA:6642,0
DA:6643,0
DA:6647,0
DA:6649,0
DA:6650,0
DA:6655,0
DA:6657,0
DA:6658,0
DA:6665,0
DA:6668,0
DA:6670,0
DA:6671,0
DA:6673,0
DA:6674,0
DA:6676,0
DA:6679,0
DA:6688,0
DA:6689,0
DA:6692,0
DA:6693,0
DA:6696,0
DA:6701,0
DA:6703,0
DA:6705,0
DA:6706,0
DA:6708,0
DA:6713,0
DA:6715,0
DA:6716,0
DA:6718,0
DA:6719,0
DA:6721,0
DA:6722,0
DA:6726,0
DA:6727,0
DA:6728,0
DA:6730,0
DA:6733,0
DA:6735,0
DA:6737,0
DA:6738,0
DA:6740,0
DA:6744,0
DA:6745,0
DA:6748,0
DA:6751,0
DA:6754,0
DA:6755,0
DA:6756,0
DA:6761,0
DA:6762,0
DA:6763,0
DA:6764,0
DA:6765,0
DA:6770,0
DA:6777,0
DA:6780,0
DA:6781,0
DA:6782,0
DA:6786,0
DA:6787,0
DA:6788,0
DA:6789,0
DA:6793,0
DA:6794,0
DA:6795,0
DA:6814,0
DA:6816,0
DA:6817,0
DA:6818,0
DA:6823,0
DA:6825,0
DA:6826,0
DA:6834,0
DA:6835,0
DA:6836,0
DA:6837,0
DA:6838,0
DA:6839,0
DA:6841,0
DA:6842,0
DA:6848,0
DA:6849,0
DA:6850,0
DA:6851,0
DA:6852,0
DA:6853,0
DA:6857,0
DA:6858,0
DA:6860,0
DA:6861,0
DA:6862,0
DA:6869,0
DA:6871,0
DA:6872,0
DA:6874,0
DA:6876,0
DA:6877,0
DA:6881,0
DA:6882,0
DA:6883,0
DA:6888,0
DA:6890,0
DA:6892,0
DA:6894,0
DA:6895,0
DA:6896,0
DA:6898,0
DA:6899,0
DA:6910,0
DA:6912,0
DA:6913,0
DA:6915,0
DA:6917,0
DA:6918,0
DA:6920,0
DA:6921,0
DA:6923,0
DA:6925,0
DA:6926,0
DA:6931,0
DA:6932,0
DA:6934,0
DA:6935,0
DA:6936,0
DA:6941,0
DA:6947,0
DA:6949,0
DA:6951,0
DA:6952,0
DA:6954,0
DA:6955,0
DA:6956,0
DA:6958,0
DA:6959,0
DA:6961,0
DA:6962,0
DA:6963,0
DA:6968,0
DA:6969,0
DA:6971,0
DA:6972,0
DA:6973,0
DA:6981,0
DA:6983,0
DA:6984,0
DA:6985,0
DA:6986,0
DA:6987,0
DA:6989,0
DA:6990,0
DA:6991,0
DA:6992,0
DA:6995,0
DA:6997,0
DA:6998,0
DA:6999,0
DA:7000,0
DA:7004,0
DA:7014,0
DA:7016,0
DA:7017,0
DA:7023,0
DA:7025,0
DA:7026,0
DA:7028,0
DA:7030,0
DA:7031,0
DA:7033,0
DA:7035,0
DA:7036,0
DA:7038,0
DA:7040,0
DA:7041,0
DA:7042,0
DA:7048,0
DA:7050,0
DA:7051,0
DA:7058,0
DA:7059,0
DA:7061,0
DA:7065,0
DA:7066,0
DA:7067,0
DA:7068,0
DA:7069,0
DA:7078,0
DA:7079,0
DA:7080,0
DA:7081,0
DA:7082,0
DA:7084,0
DA:7085,0
DA:7086,0
DA:7088,0
DA:7089,0
DA:7090,0
DA:7094,0
DA:7095,0
DA:7097,0
DA:7098,0
DA:7099,0
DA:7100,0
DA:7101,0
DA:7103,0
DA:7104,0
DA:7105,0
DA:7106,0
DA:7107,0
DA:7109,0
DA:7110,0
DA:7111,0
DA:7112,0
DA:7113,0
DA:7114,0
DA:7116,0
DA:7120,0
DA:7121,0
DA:7122,0
DA:7123,0
DA:7127,0
DA:7128,0
DA:7129,0
DA:7130,0
DA:7132,0
DA:7133,0
DA:7134,0
DA:7135,0
DA:7136,0
DA:7138,0
DA:7139,0
DA:7141,0
DA:7143,0
DA:7144,0
DA:7146,0
DA:7147,0
DA:7148,0
DA:7149,0
DA:7151,0
DA:7152,0
DA:7156,0
DA:7157,0
DA:7158,0
DA:7160,0
DA:7161,0
DA:7162,0
DA:7164,0
DA:7166,0
DA:7167,0
DA:7173,0
DA:7175,0
DA:7176,0
DA:7177,0
DA:7178,0
DA:7180,0
DA:7181,0
DA:7183,0
DA:7184,0
DA:7192,0
DA:7195,0
DA:7197,0
DA:7199,0
DA:7200,0
DA:7203,0
DA:7205,0
DA:7206,0
DA:7209,0
DA:7211,0
DA:7212,0
DA:7214,0
DA:7215,0
DA:7226,0
DA:7227,0
DA:7229,0
DA:7230,0
DA:7232,0
DA:7233,0
DA:7235,0
DA:7236,0
DA:7238,0
DA:7240,0
DA:7242,0
DA:7243,0
DA:7247,0
DA:7251,0
DA:7253,0
DA:7254,0
DA:7257,0
DA:7259,0
DA:7260,0
DA:7263,0
DA:7264,0
DA:7265,0
DA:7266,0
DA:7267,0
DA:7268,0
DA:7271,0
DA:7272,0
DA:7273,0
DA:7274,0
DA:7278,0
DA:7279,0
DA:7283,0
DA:7284,0
DA:7285,0
DA:7294,0
DA:7295,0
DA:7296,0
DA:7298,0
DA:7299,0
DA:7301,0
DA:7302,0
DA:7311,0
DA:7314,0
DA:7316,0
DA:7318,0
DA:7319,0
DA:7321,0
DA:7323,0
DA:7324,0
DA:7326,0
DA:7328,0
DA:7329,0
DA:7334,0
DA:7340,0
DA:7353,0
DA:7362,0
DA:7376,0
DA:7377,0
DA:7379,0
DA:7380,0
DA:7383,0
DA:7384,0
DA:7385,0
DA:7387,0
DA:7389,0
DA:7390,0
DA:7405,0
DA:7406,0
DA:7408,0
DA:7409,0
DA:7410,0
DA:7411,0
DA:7414,0
DA:7416,0
DA:7420,0
DA:7421,0
DA:7428,0
DA:7433,0
DA:7435,0
DA:7436,0
DA:7437,0
DA:7439,0
DA:7441,0
DA:7442,0
DA:7443,0
DA:7446,0
DA:7448,0
DA:7449,0
DA:7450,0
DA:7451,0
DA:7452,0
DA:7453,0
DA:7457,0
DA:7460,0
DA:7461,0
DA:7462,0
DA:7468,0
DA:7470,0
DA:7472,0
DA:7473,0
DA:7478,0
DA:7484,0
DA:7488,0
DA:7489,0
DA:7490,0
DA:7492,0
DA:7493,0
DA:7495,0
DA:7499,0
DA:7504,0
DA:7512,0
DA:7514,0
DA:7516,0
DA:7517,0
DA:7519,0
DA:7520,0
DA:7523,0
DA:7525,0
DA:7527,0
DA:7530,0
DA:7531,0
DA:7533,0
DA:7535,0
DA:7536,0
DA:7537,0
DA:7539,0
DA:7542,0
DA:7544,0
DA:7545,0
DA:7548,0
DA:7550,0
DA:7552,0
DA:7553,0
DA:7555,0
DA:7556,0
DA:7558,0
DA:7559,0
DA:7562,0
DA:7564,0
DA:7566,0
DA:7567,0
DA:7569,0
DA:7574,0
DA:7576,0
DA:7577,0
DA:7578,0
DA:7587,0
DA:7589,0
DA:7590,0
DA:7591,0
DA:7595,0
DA:7597,0
DA:7599,0
DA:7600,0
DA:7607,0
DA:7608,0
DA:7611,0
DA:7612,0
DA:7614,0
DA:7626,0
DA:7627,0
DA:7629,0
DA:7630,0
DA:7638,0
DA:7639,0
DA:7640,0
DA:7641,0
DA:7646,0
DA:7647,0
DA:7648,0
DA:7649,0
DA:7654,0
DA:7655,0
DA:7656,0
DA:7658,0
DA:7660,0
DA:7662,0
DA:7664,0
DA:7665,0
DA:7666,0
DA:7667,0
DA:7669,0
DA:7670,0
DA:7671,0
DA:7672,0
DA:7673,0
DA:7674,0
DA:7676,0
DA:7677,0
DA:7678,0
DA:7684,0
DA:7691,0
DA:7693,0
DA:7694,0
DA:7695,0
DA:7700,0
DA:7701,0
DA:7702,0
DA:7710,0
DA:7711,0
DA:7719,0
DA:7721,0
DA:7728,0
DA:7729,0
DA:7730,0
DA:7731,0
DA:7737,0
DA:7739,0
DA:7740,0
DA:7751,0
DA:7752,0
DA:7754,0
DA:7755,0
DA:7759,0
DA:7760,0
DA:7763,0
DA:7764,0
DA:7765,0
DA:7766,0
DA:7767,0
DA:7769,0
DA:7779,0
DA:7789,0
DA:7791,0
DA:7796,0
DA:7797,0
DA:7799,0
DA:7800,0
DA:7811,0
DA:7813,0
DA:7814,0
DA:7817,0
DA:7818,0
DA:7820,0
DA:7825,0
DA:7827,0
DA:7829,0
DA:7830,0
DA:7832,0
DA:7841,0
DA:7843,0
DA:7844,0
DA:7846,0
DA:7852,0
DA:7854,0
DA:7855,0
DA:7863,0
DA:7865,0
DA:7867,0
DA:7868,0
DA:7870,0
DA:7871,0
DA:7872,0
DA:7873,0
DA:7874,0
DA:7875,0
DA:7880,0
DA:7885,0
DA:7894,0
DA:7895,0
DA:7896,0
DA:7897,0
DA:7898,0
DA:7900,0
DA:7908,0
DA:7910,0
DA:7912,0
DA:7913,0
DA:7914,0
DA:7916,0
DA:7917,0
DA:7924,0
DA:7926,0
DA:7927,0
DA:7933,0
DA:7935,0
DA:7936,0
DA:7949,0
DA:7950,0
DA:7952,0
DA:7953,0
DA:7955,0
DA:7967,0
DA:7968,0
DA:7969,0
DA:7970,0
DA:7972,0
DA:7973,0
DA:7979,0
DA:7980,0
DA:7984,0
DA:7985,0
DA:7986,0
DA:7987,0
DA:7996,0
DA:8001,0
DA:8002,0
DA:8003,0
DA:8010,0
DA:8011,0
DA:8015,0
DA:8016,0
DA:8018,0
DA:8019,0
DA:8025,0
DA:8026,0
DA:8027,0
DA:8029,0
DA:8030,0
DA:8032,0
DA:8033,0
DA:8039,0
DA:8041,0
DA:8042,0
DA:8044,0
DA:8045,0
DA:8047,0
DA:8048,0
DA:8049,0
DA:8050,0
DA:8051,0
DA:8058,0
DA:8061,0
DA:8066,0
DA:8067,0
DA:8068,0
DA:8069,0
DA:8070,0
DA:8071,0
DA:8072,0
DA:8073,0
DA:8079,0
DA:8081,0
DA:8083,0
DA:8084,0
DA:8092,0
DA:8093,0
DA:8095,0
DA:8096,0
DA:8097,0
DA:8098,0
DA:8099,0
DA:8100,0
DA:8101,0
DA:8102,0
DA:8124,0
DA:8125,0
DA:8126,0
DA:8128,0
DA:8130,0
DA:8131,0
DA:8139,0
DA:8140,0
DA:8141,0
DA:8144,0
DA:8152,0
DA:8153,0
DA:8158,0
DA:8159,0
DA:8161,0
DA:8170,0
DA:8171,0
DA:8172,0
DA:8175,0
DA:8176,0
DA:8182,0
DA:8183,0
DA:8184,0
DA:8191,0
DA:8193,0
DA:8194,0
DA:8196,0
DA:8197,0
DA:8198,0
DA:8199,0
DA:8200,0
DA:8201,0
DA:8208,0
DA:8209,0
DA:8213,0
DA:8214,0
DA:8221,0
DA:8223,0
DA:8224,0
DA:8225,0
DA:8230,0
DA:8232,0
DA:8233,0
DA:8235,0
DA:8237,0
DA:8238,0
DA:8241,0
DA:8249,0
DA:8250,0
DA:8251,0
DA:8252,0
DA:8253,0
DA:8255,0
DA:8256,0
DA:8260,0
DA:8269,0
DA:8270,0
DA:8271,0
DA:8309,0
DA:8316,0
DA:8317,0
DA:8318,0
DA:8319,0
DA:8320,0
DA:8322,0
DA:8335,0
DA:8337,0
DA:8338,0
DA:8343,0
DA:8344,0
DA:8346,0
DA:8347,0
DA:8349,0
DA:8358,0
DA:8371,0
DA:8373,0
DA:8374,0
DA:8375,0
DA:8376,0
DA:8377,0
DA:8382,0
DA:8383,0
DA:8387,0
DA:8393,0
DA:8397,0
DA:8399,0
DA:8400,0
DA:8401,0
DA:8402,0
DA:8408,0
DA:8412,0
DA:8413,0
DA:8419,0
DA:8423,0
DA:8428,0
DA:8430,0
DA:8431,0
DA:8432,0
DA:8433,0
DA:8447,0
DA:8448,0
DA:8450,0
DA:8452,0
DA:8453,0
DA:8455,0
DA:8461,0
DA:8463,0
DA:8464,0
DA:8469,0
DA:8470,0
DA:8471,0
DA:8474,0
DA:8475,0
DA:8487,0
DA:8490,0
DA:8491,0
DA:8494,0
DA:8496,0
DA:8498,0
DA:8500,0
DA:8501,0
DA:8502,0
DA:8503,0
DA:8507,0
DA:8508,0
DA:8509,0
DA:8521,0
DA:8523,0
DA:8525,0
DA:8528,0
DA:8529,0
DA:8530,0
DA:8531,0
DA:8533,0
DA:8538,0
DA:8539,0
DA:8540,0
DA:8547,0
DA:8549,0
DA:8551,0
DA:8552,0
DA:8553,0
DA:8554,0
DA:8555,0
DA:8556,0
DA:8557,0
DA:8558,0
DA:8559,0
DA:8560,0
DA:8561,0
DA:8562,0
DA:8564,0
DA:8569,0
DA:8573,0
DA:8574,0
DA:8575,0
DA:8576,0
DA:8577,0
DA:8578,0
DA:8579,0
DA:8581,0
DA:8583,0
DA:8584,0
DA:8586,0
DA:8588,0
DA:8600,0
DA:8602,0
DA:8603,0
DA:8607,0
DA:8608,0
DA:8609,0
DA:8610,0
DA:8613,0
DA:8663,0
DA:8667,0
DA:8668,0
DA:8669,0
DA:8673,0
DA:8674,0
DA:8676,0
DA:8681,0
DA:8682,0
DA:8683,0
DA:8684,0
DA:8685,0
DA:8686,0
DA:8691,0
DA:8693,0
DA:8697,0
DA:8699,0
DA:8700,0
DA:8705,0
DA:8707,0
DA:8708,0
DA:8715,0
DA:8718,0
DA:8719,0
DA:8720,0
DA:8725,0
DA:8727,0
DA:8729,0
DA:8730,0
DA:8761,0
DA:8765,0
DA:8766,0
DA:8767,0
DA:8774,0
DA:8776,0
DA:8777,0
DA:8778,0
DA:8780,0
DA:8786,0
DA:8788,0
DA:8789,0
DA:8790,0
DA:8791,0
DA:8792,0
DA:8794,0
DA:8795,0
DA:8800,0
DA:8801,0
DA:8803,0
DA:8808,0
DA:8809,0
DA:8810,0
DA:8811,0
DA:8812,0
DA:8813,0
DA:8818,0
DA:8820,0
DA:8825,0
DA:8827,0
DA:8836,0
DA:8838,0
DA:8839,0
DA:8840,0
DA:8848,0
DA:8852,0
DA:8854,0
DA:8855,0
DA:8882,0
DA:8885,0
DA:8886,0
DA:8888,0
DA:8892,0
DA:8893,0
DA:8894,0
DA:8896,0
DA:8898,0
DA:8900,0
DA:8901,0
DA:8903,0
DA:8912,0
DA:8913,0
DA:8914,0
DA:8915,0
DA:8916,0
DA:8918,0
DA:8919,0
DA:8922,0
DA:8926,0
DA:8927,0
DA:8928,0
DA:8929,0
DA:8931,0
DA:8932,0
DA:8935,0
DA:8939,0
DA:8940,0
DA:8941,0
DA:8942,0
DA:8945,0
DA:8947,0
DA:8949,0
DA:8950,0
DA:8973,0
DA:8977,0
DA:8979,0
DA:8981,0
DA:8982,0
DA:8983,0
DA:8990,0
DA:8992,0
DA:8993,0
DA:8994,0
DA:8999,0
DA:9002,0
DA:9003,0
DA:9004,0
DA:9005,0
DA:9006,0
DA:9034,0
DA:9047,0
DA:9058,0
DA:9071,0
DA:9074,0
DA:9075,0
DA:9077,0
DA:9078,0
DA:9080,0
DA:9086,0
DA:9104,0
DA:9110,0
DA:9112,0
DA:9113,0
DA:9116,0
DA:9117,0
DA:9121,0
DA:9123,0
DA:9124,0
DA:9127,0
DA:9131,0
DA:9132,0
DA:9133,0
DA:9134,0
DA:9135,0
DA:9139,0
DA:9141,0
DA:9142,0
DA:9147,0
DA:9152,0
DA:9154,0
DA:9155,0
DA:9157,0
DA:9158,0
DA:9165,0
DA:9166,0
DA:9177,0
DA:9178,0
DA:9179,0
DA:9180,0
DA:9181,0
DA:9182,0
DA:9183,0
DA:9184,0
DA:9186,0
DA:9188,0
DA:9189,0
DA:9190,0
DA:9192,0
DA:9193,0
DA:9195,0
DA:9196,0
DA:9198,0
DA:9199,0
DA:9201,0
DA:9202,0
DA:9205,0
DA:9207,0
DA:9208,0
DA:9209,0
DA:9211,0
DA:9212,0
DA:9214,0
DA:9215,0
DA:9217,0
DA:9218,0
DA:9220,0
DA:9221,0
DA:9224,0
DA:9225,0
DA:9226,0
DA:9227,0
DA:9228,0
DA:9229,0
DA:9230,0
DA:9231,0
DA:9232,0
DA:9233,0
DA:9235,0
DA:9236,0
DA:9237,0
DA:9238,0
DA:9240,0
DA:9241,0
DA:9242,0
DA:9243,0
DA:9244,0
DA:9248,0
DA:9249,0
DA:9251,0
DA:9252,0
DA:9261,0
DA:9262,0
DA:9265,0
DA:9271,0
DA:9293,0
DA:9296,0
DA:9297,0
DA:9304,0
DA:9306,0
DA:9307,0
DA:9308,0
DA:9309,0
DA:9310,0
DA:9311,0
DA:9312,0
DA:9313,0
DA:9316,0
DA:9318,0
DA:9320,0
DA:9322,0
DA:9326,0
DA:9327,0
DA:9329,0
DA:9330,0
DA:9331,0
DA:9335,0
DA:9336,0
DA:9344,0
DA:9345,0
DA:9362,0
DA:9363,0
DA:9364,0
DA:9365,0
DA:9366,0
DA:9367,0
DA:9368,0
DA:9369,0
DA:9370,0
DA:9371,0
DA:9372,0
DA:9373,0
DA:9374,0
DA:9375,0
DA:9376,0
DA:9377,0
DA:9378,0
DA:9379,0
DA:9380,0
DA:9381,0
DA:9382,0
DA:9383,0
DA:9391,0
DA:9392,0
DA:9393,0
DA:9395,0
DA:9398,0
DA:9403,0
DA:9405,0
DA:9406,0
DA:9413,0
DA:9414,0
DA:9418,0
DA:9419,0
DA:9421,0
DA:9422,0
DA:9431,0
DA:9432,0
DA:9433,0
DA:9434,0
DA:9435,0
DA:9436,0
DA:9437,0
DA:9438,0
DA:9439,0
DA:9440,0
DA:9441,0
DA:9442,0
DA:9443,0
DA:9444,0
DA:9448,0
DA:9458,0
DA:9459,0
DA:9460,0
DA:9461,0
DA:9462,0
DA:9463,0
DA:9464,0
DA:9465,0
DA:9466,0
DA:9467,0
DA:9468,0
DA:9469,0
DA:9470,0
DA:9471,0
DA:9472,0
DA:9477,0
DA:9479,0
DA:9480,0
DA:9481,0
DA:9482,0
DA:9483,0
DA:9484,0
DA:9485,0
DA:9492,0
DA:9493,0
DA:9494,0
DA:9495,0
DA:9497,0
DA:9498,0
DA:9499,0
DA:9500,0
DA:9502,0
DA:9504,0
DA:9505,0
DA:9510,0
DA:9515,0
DA:9518,0
DA:9531,0
DA:9533,0
DA:9534,0
DA:9535,0
DA:9538,0
DA:9539,0
DA:9544,0
DA:9546,0
DA:9547,0
DA:9550,0
DA:9551,0
DA:9553,0
DA:9554,0
DA:9556,0
DA:9557,0
DA:9564,0
DA:9565,0
DA:9566,0
DA:9571,0
DA:9580,0
DA:9582,0
DA:9583,0
DA:9594,0
DA:9596,0
DA:9603,0
DA:9605,0
DA:9607,0
DA:9610,0
DA:9611,0
DA:9612,0
DA:9613,0
DA:9615,0
DA:9617,0
DA:9619,0
DA:9620,0
DA:9621,0
DA:9623,0
DA:9624,0
DA:9626,0
DA:9632,0
DA:9634,0
DA:9635,0
DA:9636,0
DA:9637,0
DA:9638,0
DA:9639,0
DA:9640,0
DA:9654,0
DA:9656,0
DA:9659,0
DA:9660,0
DA:9661,0
DA:9664,0
DA:9670,0
DA:9686,0
DA:9687,0
DA:9688,0
DA:9691,0
DA:9694,0
DA:9702,0
DA:9703,0
DA:9706,0
DA:9712,0
DA:9728,0
DA:9729,0
DA:9732,0
DA:9788,0
DA:9790,0
DA:9791,0
DA:9793,0
DA:9795,0
DA:9798,0
LF:3066
LH:0
end_of_record
TN:
SF:/home/vera/poco/Foundation/include/Poco/Ascii.h
FN:127,_ZN4Poco5Ascii10propertiesEi
FN:136,_ZN4Poco5Ascii7isAsciiEi
FN:148,_ZN4Poco5Ascii17hasSomePropertiesEii
FN:184,_ZN4Poco5Ascii14isAlphaNumericEi
FNDA:0,_ZN4Poco5Ascii10propertiesEi
FNDA:0,_ZN4Poco5Ascii7isAsciiEi
FNDA:0,_ZN4Poco5Ascii17hasSomePropertiesEii
FNDA:0,_ZN4Poco5Ascii14isAlphaNumericEi
FNF:4
FNH:0
DA:127,0
DA:129,0
DA:130,0
DA:132,0
DA:136,0
DA:138,0
DA:148,0
DA:150,0
DA:184,0
DA:186,0
LF:10
LH:0
end_of_record
SF:/home/vera/poco/Foundation/include/Poco/Path.h
FN:394,_ZNK4Poco4Path10isAbsoluteEv
FN:418,_ZN4Poco4Path5parseERKNSt7__cxx1112basic_stringIcSt11char_traitsIcESaIcEEE
FN:424,_ZN4Poco4Path5parseERKNSt7__cxx1112basic_stringIcSt11char_traitsIcESaIcEEENS0_5StyleE
FN:448,_ZNK4Poco4Path5depthEv
FN:486,_ZN4Poco4Path13pathSeparatorEv
FNDA:0,_ZNK4Poco4Path10isAbsoluteEv
FNDA:0,_ZN4Poco4Path5parseERKNSt7__cxx1112basic_stringIcSt11char_traitsIcESaIcEEE
FNDA:0,_ZN4Poco4Path5parseERKNSt7__cxx1112basic_stringIcSt11char_traitsIcESaIcEEENS0_5StyleE
FNDA:0,_ZNK4Poco4Path5depthEv
FNDA:0,_ZN4Poco4Path13pathSeparatorEv
FNF:5
FNH:0
DA:394,0
DA:396,0
DA:418,0
DA:420,0
DA:424,0
DA:426,0
DA:448,0
DA:450,0
DA:486,0
DA:493,0
LF:10
LH:0
end_of_record
SF:/home/vera/poco/Foundation/include/Poco/StringTokenizer.h
FN:97,_ZNK4Poco15StringTokenizer5beginB5cxx11Ev
FN:103,_ZNK4Poco15StringTokenizer3endB5cxx11Ev
FNDA:0,_ZNK4Poco15StringTokenizer5beginB5cxx11Ev
FNDA:0,_ZNK4Poco15StringTokenizer3endB5cxx11Ev
FNF:2
FNH:0
DA:97,0
DA:99,0
DA:103,0
DA:105,0
LF:4
LH:0
end_of_record
SF:/home/vera/poco/Foundation/src/Path.cpp
FN:40,_ZN4Poco4PathC2Ev
FN:45,_ZN4Poco4PathC2Eb
FN:50,_ZN4Poco4PathC2ERKNSt7__cxx1112basic_stringIcSt11char_traitsIcESaIcEEE
FN:56,_ZN4Poco4PathC2ERKNSt7__cxx1112basic_stringIcSt11char_traitsIcESaIcEEENS0_5StyleE
FN:62,_ZN4Poco4PathC2EPKc
FN:69,_ZN4Poco4PathC2EPKcNS0_5StyleE
FN:76,_ZN4Poco4PathC2ERKS0_
FN:87,_ZN4Poco4PathC2EOS0_
FN:98,_ZN4Poco4PathC2ERKS0_RKNSt7__cxx1112basic_stringIcSt11char_traitsIcESaIcEEE
FN:111,_ZN4Poco4PathC2ERKS0_PKc
FN:124,_ZN4Poco4PathC2ERKS0_S2_
FN:136,_ZN4Poco4PathD2Ev
FN:141,_ZN4Poco4PathaSERKS0_
FN:147,_ZN4Poco4PathaSEOS0_
FN:159,_ZN4Poco4PathaSERKNSt7__cxx1112basic_stringIcSt11char_traitsIcESaIcEEE
FN:165,_ZN4Poco4PathaSEPKc
FN:172,_ZN4Poco4Path4swapERS0_
FN:183,_ZN4Poco4Path6assignERKS0_
FN:198,_ZN4Poco4Path6assignERKNSt7__cxx1112basic_stringIcSt11char_traitsIcESaIcEEE
FN:209,_ZN4Poco4Path6assignERKNSt7__cxx1112basic_stringIcSt11char_traitsIcESaIcEEENS0_5StyleE
FN:235,_ZN4Poco4Path6assignEPKc
FN:241,_ZNK4Poco4Path8toStringB5cxx11Ev
FN:251,_ZNK4Poco4Path8toStringB5cxx11ENS0_5StyleE
FN:271,_ZN4Poco4Path8tryParseERKNSt7__cxx1112basic_stringIcSt11char_traitsIcESaIcEEE
FN:287,_ZN4Poco4Path8tryParseERKNSt7__cxx1112basic_stringIcSt11char_traitsIcESaIcEEENS0_5StyleE
FN:303,_ZN4Poco4Path14parseDirectoryERKNSt7__cxx1112basic_stringIcSt11char_traitsIcESaIcEEE
FN:310,_ZN4Poco4Path14parseDirectoryERKNSt7__cxx1112basic_stringIcSt11char_traitsIcESaIcEEENS0_5StyleE
FN:317,_ZN4Poco4Path13makeDirectoryEv
FN:326,_ZN4Poco4Path8makeFileEv
FN:337,_ZN4Poco4Path12makeAbsoluteEv
FN:343,_ZN4Poco4Path12makeAbsoluteERKS0_
FN:362,_ZNK4Poco4Path8absoluteEv
FN:373,_ZNK4Poco4Path8absoluteERKS0_
FN:384,_ZNK4Poco4Path6parentEv
FN:391,_ZN4Poco4Path10makeParentEv
FN:417,_ZN4Poco4Path6appendERKS0_
FN:427,_ZN4Poco4Path7resolveERKS0_
FN:443,_ZN4Poco4Path7setNodeERKNSt7__cxx1112basic_stringIcSt11char_traitsIcESaIcEEE
FN:451,_ZN4Poco4Path9setDeviceERKNSt7__cxx1112basic_stringIcSt11char_traitsIcESaIcEEE
FN:459,_ZNK4Poco4Path9directoryB5cxx11Ei
FN:470,_ZNK4Poco4PathixB5cxx11Ei
FN:481,_ZN4Poco4Path13pushDirectoryERKNSt7__cxx1112basic_stringIcSt11char_traitsIcESaIcEEE
FN:498,_ZN4Poco4Path12popDirectoryEv
FN:507,_ZN4Poco4Path17popFrontDirectoryEv
FN:517,_ZN4Poco4Path11setFileNameERKNSt7__cxx1112basic_stringIcSt11char_traitsIcESaIcEEE
FN:524,_ZN4Poco4Path11setBaseNameERKNSt7__cxx1112basic_stringIcSt11char_traitsIcESaIcEEE
FN:537,_ZNK4Poco4Path11getBaseNameB5cxx11Ev
FN:547,_ZN4Poco4Path12setExtensionERKNSt7__cxx1112basic_stringIcSt11char_traitsIcESaIcEEE
FN:559,_ZNK4Poco4Path12getExtensionB5cxx11Ev
FN:569,_ZN4Poco4Path5clearEv
FN:581,_ZN4Poco4Path7currentB5cxx11Ev
FN:587,_ZN4Poco4Path4homeB5cxx11Ev
FN:593,_ZN4Poco4Path10configHomeB5cxx11Ev
FN:603,_ZN4Poco4Path8dataHomeB5cxx11Ev
FN:613,_ZN4Poco4Path8tempHomeB5cxx11Ev
FN:623,_ZN4Poco4Path9cacheHomeB5cxx11Ev
FN:633,_ZN4Poco4Path4tempB5cxx11Ev
FN:639,_ZN4Poco4Path6configB5cxx11Ev
FN:649,_ZN4Poco4Path4nullB5cxx11Ev
FN:655,_ZN4Poco4Path6expandERKNSt7__cxx1112basic_stringIcSt11char_traitsIcESaIcEEE
FN:661,_ZN4Poco4Path9listRootsERSt6vectorINSt7__cxx1112basic_stringIcSt11char_traitsIcESaIcEEESaIS7_EE
FN:667,_ZN4Poco4Path4findEN9__gnu_cxx17__normal_iteratorIPKNSt7__cxx1112basic_stringIcSt11char_traitsIcESaIcEEESt6vectorIS8_SaIS8_EEEESE_RS9_RS0_
FN:695,_ZN4Poco4Path4findERKNSt7__cxx1112basic_stringIcSt11char_traitsIcESaIcEEES8_RS0_
FN:702,_ZN4Poco4Path9parseUnixERKNSt7__cxx1112basic_stringIcSt11char_traitsIcESaIcEEE
FN:754,_ZN4Poco4Path12parseWindowsERKNSt7__cxx1112basic_stringIcSt11char_traitsIcESaIcEEE
FN:800,_ZN4Poco4Path8parseVMSERKNSt7__cxx1112basic_stringIcSt11char_traitsIcESaIcEEE
FN:920,_ZN4Poco4Path10parseGuessERKNSt7__cxx1112basic_stringIcSt11char_traitsIcESaIcEEE
FN:975,_ZNK4Poco4Path9buildUnixB5cxx11Ev
FN:998,_ZNK4Poco4Path12buildWindowsB5cxx11Ev
FN:1026,_ZNK4Poco4Path8buildVMSB5cxx11Ev
FN:1065,_ZN4Poco4Path9transcodeERKNSt7__cxx1112basic_stringIcSt11char_traitsIcESaIcEEE
FN:1085,_Z41__static_initialization_and_destruction_0ii
FN:1085,_GLOBAL__sub_I_Path.cpp
FNDA:0,_ZN4Poco4PathC2Ev
FNDA:0,_ZN4Poco4PathC2Eb
FNDA:0,_ZN4Poco4PathC2ERKNSt7__cxx1112basic_stringIcSt11char_traitsIcESaIcEEE
FNDA:0,_ZN4Poco4PathC2ERKNSt7__cxx1112basic_stringIcSt11char_traitsIcESaIcEEENS0_5StyleE
FNDA:0,_ZN4Poco4PathC2EPKc
FNDA:0,_ZN4Poco4PathC2EPKcNS0_5StyleE
FNDA:0,_ZN4Poco4PathC2ERKS0_
FNDA:0,_ZN4Poco4PathC2EOS0_
FNDA:0,_ZN4Poco4PathC2ERKS0_RKNSt7__cxx1112basic_stringIcSt11char_traitsIcESaIcEEE
FNDA:0,_ZN4Poco4PathC2ERKS0_PKc
FNDA:0,_ZN4Poco4PathC2ERKS0_S2_
FNDA:0,_ZN4Poco4PathD2Ev
FNDA:0,_ZN4Poco4PathaSERKS0_
FNDA:0,_ZN4Poco4PathaSEOS0_
FNDA:0,_ZN4Poco4PathaSERKNSt7__cxx1112basic_stringIcSt11char_traitsIcESaIcEEE
FNDA:0,_ZN4Poco4PathaSEPKc
FNDA:0,_ZN4Poco4Path4swapERS0_
FNDA:0,_ZN4Poco4Path6assignERKS0_
FNDA:0,_ZN4Poco4Path6assignERKNSt7__cxx1112basic_stringIcSt11char_traitsIcESaIcEEE
FNDA:0,_ZN4Poco4Path6assignERKNSt7__cxx1112basic_stringIcSt11char_traitsIcESaIcEEENS0_5StyleE
FNDA:0,_ZN4Poco4Path6assignEPKc
FNDA:0,_ZNK4Poco4Path8toStringB5cxx11Ev
FNDA:0,_ZNK4Poco4Path8toStringB5cxx11ENS0_5StyleE
FNDA:0,_ZN4Poco4Path8tryParseERKNSt7__cxx1112basic_stringIcSt11char_traitsIcESaIcEEE
FNDA:0,_ZN4Poco4Path8tryParseERKNSt7__cxx1112basic_stringIcSt11char_traitsIcESaIcEEENS0_5StyleE
FNDA:0,_ZN4Poco4Path14parseDirectoryERKNSt7__cxx1112basic_stringIcSt11char_traitsIcESaIcEEE
FNDA:0,_ZN4Poco4Path14parseDirectoryERKNSt7__cxx1112basic_stringIcSt11char_traitsIcESaIcEEENS0_5StyleE
FNDA:0,_ZN4Poco4Path13makeDirectoryEv
FNDA:0,_ZN4Poco4Path8makeFileEv
FNDA:0,_ZN4Poco4Path12makeAbsoluteEv
FNDA:0,_ZN4Poco4Path12makeAbsoluteERKS0_
FNDA:0,_ZNK4Poco4Path8absoluteEv
FNDA:0,_ZNK4Poco4Path8absoluteERKS0_
FNDA:0,_ZNK4Poco4Path6parentEv
FNDA:0,_ZN4Poco4Path10makeParentEv
FNDA:0,_ZN4Poco4Path6appendERKS0_
FNDA:0,_ZN4Poco4Path7resolveERKS0_
FNDA:0,_ZN4Poco4Path7setNodeERKNSt7__cxx1112basic_stringIcSt11char_traitsIcESaIcEEE
FNDA:0,_ZN4Poco4Path9setDeviceERKNSt7__cxx1112basic_stringIcSt11char_traitsIcESaIcEEE
FNDA:0,_ZNK4Poco4Path9directoryB5cxx11Ei
FNDA:0,_ZNK4Poco4PathixB5cxx11Ei
FNDA:0,_ZN4Poco4Path13pushDirectoryERKNSt7__cxx1112basic_stringIcSt11char_traitsIcESaIcEEE
FNDA:0,_ZN4Poco4Path12popDirectoryEv
FNDA:0,_ZN4Poco4Path17popFrontDirectoryEv
FNDA:0,_ZN4Poco4Path11setFileNameERKNSt7__cxx1112basic_stringIcSt11char_traitsIcESaIcEEE
FNDA:0,_ZN4Poco4Path11setBaseNameERKNSt7__cxx1112basic_stringIcSt11char_traitsIcESaIcEEE
FNDA:0,_ZNK4Poco4Path11getBaseNameB5cxx11Ev
FNDA:0,_ZN4Poco4Path12setExtensionERKNSt7__cxx1112basic_stringIcSt11char_traitsIcESaIcEEE
FNDA:0,_ZNK4Poco4Path12getExtensionB5cxx11Ev
FNDA:0,_ZN4Poco4Path5clearEv
FNDA:0,_ZN4Poco4Path7currentB5cxx11Ev
FNDA:0,_ZN4Poco4Path4homeB5cxx11Ev
FNDA:0,_ZN4Poco4Path10configHomeB5cxx11Ev
FNDA:0,_ZN4Poco4Path8dataHomeB5cxx11Ev
FNDA:0,_ZN4Poco4Path8tempHomeB5cxx11Ev
FNDA:0,_ZN4Poco4Path9cacheHomeB5cxx11Ev
FNDA:0,_ZN4Poco4Path4tempB5cxx11Ev
FNDA:0,_ZN4Poco4Path6configB5cxx11Ev
FNDA:0,_ZN4Poco4Path4nullB5cxx11Ev
FNDA:0,_ZN4Poco4Path6expandERKNSt7__cxx1112basic_stringIcSt11char_traitsIcESaIcEEE
FNDA:0,_ZN4Poco4Path9listRootsERSt6vectorINSt7__cxx1112basic_stringIcSt11char_traitsIcESaIcEEESaIS7_EE
FNDA:0,_ZN4Poco4Path4findEN9__gnu_cxx17__normal_iteratorIPKNSt7__cxx1112basic_stringIcSt11char_traitsIcESaIcEEESt6vectorIS8_SaIS8_EEEESE_RS9_RS0_
FNDA:0,_ZN4Poco4Path4findERKNSt7__cxx1112basic_stringIcSt11char_traitsIcESaIcEEES8_RS0_
FNDA:0,_ZN4Poco4Path9parseUnixERKNSt7__cxx1112basic_stringIcSt11char_traitsIcESaIcEEE
FNDA:0,_ZN4Poco4Path12parseWindowsERKNSt7__cxx1112basic_stringIcSt11char_traitsIcESaIcEEE
FNDA:0,_ZN4Poco4Path8parseVMSERKNSt7__cxx1112basic_stringIcSt11char_traitsIcESaIcEEE
FNDA:0,_ZN4Poco4Path10parseGuessERKNSt7__cxx1112basic_stringIcSt11char_traitsIcESaIcEEE
FNDA:0,_ZNK4Poco4Path9buildUnixB5cxx11Ev
FNDA:0,_ZNK4Poco4Path12buildWindowsB5cxx11Ev
FNDA:0,_ZNK4Poco4Path8buildVMSB5cxx11Ev
FNDA:0,_ZN4Poco4Path9transcodeERKNSt7__cxx1112basic_stringIcSt11char_traitsIcESaIcEEE
FNDA:1,_GLOBAL__sub_I_Path.cpp
FNDA:1,_Z41__static_initialization_and_destruction_0ii
FNF:73
FNH:2
DA:40,0
DA:42,0
DA:45,0
DA:47,0
DA:50,0
DA:52,0
DA:53,0
DA:56,0
DA:58,0
DA:59,0
DA:62,0
DA:64,0
DA:65,0
DA:66,0
DA:69,0
DA:71,0
DA:72,0
DA:73,0
DA:76,0
DA:82,0
DA:84,0
DA:87,0
DA:88,0
DA:89,0
DA:90,0
DA:91,0
DA:92,0
DA:93,0
DA:95,0
DA:98,0
DA:104,0
DA:106,0
DA:107,0
DA:108,0
DA:111,0
DA:117,0
DA:119,0
DA:120,0
DA:121,0
DA:124,0
DA:130,0
DA:132,0
DA:133,0
DA:136,0
DA:138,0
DA:141,0
DA:143,0
DA:147,0
DA:149,0
DA:150,0
DA:151,0
DA:152,0
DA:153,0
DA:154,0
DA:155,0
DA:159,0
DA:161,0
DA:165,0
DA:167,0
DA:168,0
DA:172,0
DA:174,0
DA:175,0
DA:176,0
DA:177,0
DA:178,0
DA:179,0
DA:180,0
DA:183,0
DA:185,0
DA:187,0
DA:188,0
DA:189,0
DA:190,0
DA:191,0
DA:192,0
DA:194,0
DA:198,0
DA:203,0
DA:205,0
DA:209,0
DA:211,0
DA:213,0
DA:214,0
DA:215,0
DA:216,0
DA:217,0
DA:218,0
DA:219,0
DA:220,0
DA:221,0
DA:222,0
DA:223,0
DA:224,0
DA:225,0
DA:226,0
DA:227,0
DA:228,0
DA:229,0
DA:231,0
DA:235,0
DA:237,0
DA:241,0
DA:246,0
DA:251,0
DA:253,0
DA:255,0
DA:256,0
DA:257,0
DA:258,0
DA:259,0
DA:260,0
DA:261,0
DA:263,0
DA:264,0
DA:265,0
DA:267,0
DA:271,0
DA:275,0
DA:276,0
DA:277,0
DA:278,0
DA:280,0
DA:282,0
DA:287,0
DA:291,0
DA:292,0
DA:293,0
DA:294,0
DA:296,0
DA:298,0
DA:303,0
DA:305,0
DA:306,0
DA:310,0
DA:312,0
DA:313,0
DA:317,0
DA:319,0
DA:320,0
DA:321,0
DA:322,0
DA:326,0
DA:328,0
DA:330,0
DA:331,0
DA:333,0
DA:337,0
DA:339,0
DA:343,0
DA:345,0
DA:347,0
DA:348,0
DA:349,0
DA:351,0
DA:353,0
DA:354,0
DA:355,0
DA:356,0
DA:358,0
DA:362,0
DA:364,0
DA:365,0
DA:367,0
DA:369,0
DA:373,0
DA:375,0
DA:376,0
DA:378,0
DA:380,0
DA:384,0
DA:386,0
DA:387,0
DA:391,0
DA:393,0
DA:395,0
DA:397,0
DA:398,0
DA:402,0
DA:403,0
DA:405,0
DA:410,0
DA:411,0
DA:413,0
DA:417,0
DA:419,0
DA:420,0
DA:421,0
DA:422,0
DA:423,0
DA:427,0
DA:429,0
DA:431,0
DA:435,0
DA:436,0
DA:437,0
DA:439,0
DA:443,0
DA:445,0
DA:446,0
DA:447,0
DA:451,0
DA:453,0
DA:454,0
DA:455,0
DA:459,0
DA:461,0
DA:463,0
DA:464,0
DA:466,0
DA:470,0
DA:472,0
DA:474,0
DA:475,0
DA:477,0
DA:481,0
DA:483,0
DA:485,0
DA:487,0
DA:488,0
DA:489,0
DA:490,0
DA:492,0
DA:494,0
DA:498,0
DA:500,0
DA:502,0
DA:503,0
DA:507,0
DA:509,0
DA:511,0
DA:512,0
DA:513,0
DA:517,0
DA:519,0
DA:520,0
DA:524,0
DA:526,0
DA:527,0
DA:528,0
DA:530,0
DA:531,0
DA:533,0
DA:537,0
DA:539,0
DA:540,0
DA:541,0
DA:543,0
DA:547,0
DA:549,0
DA:550,0
DA:552,0
DA:553,0
DA:555,0
DA:559,0
DA:561,0
DA:562,0
DA:563,0
DA:565,0
DA:569,0
DA:571,0
DA:572,0
DA:573,0
DA:574,0
DA:575,0
DA:576,0
DA:577,0
DA:581,0
DA:583,0
DA:587,0
DA:589,0
DA:593,0
DA:596,0
DA:603,0
DA:606,0
DA:613,0
DA:616,0
DA:623,0
DA:626,0
DA:633,0
DA:635,0
DA:639,0
DA:642,0
DA:649,0
DA:651,0
DA:655,0
DA:657,0
DA:661,0
DA:663,0
DA:664,0
DA:667,0
DA:669,0
DA:679,0
DA:681,0
DA:682,0
DA:683,0
DA:684,0
DA:686,0
DA:687,0
DA:689,0
DA:691,0
DA:695,0
DA:697,0
DA:698,0
DA:702,0
DA:704,0
DA:706,0
DA:707,0
DA:709,0
DA:711,0
DA:713,0
DA:715,0
DA:717,0
DA:718,0
DA:720,0
DA:721,0
DA:722,0
DA:724,0
DA:727,0
DA:729,0
DA:730,0
DA:731,0
DA:733,0
DA:735,0
DA:737,0
DA:738,0
DA:742,0
DA:745,0
DA:747,0
DA:748,0
DA:751,0
DA:754,0
DA:756,0
DA:758,0
DA:759,0
DA:761,0
DA:763,0
DA:764,0
DA:766,0
DA:767,0
DA:768,0
DA:770,0
DA:772,0
DA:773,0
DA:775,0
DA:776,0
DA:777,0
DA:778,0
DA:779,0
DA:780,0
DA:782,0
DA:784,0
DA:786,0
DA:787,0
DA:788,0
DA:789,0
DA:791,0
DA:792,0
DA:795,0
DA:796,0
DA:797,0
DA:800,0
DA:802,0
DA:804,0
DA:805,0
DA:807,0
DA:809,0
DA:810,0
DA:811,0
DA:813,0
DA:815,0
DA:816,0
DA:818,0
DA:819,0
DA:821,0
DA:822,0
DA:823,0
DA:825,0
DA:827,0
DA:829,0
DA:830,0
DA:832,0
DA:834,0
DA:835,0
DA:836,0
DA:837,0
DA:842,0
DA:844,0
DA:846,0
DA:847,0
DA:849,0
DA:850,0
DA:851,0
DA:852,0
DA:853,0
DA:854,0
DA:856,0
DA:857,0
DA:858,0
DA:860,0
DA:861,0
DA:863,0
DA:865,0
DA:866,0
DA:868,0
DA:870,0
DA:872,0
DA:874,0
DA:875,0
DA:876,0
DA:878,0
DA:879,0
DA:880,0
DA:881,0
DA:882,0
DA:884,0
DA:885,0
DA:886,0
DA:888,0
DA:889,0
DA:891,0
DA:893,0
DA:894,0
DA:896,0
DA:898,0
DA:900,0
DA:901,0
DA:904,0
DA:906,0
DA:908,0
DA:909,0
DA:911,0
DA:912,0
DA:915,0
DA:917,0
DA:920,0
DA:922,0
DA:923,0
DA:924,0
DA:925,0
DA:926,0
DA:927,0
DA:928,0
DA:929,0
DA:931,0
DA:933,0
DA:935,0
DA:936,0
DA:937,0
DA:938,0
DA:939,0
DA:943,0
DA:945,0
DA:947,0
DA:949,0
DA:953,0
DA:954,0
DA:956,0
DA:957,0
DA:958,0
DA:960,0
DA:962,0
DA:964,0
DA:967,0
DA:968,0
DA:970,0
DA:972,0
DA:975,0
DA:977,0
DA:978,0
DA:980,0
DA:981,0
DA:982,0
DA:984,0
DA:986,0
DA:988,0
DA:990,0
DA:991,0
DA:993,0
DA:994,0
DA:998,0
DA:1000,0
DA:1001,0
DA:1003,0
DA:1004,0
DA:1005,0
DA:1007,0
DA:1009,0
DA:1010,0
DA:1012,0
DA:1014,0
DA:1016,0
DA:1018,0
DA:1019,0
DA:1021,0
DA:1022,0
DA:1026,0
DA:1028,0
DA:1029,0
DA:1031,0
DA:1032,0
DA:1034,0
DA:1036,0
DA:1037,0
DA:1039,0
DA:1041,0
DA:1042,0
DA:1043,0
DA:1044,0
DA:1046,0
DA:1047,0
DA:1048,0
DA:1049,0
DA:1051,0
DA:1053,0
DA:1055,0
DA:1056,0
DA:1058,0
DA:1059,0
DA:1061,0
DA:1065,0
DA:1081,0
DA:1085,3
LF:523
LH:1
end_of_record
SF:/home/vera/poco/Foundation/src/Path_UNIX.cpp
FN:36,_ZN4Poco8PathImpl11currentImplB5cxx11Ev
FN:50,_ZN4Poco8PathImpl8homeImplB5cxx11Ev
FN:90,_ZN4Poco8PathImpl14configHomeImplB5cxx11Ev
FN:117,_ZN4Poco8PathImpl12dataHomeImplB5cxx11Ev
FN:144,_ZN4Poco8PathImpl13cacheHomeImplB5cxx11Ev
FN:171,_ZN4Poco8PathImpl12tempHomeImplB5cxx11Ev
FN:190,_ZN4Poco8PathImpl8tempImplB5cxx11Ev
FN:208,_ZN4Poco8PathImpl10configImplB5cxx11Ev
FN:221,_ZN4Poco8PathImpl8nullImplB5cxx11Ev
FN:231,_ZN4Poco8PathImpl10expandImplERKNSt7__cxx1112basic_stringIcSt11char_traitsIcESaIcEEE
FN:296,_ZN4Poco8PathImpl13listRootsImplERSt6vectorINSt7__cxx1112basic_stringIcSt11char_traitsIcESaIcEEESaIS7_EE
FNDA:0,_ZN4Poco8PathImpl11currentImplB5cxx11Ev
FNDA:0,_ZN4Poco8PathImpl8homeImplB5cxx11Ev
FNDA:0,_ZN4Poco8PathImpl14configHomeImplB5cxx11Ev
FNDA:0,_ZN4Poco8PathImpl12dataHomeImplB5cxx11Ev
FNDA:0,_ZN4Poco8PathImpl13cacheHomeImplB5cxx11Ev
FNDA:0,_ZN4Poco8PathImpl12tempHomeImplB5cxx11Ev
FNDA:0,_ZN4Poco8PathImpl8tempImplB5cxx11Ev
FNDA:0,_ZN4Poco8PathImpl10configImplB5cxx11Ev
FNDA:0,_ZN4Poco8PathImpl8nullImplB5cxx11Ev
FNDA:0,_ZN4Poco8PathImpl10expandImplERKNSt7__cxx1112basic_stringIcSt11char_traitsIcESaIcEEE
FNDA:0,_ZN4Poco8PathImpl13listRootsImplERSt6vectorINSt7__cxx1112basic_stringIcSt11char_traitsIcESaIcEEESaIS7_EE
FNF:11
FNH:0
DA:36,0
DA:38,0
DA:40,0
DA:41,0
DA:43,0
DA:44,0
DA:45,0
DA:46,0
DA:50,0
DA:62,0
DA:63,0
DA:65,0
DA:69,0
DA:70,0
DA:72,0
DA:76,0
DA:77,0
DA:78,0
DA:80,0
DA:83,0
DA:84,0
DA:85,0
DA:90,0
DA:101,0
DA:102,0
DA:103,0
DA:104,0
DA:105,0
DA:107,0
DA:108,0
DA:109,0
DA:110,0
DA:112,0
DA:117,0
DA:128,0
DA:129,0
DA:130,0
DA:131,0
DA:132,0
DA:134,0
DA:135,0
DA:136,0
DA:137,0
DA:139,0
DA:144,0
DA:155,0
DA:156,0
DA:157,0
DA:158,0
DA:159,0
DA:161,0
DA:162,0
DA:163,0
DA:164,0
DA:166,0
DA:171,0
DA:176,0
DA:177,0
DA:178,0
DA:182,0
DA:185,0
DA:190,0
DA:192,0
DA:193,0
DA:194,0
DA:196,0
DA:197,0
DA:198,0
DA:202,0
DA:204,0
DA:208,0
DA:210,0
DA:215,0
DA:217,0
DA:221,0
DA:226,0
DA:231,0
DA:233,0
DA:234,0
DA:235,0
DA:236,0
DA:238,0
DA:239,0
DA:241,0
DA:242,0
DA:244,0
DA:245,0
DA:246,0
DA:247,0
DA:251,0
DA:253,0
DA:255,0
DA:257,0
DA:259,0
DA:261,0
DA:262,0
DA:264,0
DA:267,0
DA:269,0
DA:270,0
DA:271,0
DA:273,0
DA:274,0
DA:275,0
DA:279,0
DA:281,0
DA:282,0
DA:284,0
DA:286,0
DA:287,0
DA:289,0
DA:290,0
DA:292,0
DA:296,0
DA:298,0
DA:299,0
DA:300,0
LF:117
LH:0
end_of_record
SF:/usr/include/c++/7/bits/alloc_traits.h
FN:435,_ZNSt16allocator_traitsISaINSt7__cxx1112basic_stringIcSt11char_traitsIcESaIcEEEEE8allocateERS6_m
FN:461,_ZNSt16allocator_traitsISaINSt7__cxx1112basic_stringIcSt11char_traitsIcESaIcEEEEE10deallocateERS6_PS5_m
FN:474,_ZNSt16allocator_traitsISaINSt7__cxx1112basic_stringIcSt11char_traitsIcESaIcEEEEE9constructIS5_JS5_EEEvRS6_PT_DpOT0_
FN:474,_ZNSt16allocator_traitsISaINSt7__cxx1112basic_stringIcSt11char_traitsIcESaIcEEEEE9constructIS5_JRKS5_EEEvRS6_PT_DpOT0_
FN:486,_ZNSt16allocator_traitsISaINSt7__cxx1112basic_stringIcSt11char_traitsIcESaIcEEEEE7destroyIS5_EEvRS6_PT_
FN:495,_ZNSt16allocator_traitsISaINSt7__cxx1112basic_stringIcSt11char_traitsIcESaIcEEEEE8max_sizeERKS6_
FN:504,_ZNSt16allocator_traitsISaINSt7__cxx1112basic_stringIcSt11char_traitsIcESaIcEEEEE37select_on_container_copy_constructionERKS6_
FN:516,_ZSt18__do_alloc_on_copyISaINSt7__cxx1112basic_stringIcSt11char_traitsIcESaIcEEEEEvRT_RKS7_St17integral_constantIbLb0EE
FN:520,_ZSt15__alloc_on_copyISaINSt7__cxx1112basic_stringIcSt11char_traitsIcESaIcEEEEEvRT_RKS7_
FN:535,_ZSt18__do_alloc_on_moveISaINSt7__cxx1112basic_stringIcSt11char_traitsIcESaIcEEEEEvRT_S8_St17integral_constantIbLb1EE
FN:543,_ZSt15__alloc_on_moveISaINSt7__cxx1112basic_stringIcSt11char_traitsIcESaIcEEEEEvRT_S8_
FN:558,_ZSt18__do_alloc_on_swapISaINSt7__cxx1112basic_stringIcSt11char_traitsIcESaIcEEEEEvRT_S8_St17integral_constantIbLb0EE
FN:562,_ZSt15__alloc_on_swapISaINSt7__cxx1112basic_stringIcSt11char_traitsIcESaIcEEEEEvRT_S8_
FNDA:0,_ZNSt16allocator_traitsISaINSt7__cxx1112basic_stringIcSt11char_traitsIcESaIcEEEEE8allocateERS6_m
FNDA:0,_ZNSt16allocator_traitsISaINSt7__cxx1112basic_stringIcSt11char_traitsIcESaIcEEEEE10deallocateERS6_PS5_m
FNDA:0,_ZNSt16allocator_traitsISaINSt7__cxx1112basic_stringIcSt11char_traitsIcESaIcEEEEE9constructIS5_JS5_EEEvRS6_PT_DpOT0_
FNDA:0,_ZNSt16allocator_traitsISaINSt7__cxx1112basic_stringIcSt11char_traitsIcESaIcEEEEE9constructIS5_JRKS5_EEEvRS6_PT_DpOT0_
FNDA:0,_ZNSt16allocator_traitsISaINSt7__cxx1112basic_stringIcSt11char_traitsIcESaIcEEEEE7destroyIS5_EEvRS6_PT_
FNDA:0,_ZNSt16allocator_traitsISaINSt7__cxx1112basic_stringIcSt11char_traitsIcESaIcEEEEE8max_sizeERKS6_
FNDA:0,_ZNSt16allocator_traitsISaINSt7__cxx1112basic_stringIcSt11char_traitsIcESaIcEEEEE37select_on_container_copy_constructionERKS6_
FNDA:0,_ZSt18__do_alloc_on_copyISaINSt7__cxx1112basic_stringIcSt11char_traitsIcESaIcEEEEEvRT_RKS7_St17integral_constantIbLb0EE
FNDA:0,_ZSt15__alloc_on_copyISaINSt7__cxx1112basic_stringIcSt11char_traitsIcESaIcEEEEEvRT_RKS7_
FNDA:0,_ZSt18__do_alloc_on_moveISaINSt7__cxx1112basic_stringIcSt11char_traitsIcESaIcEEEEEvRT_S8_St17integral_constantIbLb1EE
FNDA:0,_ZSt15__alloc_on_moveISaINSt7__cxx1112basic_stringIcSt11char_traitsIcESaIcEEEEEvRT_S8_
FNDA:0,_ZSt18__do_alloc_on_swapISaINSt7__cxx1112basic_stringIcSt11char_traitsIcESaIcEEEEEvRT_S8_St17integral_constantIbLb0EE
FNDA:0,_ZSt15__alloc_on_swapISaINSt7__cxx1112basic_stringIcSt11char_traitsIcESaIcEEEEEvRT_S8_
FNF:13
FNH:0
DA:435,0
DA:436,0
DA:461,0
DA:462,0
DA:474,0
DA:475,0
DA:486,0
DA:487,0
DA:495,0
DA:496,0
DA:504,0
DA:505,0
DA:516,0
DA:517,0
DA:520,0
DA:524,0
DA:525,0
DA:535,0
DA:536,0
DA:543,0
DA:547,0
DA:548,0
DA:558,0
DA:559,0
DA:562,0
DA:566,0
DA:567,0
LF:27
LH:0
end_of_record
SF:/usr/include/c++/7/bits/allocator.h
FN:131,_ZNSaINSt7__cxx1112basic_stringIcSt11char_traitsIcESaIcEEEEC2Ev
FN:133,_ZNSaINSt7__cxx1112basic_stringIcSt11char_traitsIcESaIcEEEEC2ERKS5_
FN:139,_ZNSaINSt7__cxx1112basic_stringIcSt11char_traitsIcESaIcEEEED2Ev
FN:164,_ZStneINSt7__cxx1112basic_stringIcSt11char_traitsIcESaIcEEEEbRKSaIT_ES9_
FNDA:0,_ZNSaINSt7__cxx1112basic_stringIcSt11char_traitsIcESaIcEEEEC2Ev
FNDA:0,_ZNSaINSt7__cxx1112basic_stringIcSt11char_traitsIcESaIcEEEEC2ERKS5_
FNDA:0,_ZNSaINSt7__cxx1112basic_stringIcSt11char_traitsIcESaIcEEEED2Ev
FNDA:0,_ZStneINSt7__cxx1112basic_stringIcSt11char_traitsIcESaIcEEEEbRKSaIT_ES9_
FNF:4
FNH:0
DA:131,0
DA:133,0
DA:134,0
DA:139,0
DA:164,0
DA:166,0
LF:6
LH:0
end_of_record
SF:/usr/include/c++/7/bits/basic_string.h
FN:6043,_ZSteqIcSt11char_traitsIcESaIcEEbRKNSt7__cxx1112basic_stringIT_T0_T1_EEPKS5_
FN:6081,_ZStneIcSt11char_traitsIcESaIcEEbRKNSt7__cxx1112basic_stringIT_T0_T1_EEPKS5_
FN:6246,_ZSt4swapIcSt11char_traitsIcESaIcEEvRNSt7__cxx1112basic_stringIT_T0_T1_EES9_
FNDA:0,_ZSteqIcSt11char_traitsIcESaIcEEbRKNSt7__cxx1112basic_stringIT_T0_T1_EEPKS5_
FNDA:0,_ZStneIcSt11char_traitsIcESaIcEEbRKNSt7__cxx1112basic_stringIT_T0_T1_EEPKS5_
FNDA:0,_ZSt4swapIcSt11char_traitsIcESaIcEEvRNSt7__cxx1112basic_stringIT_T0_T1_EES9_
FNF:3
FNH:0
DA:6043,0
DA:6045,0
DA:6081,0
DA:6083,0
DA:6246,0
DA:6249,0
LF:6
LH:0
end_of_record
SF:/usr/include/c++/7/bits/cpp_type_traits.h
FN:408,_ZSt12__miter_baseIN9__gnu_cxx17__normal_iteratorIPNSt7__cxx1112basic_stringIcSt11char_traitsIcESaIcEEESt6vectorIS7_SaIS7_EEEEET_SD_
FN:408,_ZSt12__miter_baseIPNSt7__cxx1112basic_stringIcSt11char_traitsIcESaIcEEEET_S7_
FN:408,_ZSt12__miter_baseIN9__gnu_cxx17__normal_iteratorIPKNSt7__cxx1112basic_stringIcSt11char_traitsIcESaIcEEESt6vectorIS7_SaIS7_EEEEET_SE_
FNDA:0,_ZSt12__miter_baseIN9__gnu_cxx17__normal_iteratorIPNSt7__cxx1112basic_stringIcSt11char_traitsIcESaIcEEESt6vectorIS7_SaIS7_EEEEET_SD_
FNDA:0,_ZSt12__miter_baseIPNSt7__cxx1112basic_stringIcSt11char_traitsIcESaIcEEEET_S7_
FNDA:0,_ZSt12__miter_baseIN9__gnu_cxx17__normal_iteratorIPKNSt7__cxx1112basic_stringIcSt11char_traitsIcESaIcEEESt6vectorIS7_SaIS7_EEEEET_SE_
FNF:3
FNH:0
DA:408,0
DA:409,0
LF:2
LH:0
end_of_record
SF:/usr/include/c++/7/bits/move.h
FN:47,_ZSt11__addressofINSt7__cxx1112basic_stringIcSt11char_traitsIcESaIcEEEEPT_RS6_
FN:73,_ZSt7forwardINSt7__cxx1112basic_stringIcSt11char_traitsIcESaIcEEEEOT_RNSt16remove_referenceIS6_E4typeE
FN:73,_ZSt7forwardIRNSt7__cxx1112basic_stringIcSt11char_traitsIcESaIcEEEEOT_RNSt16remove_referenceIS7_E4typeE
FN:73,_ZSt7forwardIRKNSt7__cxx1112basic_stringIcSt11char_traitsIcESaIcEEEEOT_RNSt16remove_referenceIS8_E4typeE
FN:98,_ZSt4moveIRbEONSt16remove_referenceIT_E4typeEOS2_
FN:98,_ZSt4moveIRPNSt7__cxx1112basic_stringIcSt11char_traitsIcESaIcEEEEONSt16remove_referenceIT_E4typeEOS9_
FN:98,_ZSt4moveIRSaINSt7__cxx1112basic_stringIcSt11char_traitsIcESaIcEEEEEONSt16remove_referenceIT_E4typeEOS9_
FN:98,_ZSt4moveIRNSt7__cxx1112basic_stringIcSt11char_traitsIcESaIcEEEEONSt16remove_referenceIT_E4typeEOS8_
FN:98,_ZSt4moveIRSt6vectorINSt7__cxx1112basic_stringIcSt11char_traitsIcESaIcEEESaIS6_EEEONSt16remove_referenceIT_E4typeEOSB_
FN:187,_ZSt4swapIPNSt7__cxx1112basic_stringIcSt11char_traitsIcESaIcEEEENSt9enable_ifIXsrSt6__and_IJSt6__not_ISt15__is_tuple_likeIT_EESt21is_move_constructibleISB_ESt18is_move_assignableISB_EEE5valueEvE4typeERSB_SL_
FN:187,_ZSt4swapIbENSt9enable_ifIXsrSt6__and_IJSt6__not_ISt15__is_tuple_likeIT_EESt21is_move_constructibleIS4_ESt18is_move_assignableIS4_EEE5valueEvE4typeERS4_SE_
FNDA:0,_ZSt11__addressofINSt7__cxx1112basic_stringIcSt11char_traitsIcESaIcEEEEPT_RS6_
FNDA:0,_ZSt7forwardIRNSt7__cxx1112basic_stringIcSt11char_traitsIcESaIcEEEEOT_RNSt16remove_referenceIS7_E4typeE
FNDA:0,_ZSt7forwardIRKNSt7__cxx1112basic_stringIcSt11char_traitsIcESaIcEEEEOT_RNSt16remove_referenceIS8_E4typeE
FNDA:0,_ZSt7forwardINSt7__cxx1112basic_stringIcSt11char_traitsIcESaIcEEEEOT_RNSt16remove_referenceIS6_E4typeE
FNDA:0,_ZSt4moveIRPNSt7__cxx1112basic_stringIcSt11char_traitsIcESaIcEEEEONSt16remove_referenceIT_E4typeEOS9_
FNDA:0,_ZSt4moveIRSaINSt7__cxx1112basic_stringIcSt11char_traitsIcESaIcEEEEEONSt16remove_referenceIT_E4typeEOS9_
FNDA:0,_ZSt4moveIRbEONSt16remove_referenceIT_E4typeEOS2_
FNDA:0,_ZSt4moveIRSt6vectorINSt7__cxx1112basic_stringIcSt11char_traitsIcESaIcEEESaIS6_EEEONSt16remove_referenceIT_E4typeEOSB_
FNDA:0,_ZSt4moveIRNSt7__cxx1112basic_stringIcSt11char_traitsIcESaIcEEEEONSt16remove_referenceIT_E4typeEOS8_
FNDA:0,_ZSt4swapIPNSt7__cxx1112basic_stringIcSt11char_traitsIcESaIcEEEENSt9enable_ifIXsrSt6__and_IJSt6__not_ISt15__is_tuple_likeIT_EESt21is_move_constructibleISB_ESt18is_move_assignableISB_EEE5valueEvE4typeERSB_SL_
FNDA:0,_ZSt4swapIbENSt9enable_ifIXsrSt6__and_IJSt6__not_ISt15__is_tuple_likeIT_EESt21is_move_constructibleIS4_ESt18is_move_assignableIS4_EEE5valueEvE4typeERS4_SE_
FNF:11
FNH:0
DA:47,0
DA:48,0
DA:73,0
DA:74,0
DA:98,0
DA:99,0
DA:187,0
DA:198,0
DA:199,0
DA:200,0
DA:201,0
LF:11
LH:0
end_of_record
SF:/usr/include/c++/7/bits/stl_algobase.h
FN:219,_ZSt3maxImERKT_S2_S2_
FN:277,_ZSt12__niter_baseIPNSt7__cxx1112basic_stringIcSt11char_traitsIcESaIcEEEET_S7_
FN:319,_ZNSt11__copy_moveILb0ELb0ESt26random_access_iterator_tagE8__copy_mIPKNSt7__cxx1112basic_stringIcSt11char_traitsIcESaIcEEEPS8_EET0_T_SD_SC_
FN:319,_ZNSt11__copy_moveILb0ELb0ESt26random_access_iterator_tagE8__copy_mIPNSt7__cxx1112basic_stringIcSt11char_traitsIcESaIcEEES9_EET0_T_SB_SA_
FN:338,_ZNSt11__copy_moveILb1ELb0ESt26random_access_iterator_tagE8__copy_mIPNSt7__cxx1112basic_stringIcSt11char_traitsIcESaIcEEES9_EET0_T_SB_SA_
FN:375,_ZSt13__copy_move_aILb0EPKNSt7__cxx1112basic_stringIcSt11char_traitsIcESaIcEEEPS5_ET1_T0_SA_S9_
FN:375,_ZSt13__copy_move_aILb0EPNSt7__cxx1112basic_stringIcSt11char_traitsIcESaIcEEES6_ET1_T0_S8_S7_
FN:375,_ZSt13__copy_move_aILb1EPNSt7__cxx1112basic_stringIcSt11char_traitsIcESaIcEEES6_ET1_T0_S8_S7_
FN:420,_ZSt14__copy_move_a2ILb1EN9__gnu_cxx17__normal_iteratorIPNSt7__cxx1112basic_stringIcSt11char_traitsIcESaIcEEESt6vectorIS7_SaIS7_EEEESC_ET1_T0_SE_SD_
FN:420,_ZSt14__copy_move_a2ILb0EPNSt7__cxx1112basic_stringIcSt11char_traitsIcESaIcEEES6_ET1_T0_S8_S7_
FN:420,_ZSt14__copy_move_a2ILb0EN9__gnu_cxx17__normal_iteratorIPKNSt7__cxx1112basic_stringIcSt11char_traitsIcESaIcEEESt6vectorIS7_SaIS7_EEEENS1_IPS7_SC_EEET1_T0_SH_SG_
FN:446,_ZSt4copyIPNSt7__cxx1112basic_stringIcSt11char_traitsIcESaIcEEES6_ET0_T_S8_S7_
FN:446,_ZSt4copyIN9__gnu_cxx17__normal_iteratorIPKNSt7__cxx1112basic_stringIcSt11char_traitsIcESaIcEEESt6vectorIS7_SaIS7_EEEENS1_IPS7_SC_EEET0_T_SH_SG_
FN:479,_ZSt4moveIN9__gnu_cxx17__normal_iteratorIPNSt7__cxx1112basic_stringIcSt11char_traitsIcESaIcEEESt6vectorIS7_SaIS7_EEEESC_ET0_T_SE_SD_
FN:544,_ZNSt20__copy_move_backwardILb1ELb0ESt26random_access_iterator_tagE13__copy_move_bIPNSt7__cxx1112basic_stringIcSt11char_traitsIcESaIcEEES9_EET0_T_SB_SA_
FN:577,_ZSt22__copy_move_backward_aILb1EPNSt7__cxx1112basic_stringIcSt11char_traitsIcESaIcEEES6_ET1_T0_S8_S7_
FN:595,_ZSt23__copy_move_backward_a2ILb1EPNSt7__cxx1112basic_stringIcSt11char_traitsIcESaIcEEES6_ET1_T0_S8_S7_
FN:658,_ZSt13move_backwardIPNSt7__cxx1112basic_stringIcSt11char_traitsIcESaIcEEES6_ET0_T_S8_S7_
FNDA:0,_ZSt3maxImERKT_S2_S2_
FNDA:0,_ZSt12__niter_baseIPNSt7__cxx1112basic_stringIcSt11char_traitsIcESaIcEEEET_S7_
FNDA:0,_ZNSt11__copy_moveILb0ELb0ESt26random_access_iterator_tagE8__copy_mIPNSt7__cxx1112basic_stringIcSt11char_traitsIcESaIcEEES9_EET0_T_SB_SA_
FNDA:0,_ZNSt11__copy_moveILb0ELb0ESt26random_access_iterator_tagE8__copy_mIPKNSt7__cxx1112basic_stringIcSt11char_traitsIcESaIcEEEPS8_EET0_T_SD_SC_
FNDA:0,_ZNSt11__copy_moveILb1ELb0ESt26random_access_iterator_tagE8__copy_mIPNSt7__cxx1112basic_stringIcSt11char_traitsIcESaIcEEES9_EET0_T_SB_SA_
FNDA:0,_ZSt13__copy_move_aILb1EPNSt7__cxx1112basic_stringIcSt11char_traitsIcESaIcEEES6_ET1_T0_S8_S7_
FNDA:0,_ZSt13__copy_move_aILb0EPNSt7__cxx1112basic_stringIcSt11char_traitsIcESaIcEEES6_ET1_T0_S8_S7_
FNDA:0,_ZSt13__copy_move_aILb0EPKNSt7__cxx1112basic_stringIcSt11char_traitsIcESaIcEEEPS5_ET1_T0_SA_S9_
FNDA:0,_ZSt14__copy_move_a2ILb1EN9__gnu_cxx17__normal_iteratorIPNSt7__cxx1112basic_stringIcSt11char_traitsIcESaIcEEESt6vectorIS7_SaIS7_EEEESC_ET1_T0_SE_SD_
FNDA:0,_ZSt14__copy_move_a2ILb0EPNSt7__cxx1112basic_stringIcSt11char_traitsIcESaIcEEES6_ET1_T0_S8_S7_
FNDA:0,_ZSt14__copy_move_a2ILb0EN9__gnu_cxx17__normal_iteratorIPKNSt7__cxx1112basic_stringIcSt11char_traitsIcESaIcEEESt6vectorIS7_SaIS7_EEEENS1_IPS7_SC_EEET1_T0_SH_SG_
FNDA:0,_ZSt4copyIPNSt7__cxx1112basic_stringIcSt11char_traitsIcESaIcEEES6_ET0_T_S8_S7_
FNDA:0,_ZSt4copyIN9__gnu_cxx17__normal_iteratorIPKNSt7__cxx1112basic_stringIcSt11char_traitsIcESaIcEEESt6vectorIS7_SaIS7_EEEENS1_IPS7_SC_EEET0_T_SH_SG_
FNDA:0,_ZSt4moveIN9__gnu_cxx17__normal_iteratorIPNSt7__cxx1112basic_stringIcSt11char_traitsIcESaIcEEESt6vectorIS7_SaIS7_EEEESC_ET0_T_SE_SD_
FNDA:0,_ZNSt20__copy_move_backwardILb1ELb0ESt26random_access_iterator_tagE13__copy_move_bIPNSt7__cxx1112basic_stringIcSt11char_traitsIcESaIcEEES9_EET0_T_SB_SA_
FNDA:0,_ZSt22__copy_move_backward_aILb1EPNSt7__cxx1112basic_stringIcSt11char_traitsIcESaIcEEES6_ET1_T0_S8_S7_
FNDA:0,_ZSt23__copy_move_backward_a2ILb1EPNSt7__cxx1112basic_stringIcSt11char_traitsIcESaIcEEES6_ET1_T0_S8_S7_
FNDA:0,_ZSt13move_backwardIPNSt7__cxx1112basic_stringIcSt11char_traitsIcESaIcEEES6_ET0_T_S8_S7_
FNF:18
FNH:0
DA:219,0
DA:224,0
DA:225,0
DA:226,0
DA:277,0
DA:278,0
DA:319,0
DA:322,0
DA:324,0
DA:325,0
DA:326,0
DA:328,0
DA:338,0
DA:341,0
DA:343,0
DA:344,0
DA:345,0
DA:347,0
DA:375,0
DA:380,0
DA:386,0
DA:420,0
DA:422,0
DA:424,0
DA:446,0
DA:455,0
DA:456,0
DA:479,0
DA:487,0
DA:488,0
DA:544,0
DA:547,0
DA:548,0
DA:549,0
DA:577,0
DA:582,0
DA:590,0
DA:595,0
DA:598,0
DA:599,0
DA:658,0
DA:668,0
DA:670,0
LF:43
LH:0
end_of_record
SF:/usr/include/c++/7/bits/stl_construct.h
FN:74,_ZSt10_ConstructINSt7__cxx1112basic_stringIcSt11char_traitsIcESaIcEEEJS5_EEvPT_DpOT0_
FN:74,_ZSt10_ConstructINSt7__cxx1112basic_stringIcSt11char_traitsIcESaIcEEEJRS5_EEvPT_DpOT0_
FN:74,_ZSt10_ConstructINSt7__cxx1112basic_stringIcSt11char_traitsIcESaIcEEEJRKS5_EEvPT_DpOT0_
FN:97,_ZSt8_DestroyINSt7__cxx1112basic_stringIcSt11char_traitsIcESaIcEEEEvPT_
FN:105,_ZNSt12_Destroy_auxILb0EE9__destroyIN9__gnu_cxx17__normal_iteratorIPNSt7__cxx1112basic_stringIcSt11char_traitsIcESaIcEEESt6vectorIS9_SaIS9_EEEEEEvT_SF_
FN:105,_ZNSt12_Destroy_auxILb0EE9__destroyIPNSt7__cxx1112basic_stringIcSt11char_traitsIcESaIcEEEEEvT_S9_
FN:127,_ZSt8_DestroyIPNSt7__cxx1112basic_stringIcSt11char_traitsIcESaIcEEEEvT_S7_
FN:127,_ZSt8_DestroyIN9__gnu_cxx17__normal_iteratorIPNSt7__cxx1112basic_stringIcSt11char_traitsIcESaIcEEESt6vectorIS7_SaIS7_EEEEEvT_SD_
FN:203,_ZSt8_DestroyIN9__gnu_cxx17__normal_iteratorIPNSt7__cxx1112basic_stringIcSt11char_traitsIcESaIcEEESt6vectorIS7_SaIS7_EEEES7_EvT_SD_RSaIT0_E
FN:203,_ZSt8_DestroyIPNSt7__cxx1112basic_stringIcSt11char_traitsIcESaIcEEES5_EvT_S7_RSaIT0_E
FNDA:0,_ZSt10_ConstructINSt7__cxx1112basic_stringIcSt11char_traitsIcESaIcEEEJS5_EEvPT_DpOT0_
FNDA:0,_ZSt10_ConstructINSt7__cxx1112basic_stringIcSt11char_traitsIcESaIcEEEJRS5_EEvPT_DpOT0_
FNDA:0,_ZSt10_ConstructINSt7__cxx1112basic_stringIcSt11char_traitsIcESaIcEEEJRKS5_EEvPT_DpOT0_
FNDA:0,_ZSt8_DestroyINSt7__cxx1112basic_stringIcSt11char_traitsIcESaIcEEEEvPT_
FNDA:0,_ZNSt12_Destroy_auxILb0EE9__destroyIN9__gnu_cxx17__normal_iteratorIPNSt7__cxx1112basic_stringIcSt11char_traitsIcESaIcEEESt6vectorIS9_SaIS9_EEEEEEvT_SF_
FNDA:0,_ZNSt12_Destroy_auxILb0EE9__destroyIPNSt7__cxx1112basic_stringIcSt11char_traitsIcESaIcEEEEEvT_S9_
FNDA:0,_ZSt8_DestroyIN9__gnu_cxx17__normal_iteratorIPNSt7__cxx1112basic_stringIcSt11char_traitsIcESaIcEEESt6vectorIS7_SaIS7_EEEEEvT_SD_
FNDA:0,_ZSt8_DestroyIPNSt7__cxx1112basic_stringIcSt11char_traitsIcESaIcEEEEvT_S7_
FNDA:0,_ZSt8_DestroyIN9__gnu_cxx17__normal_iteratorIPNSt7__cxx1112basic_stringIcSt11char_traitsIcESaIcEEESt6vectorIS7_SaIS7_EEEES7_EvT_SD_RSaIT0_E
FNDA:0,_ZSt8_DestroyIPNSt7__cxx1112basic_stringIcSt11char_traitsIcESaIcEEES5_EvT_S7_RSaIT0_E
FNF:10
FNH:0
DA:74,0
DA:75,0
DA:97,0
DA:98,0
DA:105,0
DA:107,0
DA:108,0
DA:109,0
DA:127,0
DA:137,0
DA:138,0
DA:203,0
DA:206,0
DA:207,0
LF:14
LH:0
end_of_record
SF:/usr/include/c++/7/bits/stl_iterator.h
FN:169,_ZNKSt16reverse_iteratorIN9__gnu_cxx17__normal_iteratorIPcNSt7__cxx1112basic_stringIcSt11char_traitsIcESaIcEEEEEEdeEv
FN:782,_ZN9__gnu_cxx17__normal_iteratorIPNSt7__cxx1112basic_stringIcSt11char_traitsIcESaIcEEESt6vectorIS6_SaIS6_EEEC2ERKS7_
FN:782,_ZN9__gnu_cxx17__normal_iteratorIPKNSt7__cxx1112basic_stringIcSt11char_traitsIcESaIcEEESt6vectorIS6_SaIS6_EEEC2ERKS8_
FN:782,_ZN9__gnu_cxx17__normal_iteratorIPKcNSt7__cxx1112basic_stringIcSt11char_traitsIcESaIcEEEEC2ERKS2_
FN:787,_ZN9__gnu_cxx17__normal_iteratorIPKNSt7__cxx1112basic_stringIcSt11char_traitsIcESaIcEEESt6vectorIS6_SaIS6_EEEC2IPS6_EERKNS0_IT_NS_11__enable_ifIXsrSt10__are_sameISF_SE_E7__valueESB_E6__typeEEE
FN:795,_ZNK9__gnu_cxx17__normal_iteratorIPcNSt7__cxx1112basic_stringIcSt11char_traitsIcESaIcEEEEdeEv
FN:795,_ZNK9__gnu_cxx17__normal_iteratorIPKcNSt7__cxx1112basic_stringIcSt11char_traitsIcESaIcEEEEdeEv
FN:795,_ZNK9__gnu_cxx17__normal_iteratorIPKNSt7__cxx1112basic_stringIcSt11char_traitsIcESaIcEEESt6vectorIS6_SaIS6_EEEdeEv
FN:795,_ZNK9__gnu_cxx17__normal_iteratorIPNSt7__cxx1112basic_stringIcSt11char_traitsIcESaIcEEESt6vectorIS6_SaIS6_EEEdeEv
FN:803,_ZN9__gnu_cxx17__normal_iteratorIPNSt7__cxx1112basic_stringIcSt11char_traitsIcESaIcEEESt6vectorIS6_SaIS6_EEEppEv
FN:803,_ZN9__gnu_cxx17__normal_iteratorIPKcNSt7__cxx1112basic_stringIcSt11char_traitsIcESaIcEEEEppEv
FN:803,_ZN9__gnu_cxx17__normal_iteratorIPKNSt7__cxx1112basic_stringIcSt11char_traitsIcESaIcEEESt6vectorIS6_SaIS6_EEEppEv
FN:810,_ZN9__gnu_cxx17__normal_iteratorIPKcNSt7__cxx1112basic_stringIcSt11char_traitsIcESaIcEEEEppEi
FN:815,_ZN9__gnu_cxx17__normal_iteratorIPcNSt7__cxx1112basic_stringIcSt11char_traitsIcESaIcEEEEmmEv
FN:815,_ZN9__gnu_cxx17__normal_iteratorIPKcNSt7__cxx1112basic_stringIcSt11char_traitsIcESaIcEEEEmmEv
FN:831,_ZN9__gnu_cxx17__normal_iteratorIPKNSt7__cxx1112basic_stringIcSt11char_traitsIcESaIcEEESt6vectorIS6_SaIS6_EEEpLEl
FN:835,_ZNK9__gnu_cxx17__normal_iteratorIPNSt7__cxx1112basic_stringIcSt11char_traitsIcESaIcEEESt6vectorIS6_SaIS6_EEEplEl
FN:843,_ZNK9__gnu_cxx17__normal_iteratorIPNSt7__cxx1112basic_stringIcSt11char_traitsIcESaIcEEESt6vectorIS6_SaIS6_EEEmiEl
FN:847,_ZNK9__gnu_cxx17__normal_iteratorIPNSt7__cxx1112basic_stringIcSt11char_traitsIcESaIcEEESt6vectorIS6_SaIS6_EEE4baseEv
FN:847,_ZNK9__gnu_cxx17__normal_iteratorIPKcNSt7__cxx1112basic_stringIcSt11char_traitsIcESaIcEEEE4baseEv
FN:847,_ZNK9__gnu_cxx17__normal_iteratorIPKNSt7__cxx1112basic_stringIcSt11char_traitsIcESaIcEEESt6vectorIS6_SaIS6_EEE4baseEv
FN:869,_ZN9__gnu_cxxeqIPKcNSt7__cxx1112basic_stringIcSt11char_traitsIcESaIcEEEEEbRKNS_17__normal_iteratorIT_T0_EESE_
FN:869,_ZN9__gnu_cxxeqIPKNSt7__cxx1112basic_stringIcSt11char_traitsIcESaIcEEESt6vectorIS6_SaIS6_EEEEbRKNS_17__normal_iteratorIT_T0_EESH_
FN:883,_ZN9__gnu_cxxneIPKcNSt7__cxx1112basic_stringIcSt11char_traitsIcESaIcEEEEEbRKNS_17__normal_iteratorIT_T0_EESE_
FN:883,_ZN9__gnu_cxxneIPNSt7__cxx1112basic_stringIcSt11char_traitsIcESaIcEEESt6vectorIS6_SaIS6_EEEEbRKNS_17__normal_iteratorIT_T0_EESG_
FN:883,_ZN9__gnu_cxxneIPKNSt7__cxx1112basic_stringIcSt11char_traitsIcESaIcEEESt6vectorIS6_SaIS6_EEEEbRKNS_17__normal_iteratorIT_T0_EESH_
FN:965,_ZN9__gnu_cxxmiIPKNSt7__cxx1112basic_stringIcSt11char_traitsIcESaIcEEESt6vectorIS6_SaIS6_EEEENS_17__normal_iteratorIT_T0_E15difference_typeERKSF_SI_
FN:965,_ZN9__gnu_cxxmiIPNSt7__cxx1112basic_stringIcSt11char_traitsIcESaIcEEESt6vectorIS6_SaIS6_EEEENS_17__normal_iteratorIT_T0_E15difference_typeERKSE_SH_
FN:986,_ZSt12__niter_baseIPNSt7__cxx1112basic_stringIcSt11char_traitsIcESaIcEEESt6vectorIS5_SaIS5_EEET_N9__gnu_cxx17__normal_iteratorISA_T0_EE
FN:986,_ZSt12__niter_baseIPKNSt7__cxx1112basic_stringIcSt11char_traitsIcESaIcEEESt6vectorIS5_SaIS5_EEET_N9__gnu_cxx17__normal_iteratorISB_T0_EE
FN:1039,_ZNSt13move_iteratorIPNSt7__cxx1112basic_stringIcSt11char_traitsIcESaIcEEEEC2ES6_
FN:1048,_ZNKSt13move_iteratorIPNSt7__cxx1112basic_stringIcSt11char_traitsIcESaIcEEEE4baseEv
FN:1052,_ZNKSt13move_iteratorIPNSt7__cxx1112basic_stringIcSt11char_traitsIcESaIcEEEEdeEv
FN:1060,_ZNSt13move_iteratorIPNSt7__cxx1112basic_stringIcSt11char_traitsIcESaIcEEEEppEv
FN:1127,_ZSteqIPNSt7__cxx1112basic_stringIcSt11char_traitsIcESaIcEEEEbRKSt13move_iteratorIT_ESB_
FN:1139,_ZStneIPNSt7__cxx1112basic_stringIcSt11char_traitsIcESaIcEEEEbRKSt13move_iteratorIT_ESB_
FN:1207,_ZSt18make_move_iteratorIPNSt7__cxx1112basic_stringIcSt11char_traitsIcESaIcEEEESt13move_iteratorIT_ES8_
FN:1224,_ZSt32__make_move_if_noexcept_iteratorINSt7__cxx1112basic_stringIcSt11char_traitsIcESaIcEEESt13move_iteratorIPS5_EET0_PT_
FNDA:0,_ZNKSt16reverse_iteratorIN9__gnu_cxx17__normal_iteratorIPcNSt7__cxx1112basic_stringIcSt11char_traitsIcESaIcEEEEEEdeEv
FNDA:0,_ZN9__gnu_cxx17__normal_iteratorIPNSt7__cxx1112basic_stringIcSt11char_traitsIcESaIcEEESt6vectorIS6_SaIS6_EEEC2ERKS7_
FNDA:0,_ZN9__gnu_cxx17__normal_iteratorIPKcNSt7__cxx1112basic_stringIcSt11char_traitsIcESaIcEEEEC2ERKS2_
FNDA:0,_ZN9__gnu_cxx17__normal_iteratorIPKNSt7__cxx1112basic_stringIcSt11char_traitsIcESaIcEEESt6vectorIS6_SaIS6_EEEC2ERKS8_
FNDA:0,_ZN9__gnu_cxx17__normal_iteratorIPKNSt7__cxx1112basic_stringIcSt11char_traitsIcESaIcEEESt6vectorIS6_SaIS6_EEEC2IPS6_EERKNS0_IT_NS_11__enable_ifIXsrSt10__are_sameISF_SE_E7__valueESB_E6__typeEEE
FNDA:0,_ZNK9__gnu_cxx17__normal_iteratorIPcNSt7__cxx1112basic_stringIcSt11char_traitsIcESaIcEEEEdeEv
FNDA:0,_ZNK9__gnu_cxx17__normal_iteratorIPKNSt7__cxx1112basic_stringIcSt11char_traitsIcESaIcEEESt6vectorIS6_SaIS6_EEEdeEv
FNDA:0,_ZNK9__gnu_cxx17__normal_iteratorIPNSt7__cxx1112basic_stringIcSt11char_traitsIcESaIcEEESt6vectorIS6_SaIS6_EEEdeEv
FNDA:0,_ZNK9__gnu_cxx17__normal_iteratorIPKcNSt7__cxx1112basic_stringIcSt11char_traitsIcESaIcEEEEdeEv
FNDA:0,_ZN9__gnu_cxx17__normal_iteratorIPKNSt7__cxx1112basic_stringIcSt11char_traitsIcESaIcEEESt6vectorIS6_SaIS6_EEEppEv
FNDA:0,_ZN9__gnu_cxx17__normal_iteratorIPNSt7__cxx1112basic_stringIcSt11char_traitsIcESaIcEEESt6vectorIS6_SaIS6_EEEppEv
FNDA:0,_ZN9__gnu_cxx17__normal_iteratorIPKcNSt7__cxx1112basic_stringIcSt11char_traitsIcESaIcEEEEppEv
FNDA:0,_ZN9__gnu_cxx17__normal_iteratorIPKcNSt7__cxx1112basic_stringIcSt11char_traitsIcESaIcEEEEppEi
FNDA:0,_ZN9__gnu_cxx17__normal_iteratorIPcNSt7__cxx1112basic_stringIcSt11char_traitsIcESaIcEEEEmmEv
FNDA:1,_ZN9__gnu_cxx17__normal_iteratorIPKcNSt7__cxx1112basic_stringIcSt11char_traitsIcESaIcEEEEmmEv
FNDA:0,_ZN9__gnu_cxx17__normal_iteratorIPKNSt7__cxx1112basic_stringIcSt11char_traitsIcESaIcEEESt6vectorIS6_SaIS6_EEEpLEl
FNDA:0,_ZNK9__gnu_cxx17__normal_iteratorIPNSt7__cxx1112basic_stringIcSt11char_traitsIcESaIcEEESt6vectorIS6_SaIS6_EEEplEl
FNDA:0,_ZNK9__gnu_cxx17__normal_iteratorIPNSt7__cxx1112basic_stringIcSt11char_traitsIcESaIcEEESt6vectorIS6_SaIS6_EEEmiEl
FNDA:0,_ZNK9__gnu_cxx17__normal_iteratorIPKNSt7__cxx1112basic_stringIcSt11char_traitsIcESaIcEEESt6vectorIS6_SaIS6_EEE4baseEv
FNDA:0,_ZNK9__gnu_cxx17__normal_iteratorIPNSt7__cxx1112basic_stringIcSt11char_traitsIcESaIcEEESt6vectorIS6_SaIS6_EEE4baseEv
FNDA:0,_ZNK9__gnu_cxx17__normal_iteratorIPKcNSt7__cxx1112basic_stringIcSt11char_traitsIcESaIcEEEE4baseEv
FNDA:0,_ZN9__gnu_cxxeqIPKNSt7__cxx1112basic_stringIcSt11char_traitsIcESaIcEEESt6vectorIS6_SaIS6_EEEEbRKNS_17__normal_iteratorIT_T0_EESH_
FNDA:0,_ZN9__gnu_cxxeqIPKcNSt7__cxx1112basic_stringIcSt11char_traitsIcESaIcEEEEEbRKNS_17__normal_iteratorIT_T0_EESE_
FNDA:0,_ZN9__gnu_cxxneIPKNSt7__cxx1112basic_stringIcSt11char_traitsIcESaIcEEESt6vectorIS6_SaIS6_EEEEbRKNS_17__normal_iteratorIT_T0_EESH_
FNDA:0,_ZN9__gnu_cxxneIPNSt7__cxx1112basic_stringIcSt11char_traitsIcESaIcEEESt6vectorIS6_SaIS6_EEEEbRKNS_17__normal_iteratorIT_T0_EESG_
FNDA:0,_ZN9__gnu_cxxneIPKcNSt7__cxx1112basic_stringIcSt11char_traitsIcESaIcEEEEEbRKNS_17__normal_iteratorIT_T0_EESE_
FNDA:0,_ZN9__gnu_cxxmiIPNSt7__cxx1112basic_stringIcSt11char_traitsIcESaIcEEESt6vectorIS6_SaIS6_EEEENS_17__normal_iteratorIT_T0_E15difference_typeERKSE_SH_
FNDA:0,_ZN9__gnu_cxxmiIPKNSt7__cxx1112basic_stringIcSt11char_traitsIcESaIcEEESt6vectorIS6_SaIS6_EEEENS_17__normal_iteratorIT_T0_E15difference_typeERKSF_SI_
FNDA:0,_ZSt12__niter_baseIPNSt7__cxx1112basic_stringIcSt11char_traitsIcESaIcEEESt6vectorIS5_SaIS5_EEET_N9__gnu_cxx17__normal_iteratorISA_T0_EE
FNDA:0,_ZSt12__niter_baseIPKNSt7__cxx1112basic_stringIcSt11char_traitsIcESaIcEEESt6vectorIS5_SaIS5_EEET_N9__gnu_cxx17__normal_iteratorISB_T0_EE
FNDA:0,_ZNSt13move_iteratorIPNSt7__cxx1112basic_stringIcSt11char_traitsIcESaIcEEEEC2ES6_
FNDA:0,_ZNKSt13move_iteratorIPNSt7__cxx1112basic_stringIcSt11char_traitsIcESaIcEEEE4baseEv
FNDA:0,_ZNKSt13move_iteratorIPNSt7__cxx1112basic_stringIcSt11char_traitsIcESaIcEEEEdeEv
FNDA:0,_ZNSt13move_iteratorIPNSt7__cxx1112basic_stringIcSt11char_traitsIcESaIcEEEEppEv
FNDA:0,_ZSteqIPNSt7__cxx1112basic_stringIcSt11char_traitsIcESaIcEEEEbRKSt13move_iteratorIT_ESB_
FNDA:0,_ZStneIPNSt7__cxx1112basic_stringIcSt11char_traitsIcESaIcEEEEbRKSt13move_iteratorIT_ESB_
FNDA:0,_ZSt18make_move_iteratorIPNSt7__cxx1112basic_stringIcSt11char_traitsIcESaIcEEEESt13move_iteratorIT_ES8_
FNDA:0,_ZSt32__make_move_if_noexcept_iteratorINSt7__cxx1112basic_stringIcSt11char_traitsIcESaIcEEESt13move_iteratorIPS5_EET0_PT_
FNF:38
FNH:1
DA:169,0
DA:171,0
DA:172,0
DA:782,0
DA:783,0
DA:787,0
DA:791,0
DA:795,0
DA:796,0
DA:803,0
DA:805,0
DA:806,0
DA:810,0
DA:811,0
DA:815,1
DA:817,1
DA:818,1
DA:831,0
DA:832,0
DA:835,0
DA:836,0
DA:843,0
DA:844,0
DA:847,0
DA:848,0
DA:869,0
DA:872,0
DA:883,0
DA:886,0
DA:965,0
DA:968,0
DA:986,0
DA:987,0
DA:1039,0
DA:1040,0
DA:1048,0
DA:1049,0
DA:1052,0
DA:1053,0
DA:1060,0
DA:1062,0
DA:1063,0
DA:1127,0
DA:1129,0
DA:1139,0
DA:1141,0
DA:1207,0
DA:1208,0
DA:1224,0
DA:1225,0
LF:50
LH:3
end_of_record
SF:/usr/include/c++/7/bits/stl_iterator_base_funcs.h
FN:98,_ZSt10__distanceIN9__gnu_cxx17__normal_iteratorIPKNSt7__cxx1112basic_stringIcSt11char_traitsIcESaIcEEESt6vectorIS7_SaIS7_EEEEENSt15iterator_traitsIT_E15difference_typeESF_SF_St26random_access_iterator_tag
FN:138,_ZSt8distanceIN9__gnu_cxx17__normal_iteratorIPKNSt7__cxx1112basic_stringIcSt11char_traitsIcESaIcEEESt6vectorIS7_SaIS7_EEEEENSt15iterator_traitsIT_E15difference_typeESF_SF_
FN:174,_ZSt9__advanceIN9__gnu_cxx17__normal_iteratorIPKNSt7__cxx1112basic_stringIcSt11char_traitsIcESaIcEEESt6vectorIS7_SaIS7_EEEElEvRT_T0_St26random_access_iterator_tag
FN:197,_ZSt7advanceIN9__gnu_cxx17__normal_iteratorIPKNSt7__cxx1112basic_stringIcSt11char_traitsIcESaIcEEESt6vectorIS7_SaIS7_EEEEmEvRT_T0_
FNDA:0,_ZSt10__distanceIN9__gnu_cxx17__normal_iteratorIPKNSt7__cxx1112basic_stringIcSt11char_traitsIcESaIcEEESt6vectorIS7_SaIS7_EEEEENSt15iterator_traitsIT_E15difference_typeESF_SF_St26random_access_iterator_tag
FNDA:0,_ZSt8distanceIN9__gnu_cxx17__normal_iteratorIPKNSt7__cxx1112basic_stringIcSt11char_traitsIcESaIcEEESt6vectorIS7_SaIS7_EEEEENSt15iterator_traitsIT_E15difference_typeESF_SF_
FNDA:0,_ZSt9__advanceIN9__gnu_cxx17__normal_iteratorIPKNSt7__cxx1112basic_stringIcSt11char_traitsIcESaIcEEESt6vectorIS7_SaIS7_EEEElEvRT_T0_St26random_access_iterator_tag
FNDA:0,_ZSt7advanceIN9__gnu_cxx17__normal_iteratorIPKNSt7__cxx1112basic_stringIcSt11char_traitsIcESaIcEEESt6vectorIS7_SaIS7_EEEEmEvRT_T0_
FNF:4
FNH:0
DA:98,0
DA:104,0
DA:138,0
DA:142,0
DA:174,0
DA:180,0
DA:181,0
DA:197,0
DA:200,0
DA:201,0
DA:202,0
LF:11
LH:0
end_of_record
SF:/usr/include/c++/7/bits/stl_iterator_base_types.h
FN:205,_ZSt19__iterator_categoryIN9__gnu_cxx17__normal_iteratorIPKNSt7__cxx1112basic_stringIcSt11char_traitsIcESaIcEEESt6vectorIS7_SaIS7_EEEEENSt15iterator_traitsIT_E17iterator_categoryERKSF_
FNDA:0,_ZSt19__iterator_categoryIN9__gnu_cxx17__normal_iteratorIPKNSt7__cxx1112basic_stringIcSt11char_traitsIcESaIcEEESt6vectorIS7_SaIS7_EEEEENSt15iterator_traitsIT_E17iterator_categoryERKSF_
FNF:1
FNH:0
DA:205,0
DA:206,0
LF:2
LH:0
end_of_record
SF:/usr/include/c++/7/bits/stl_uninitialized.h
FN:76,_ZNSt20__uninitialized_copyILb0EE13__uninit_copyIPNSt7__cxx1112basic_stringIcSt11char_traitsIcESaIcEEES8_EET0_T_SA_S9_
FN:76,_ZNSt20__uninitialized_copyILb0EE13__uninit_copyIN9__gnu_cxx17__normal_iteratorIPKNSt7__cxx1112basic_stringIcSt11char_traitsIcESaIcEEESt6vectorIS9_SaIS9_EEEEPS9_EET0_T_SI_SH_
FN:76,_ZNSt20__uninitialized_copyILb0EE13__uninit_copyISt13move_iteratorIPNSt7__cxx1112basic_stringIcSt11char_traitsIcESaIcEEEES9_EET0_T_SC_SB_
FN:115,_ZSt18uninitialized_copyIPNSt7__cxx1112basic_stringIcSt11char_traitsIcESaIcEEES6_ET0_T_S8_S7_
FN:115,_ZSt18uninitialized_copyISt13move_iteratorIPNSt7__cxx1112basic_stringIcSt11char_traitsIcESaIcEEEES7_ET0_T_SA_S9_
FN:115,_ZSt18uninitialized_copyIN9__gnu_cxx17__normal_iteratorIPKNSt7__cxx1112basic_stringIcSt11char_traitsIcESaIcEEESt6vectorIS7_SaIS7_EEEEPS7_ET0_T_SG_SF_
FN:287,_ZSt22__uninitialized_copy_aIN9__gnu_cxx17__normal_iteratorIPKNSt7__cxx1112basic_stringIcSt11char_traitsIcESaIcEEESt6vectorIS7_SaIS7_EEEEPS7_S7_ET0_T_SG_SF_RSaIT1_E
FN:287,_ZSt22__uninitialized_copy_aISt13move_iteratorIPNSt7__cxx1112basic_stringIcSt11char_traitsIcESaIcEEEES7_S6_ET0_T_SA_S9_RSaIT1_E
FN:287,_ZSt22__uninitialized_copy_aIPNSt7__cxx1112basic_stringIcSt11char_traitsIcESaIcEEES6_S5_ET0_T_S8_S7_RSaIT1_E
FN:294,_ZSt22__uninitialized_move_aIPNSt7__cxx1112basic_stringIcSt11char_traitsIcESaIcEEES6_SaIS5_EET0_T_S9_S8_RT1_
FN:305,_ZSt34__uninitialized_move_if_noexcept_aIPNSt7__cxx1112basic_stringIcSt11char_traitsIcESaIcEEES6_SaIS5_EET0_T_S9_S8_RT1_
FNDA:0,_ZNSt20__uninitialized_copyILb0EE13__uninit_copyISt13move_iteratorIPNSt7__cxx1112basic_stringIcSt11char_traitsIcESaIcEEEES9_EET0_T_SC_SB_
FNDA:0,_ZNSt20__uninitialized_copyILb0EE13__uninit_copyIPNSt7__cxx1112basic_stringIcSt11char_traitsIcESaIcEEES8_EET0_T_SA_S9_
FNDA:0,_ZNSt20__uninitialized_copyILb0EE13__uninit_copyIN9__gnu_cxx17__normal_iteratorIPKNSt7__cxx1112basic_stringIcSt11char_traitsIcESaIcEEESt6vectorIS9_SaIS9_EEEEPS9_EET0_T_SI_SH_
FNDA:0,_ZSt18uninitialized_copyISt13move_iteratorIPNSt7__cxx1112basic_stringIcSt11char_traitsIcESaIcEEEES7_ET0_T_SA_S9_
FNDA:0,_ZSt18uninitialized_copyIPNSt7__cxx1112basic_stringIcSt11char_traitsIcESaIcEEES6_ET0_T_S8_S7_
FNDA:0,_ZSt18uninitialized_copyIN9__gnu_cxx17__normal_iteratorIPKNSt7__cxx1112basic_stringIcSt11char_traitsIcESaIcEEESt6vectorIS7_SaIS7_EEEEPS7_ET0_T_SG_SF_
FNDA:0,_ZSt22__uninitialized_copy_aISt13move_iteratorIPNSt7__cxx1112basic_stringIcSt11char_traitsIcESaIcEEEES7_S6_ET0_T_SA_S9_RSaIT1_E
FNDA:0,_ZSt22__uninitialized_copy_aIPNSt7__cxx1112basic_stringIcSt11char_traitsIcESaIcEEES6_S5_ET0_T_S8_S7_RSaIT1_E
FNDA:0,_ZSt22__uninitialized_copy_aIN9__gnu_cxx17__normal_iteratorIPKNSt7__cxx1112basic_stringIcSt11char_traitsIcESaIcEEESt6vectorIS7_SaIS7_EEEEPS7_S7_ET0_T_SG_SF_RSaIT1_E
FNDA:0,_ZSt22__uninitialized_move_aIPNSt7__cxx1112basic_stringIcSt11char_traitsIcESaIcEEES6_SaIS5_EET0_T_S9_S8_RT1_
FNDA:0,_ZSt34__uninitialized_move_if_noexcept_aIPNSt7__cxx1112basic_stringIcSt11char_traitsIcESaIcEEES6_SaIS5_EET0_T_S9_S8_RT1_
FNF:11
FNH:0
DA:76,0
DA:79,0
DA:82,0
DA:83,0
DA:84,0
DA:86,0
DA:88,0
DA:89,0
DA:115,0
DA:128,0
DA:134,0
DA:287,0
DA:289,0
DA:294,0
DA:297,0
DA:299,0
DA:305,0
DA:311,0
DA:312,0
LF:19
LH:0
end_of_record
SF:/usr/include/c++/7/bits/stl_vector.h
FN:81,_ZNSt12_Vector_baseINSt7__cxx1112basic_stringIcSt11char_traitsIcESaIcEEESaIS5_EE12_Vector_implD2Ev
FN:88,_ZNSt12_Vector_baseINSt7__cxx1112basic_stringIcSt11char_traitsIcESaIcEEESaIS5_EE12_Vector_implC2Ev
FN:92,_ZNSt12_Vector_baseINSt7__cxx1112basic_stringIcSt11char_traitsIcESaIcEEESaIS5_EE12_Vector_implC2ERKS6_
FN:97,_ZNSt12_Vector_baseINSt7__cxx1112basic_stringIcSt11char_traitsIcESaIcEEESaIS5_EE12_Vector_implC2EOS6_
FN:103,_ZNSt12_Vector_baseINSt7__cxx1112basic_stringIcSt11char_traitsIcESaIcEEESaIS5_EE12_Vector_impl12_M_swap_dataERS8_
FN:115,_ZNSt12_Vector_baseINSt7__cxx1112basic_stringIcSt11char_traitsIcESaIcEEESaIS5_EE19_M_get_Tp_allocatorEv
FN:119,_ZNKSt12_Vector_baseINSt7__cxx1112basic_stringIcSt11char_traitsIcESaIcEEESaIS5_EE19_M_get_Tp_allocatorEv
FN:123,_ZNKSt12_Vector_baseINSt7__cxx1112basic_stringIcSt11char_traitsIcESaIcEEESaIS5_EE13get_allocatorEv
FN:126,_ZNSt12_Vector_baseINSt7__cxx1112basic_stringIcSt11char_traitsIcESaIcEEESaIS5_EEC2Ev
FN:129,_ZNSt12_Vector_baseINSt7__cxx1112basic_stringIcSt11char_traitsIcESaIcEEESaIS5_EEC2ERKS6_
FN:136,_ZNSt12_Vector_baseINSt7__cxx1112basic_stringIcSt11char_traitsIcESaIcEEESaIS5_EEC2EmRKS6_
FN:144,_ZNSt12_Vector_baseINSt7__cxx1112basic_stringIcSt11char_traitsIcESaIcEEESaIS5_EEC2EOS7_
FN:161,_ZNSt12_Vector_baseINSt7__cxx1112basic_stringIcSt11char_traitsIcESaIcEEESaIS5_EED2Ev
FN:169,_ZNSt12_Vector_baseINSt7__cxx1112basic_stringIcSt11char_traitsIcESaIcEEESaIS5_EE11_M_allocateEm
FN:176,_ZNSt12_Vector_baseINSt7__cxx1112basic_stringIcSt11char_traitsIcESaIcEEESaIS5_EE13_M_deallocateEPS5_m
FN:185,_ZNSt12_Vector_baseINSt7__cxx1112basic_stringIcSt11char_traitsIcESaIcEEESaIS5_EE17_M_create_storageEm
FN:259,_ZNSt6vectorINSt7__cxx1112basic_stringIcSt11char_traitsIcESaIcEEESaIS5_EEC2Ev
FN:270,_ZNSt6vectorINSt7__cxx1112basic_stringIcSt11char_traitsIcESaIcEEESaIS5_EEC2ERKS6_
FN:326,_ZNSt6vectorINSt7__cxx1112basic_stringIcSt11char_traitsIcESaIcEEESaIS5_EEC2ERKS7_
FN:344,_ZNSt6vectorINSt7__cxx1112basic_stringIcSt11char_traitsIcESaIcEEESaIS5_EEC2EOS7_
FN:433,_ZNSt6vectorINSt7__cxx1112basic_stringIcSt11char_traitsIcESaIcEEESaIS5_EED2Ev
FN:461,_ZNSt6vectorINSt7__cxx1112basic_stringIcSt11char_traitsIcESaIcEEESaIS5_EEaSEOS7_
FN:563,_ZNSt6vectorINSt7__cxx1112basic_stringIcSt11char_traitsIcESaIcEEESaIS5_EE5beginEv
FN:572,_ZNKSt6vectorINSt7__cxx1112basic_stringIcSt11char_traitsIcESaIcEEESaIS5_EE5beginEv
FN:581,_ZNSt6vectorINSt7__cxx1112basic_stringIcSt11char_traitsIcESaIcEEESaIS5_EE3endEv
FN:590,_ZNKSt6vectorINSt7__cxx1112basic_stringIcSt11char_traitsIcESaIcEEESaIS5_EE3endEv
FN:636,_ZNKSt6vectorINSt7__cxx1112basic_stringIcSt11char_traitsIcESaIcEEESaIS5_EE6cbeginEv
FN:670,_ZNKSt6vectorINSt7__cxx1112basic_stringIcSt11char_traitsIcESaIcEEESaIS5_EE4sizeEv
FN:675,_ZNKSt6vectorINSt7__cxx1112basic_stringIcSt11char_traitsIcESaIcEEESaIS5_EE8max_sizeEv
FN:750,_ZNKSt6vectorINSt7__cxx1112basic_stringIcSt11char_traitsIcESaIcEEESaIS5_EE8capacityEv
FN:759,_ZNKSt6vectorINSt7__cxx1112basic_stringIcSt11char_traitsIcESaIcEEESaIS5_EE5emptyEv
FN:813,_ZNKSt6vectorINSt7__cxx1112basic_stringIcSt11char_traitsIcESaIcEEESaIS5_EEixEm
FN:895,_ZNSt6vectorINSt7__cxx1112basic_stringIcSt11char_traitsIcESaIcEEESaIS5_EE4backEv
FN:939,_ZNSt6vectorINSt7__cxx1112basic_stringIcSt11char_traitsIcESaIcEEESaIS5_EE9push_backERKS5_
FN:953,_ZNSt6vectorINSt7__cxx1112basic_stringIcSt11char_traitsIcESaIcEEESaIS5_EE9push_backEOS5_
FN:975,_ZNSt6vectorINSt7__cxx1112basic_stringIcSt11char_traitsIcESaIcEEESaIS5_EE8pop_backEv
FN:1128,_ZNSt6vectorINSt7__cxx1112basic_stringIcSt11char_traitsIcESaIcEEESaIS5_EE6insertIN9__gnu_cxx17__normal_iteratorIPKS5_S7_EEvEENSA_IPS5_S7_EESD_T_SG_
FN:1179,_ZNSt6vectorINSt7__cxx1112basic_stringIcSt11char_traitsIcESaIcEEESaIS5_EE5eraseEN9__gnu_cxx17__normal_iteratorIPKS5_S7_EE
FN:1229,_ZNSt6vectorINSt7__cxx1112basic_stringIcSt11char_traitsIcESaIcEEESaIS5_EE4swapERS7_
FN:1247,_ZNSt6vectorINSt7__cxx1112basic_stringIcSt11char_traitsIcESaIcEEESaIS5_EE5clearEv
FN:1257,_ZNSt6vectorINSt7__cxx1112basic_stringIcSt11char_traitsIcESaIcEEESaIS5_EE20_M_allocate_and_copyIN9__gnu_cxx17__normal_iteratorIPKS5_S7_EEEEPS5_mT_SF_
FN:1408,_ZNSt6vectorINSt7__cxx1112basic_stringIcSt11char_traitsIcESaIcEEESaIS5_EE18_M_insert_dispatchIN9__gnu_cxx17__normal_iteratorIPKS5_S7_EEEEvNSA_IPS5_S7_EET_SG_St12__false_type
FN:1502,_ZNKSt6vectorINSt7__cxx1112basic_stringIcSt11char_traitsIcESaIcEEESaIS5_EE12_M_check_lenEmPKc
FN:1516,_ZNSt6vectorINSt7__cxx1112basic_stringIcSt11char_traitsIcESaIcEEESaIS5_EE15_M_erase_at_endEPS5_
FN:1534,_ZNSt6vectorINSt7__cxx1112basic_stringIcSt11char_traitsIcESaIcEEESaIS5_EE14_M_move_assignEOS7_St17integral_constantIbLb1EE
FN:1649,_ZSt4swapINSt7__cxx1112basic_stringIcSt11char_traitsIcESaIcEEESaIS5_EEvRSt6vectorIT_T0_ESB_
FNDA:0,_ZNSt12_Vector_baseINSt7__cxx1112basic_stringIcSt11char_traitsIcESaIcEEESaIS5_EE12_Vector_implD2Ev
FNDA:0,_ZNSt12_Vector_baseINSt7__cxx1112basic_stringIcSt11char_traitsIcESaIcEEESaIS5_EE12_Vector_implC2Ev
FNDA:0,_ZNSt12_Vector_baseINSt7__cxx1112basic_stringIcSt11char_traitsIcESaIcEEESaIS5_EE12_Vector_implC2ERKS6_
FNDA:0,_ZNSt12_Vector_baseINSt7__cxx1112basic_stringIcSt11char_traitsIcESaIcEEESaIS5_EE12_Vector_implC2EOS6_
FNDA:0,_ZNSt12_Vector_baseINSt7__cxx1112basic_stringIcSt11char_traitsIcESaIcEEESaIS5_EE12_Vector_impl12_M_swap_dataERS8_
FNDA:0,_ZNSt12_Vector_baseINSt7__cxx1112basic_stringIcSt11char_traitsIcESaIcEEESaIS5_EE19_M_get_Tp_allocatorEv
FNDA:0,_ZNKSt12_Vector_baseINSt7__cxx1112basic_stringIcSt11char_traitsIcESaIcEEESaIS5_EE19_M_get_Tp_allocatorEv
FNDA:0,_ZNKSt12_Vector_baseINSt7__cxx1112basic_stringIcSt11char_traitsIcESaIcEEESaIS5_EE13get_allocatorEv
FNDA:0,_ZNSt12_Vector_baseINSt7__cxx1112basic_stringIcSt11char_traitsIcESaIcEEESaIS5_EEC2Ev
FNDA:0,_ZNSt12_Vector_baseINSt7__cxx1112basic_stringIcSt11char_traitsIcESaIcEEESaIS5_EEC2ERKS6_
FNDA:0,_ZNSt12_Vector_baseINSt7__cxx1112basic_stringIcSt11char_traitsIcESaIcEEESaIS5_EEC2EmRKS6_
FNDA:0,_ZNSt12_Vector_baseINSt7__cxx1112basic_stringIcSt11char_traitsIcESaIcEEESaIS5_EEC2EOS7_
FNDA:0,_ZNSt12_Vector_baseINSt7__cxx1112basic_stringIcSt11char_traitsIcESaIcEEESaIS5_EED2Ev
FNDA:0,_ZNSt12_Vector_baseINSt7__cxx1112basic_stringIcSt11char_traitsIcESaIcEEESaIS5_EE11_M_allocateEm
FNDA:0,_ZNSt12_Vector_baseINSt7__cxx1112basic_stringIcSt11char_traitsIcESaIcEEESaIS5_EE13_M_deallocateEPS5_m
FNDA:0,_ZNSt12_Vector_baseINSt7__cxx1112basic_stringIcSt11char_traitsIcESaIcEEESaIS5_EE17_M_create_storageEm
FNDA:0,_ZNSt6vectorINSt7__cxx1112basic_stringIcSt11char_traitsIcESaIcEEESaIS5_EEC2Ev
FNDA:0,_ZNSt6vectorINSt7__cxx1112basic_stringIcSt11char_traitsIcESaIcEEESaIS5_EEC2ERKS6_
FNDA:0,_ZNSt6vectorINSt7__cxx1112basic_stringIcSt11char_traitsIcESaIcEEESaIS5_EEC2ERKS7_
FNDA:0,_ZNSt6vectorINSt7__cxx1112basic_stringIcSt11char_traitsIcESaIcEEESaIS5_EEC2EOS7_
FNDA:0,_ZNSt6vectorINSt7__cxx1112basic_stringIcSt11char_traitsIcESaIcEEESaIS5_EED2Ev
FNDA:0,_ZNSt6vectorINSt7__cxx1112basic_stringIcSt11char_traitsIcESaIcEEESaIS5_EEaSEOS7_
FNDA:0,_ZNSt6vectorINSt7__cxx1112basic_stringIcSt11char_traitsIcESaIcEEESaIS5_EE5beginEv
FNDA:0,_ZNKSt6vectorINSt7__cxx1112basic_stringIcSt11char_traitsIcESaIcEEESaIS5_EE5beginEv
FNDA:0,_ZNSt6vectorINSt7__cxx1112basic_stringIcSt11char_traitsIcESaIcEEESaIS5_EE3endEv
FNDA:0,_ZNKSt6vectorINSt7__cxx1112basic_stringIcSt11char_traitsIcESaIcEEESaIS5_EE3endEv
FNDA:0,_ZNKSt6vectorINSt7__cxx1112basic_stringIcSt11char_traitsIcESaIcEEESaIS5_EE6cbeginEv
FNDA:0,_ZNKSt6vectorINSt7__cxx1112basic_stringIcSt11char_traitsIcESaIcEEESaIS5_EE4sizeEv
FNDA:0,_ZNKSt6vectorINSt7__cxx1112basic_stringIcSt11char_traitsIcESaIcEEESaIS5_EE8max_sizeEv
FNDA:0,_ZNKSt6vectorINSt7__cxx1112basic_stringIcSt11char_traitsIcESaIcEEESaIS5_EE8capacityEv
FNDA:0,_ZNKSt6vectorINSt7__cxx1112basic_stringIcSt11char_traitsIcESaIcEEESaIS5_EE5emptyEv
FNDA:0,_ZNKSt6vectorINSt7__cxx1112basic_stringIcSt11char_traitsIcESaIcEEESaIS5_EEixEm
FNDA:0,_ZNSt6vectorINSt7__cxx1112basic_stringIcSt11char_traitsIcESaIcEEESaIS5_EE4backEv
FNDA:0,_ZNSt6vectorINSt7__cxx1112basic_stringIcSt11char_traitsIcESaIcEEESaIS5_EE9push_backERKS5_
FNDA:0,_ZNSt6vectorINSt7__cxx1112basic_stringIcSt11char_traitsIcESaIcEEESaIS5_EE9push_backEOS5_
FNDA:0,_ZNSt6vectorINSt7__cxx1112basic_stringIcSt11char_traitsIcESaIcEEESaIS5_EE8pop_backEv
FNDA:0,_ZNSt6vectorINSt7__cxx1112basic_stringIcSt11char_traitsIcESaIcEEESaIS5_EE6insertIN9__gnu_cxx17__normal_iteratorIPKS5_S7_EEvEENSA_IPS5_S7_EESD_T_SG_
FNDA:0,_ZNSt6vectorINSt7__cxx1112basic_stringIcSt11char_traitsIcESaIcEEESaIS5_EE5eraseEN9__gnu_cxx17__normal_iteratorIPKS5_S7_EE
FNDA:0,_ZNSt6vectorINSt7__cxx1112basic_stringIcSt11char_traitsIcESaIcEEESaIS5_EE4swapERS7_
FNDA:0,_ZNSt6vectorINSt7__cxx1112basic_stringIcSt11char_traitsIcESaIcEEESaIS5_EE5clearEv
FNDA:0,_ZNSt6vectorINSt7__cxx1112basic_stringIcSt11char_traitsIcESaIcEEESaIS5_EE20_M_allocate_and_copyIN9__gnu_cxx17__normal_iteratorIPKS5_S7_EEEEPS5_mT_SF_
FNDA:0,_ZNSt6vectorINSt7__cxx1112basic_stringIcSt11char_traitsIcESaIcEEESaIS5_EE18_M_insert_dispatchIN9__gnu_cxx17__normal_iteratorIPKS5_S7_EEEEvNSA_IPS5_S7_EET_SG_St12__false_type
FNDA:0,_ZNKSt6vectorINSt7__cxx1112basic_stringIcSt11char_traitsIcESaIcEEESaIS5_EE12_M_check_lenEmPKc
FNDA:0,_ZNSt6vectorINSt7__cxx1112basic_stringIcSt11char_traitsIcESaIcEEESaIS5_EE15_M_erase_at_endEPS5_
FNDA:0,_ZNSt6vectorINSt7__cxx1112basic_stringIcSt11char_traitsIcESaIcEEESaIS5_EE14_M_move_assignEOS7_St17integral_constantIbLb1EE
FNDA:0,_ZSt4swapINSt7__cxx1112basic_stringIcSt11char_traitsIcESaIcEEESaIS5_EEvRSt6vectorIT_T0_ESB_
FNF:46
FNH:0
DA:81,0
DA:88,0
DA:89,0
DA:90,0
DA:92,0
DA:93,0
DA:94,0
DA:97,0
DA:98,0
DA:99,0
DA:100,0
DA:103,0
DA:105,0
DA:106,0
DA:107,0
DA:108,0
DA:115,0
DA:116,0
DA:119,0
DA:120,0
DA:123,0
DA:124,0
DA:126,0
DA:127,0
DA:129,0
DA:130,0
DA:136,0
DA:137,0
DA:138,0
DA:144,0
DA:145,0
DA:146,0
DA:161,0
DA:162,0
DA:163,0
DA:169,0
DA:172,0
DA:176,0
DA:179,0
DA:180,0
DA:181,0
DA:185,0
DA:187,0
DA:188,0
DA:189,0
DA:190,0
DA:259,0
DA:263,0
DA:270,0
DA:271,0
DA:326,0
DA:328,0
DA:330,0
DA:331,0
DA:333,0
DA:334,0
DA:344,0
DA:345,0
DA:433,0
DA:434,0
DA:435,0
DA:461,0
DA:463,0
DA:466,0
DA:467,0
DA:563,0
DA:564,0
DA:572,0
DA:573,0
DA:581,0
DA:582,0
DA:590,0
DA:591,0
DA:636,0
DA:637,0
DA:670,0
DA:671,0
DA:675,0
DA:676,0
DA:750,0
DA:751,0
DA:752,0
DA:759,0
DA:760,0
DA:813,0
DA:816,0
DA:895,0
DA:898,0
DA:939,0
DA:941,0
DA:943,0
DA:945,0
DA:948,0
DA:949,0
DA:953,0
DA:954,0
DA:975,0
DA:978,0
DA:979,0
DA:980,0
DA:1128,0
DA:1131,0
DA:1132,0
DA:1134,0
DA:1179,0
DA:1180,0
DA:1229,0
DA:1235,0
DA:1236,0
DA:1238,0
DA:1247,0
DA:1248,0
DA:1257,0
DA:1260,0
DA:1263,0
DA:1264,0
DA:1265,0
DA:1267,0
DA:1269,0
DA:1270,0
DA:1408,0
DA:1411,0
DA:1412,0
DA:1413,0
DA:1502,0
DA:1504,0
DA:1505,0
DA:1507,0
DA:1508,0
DA:1516,0
DA:1518,0
DA:1519,0
DA:1520,0
DA:1534,0
DA:1536,0
DA:1537,0
DA:1538,0
DA:1539,0
DA:1540,0
DA:1649,0
DA:1651,0
LF:141
LH:0
end_of_record
SF:/usr/include/c++/7/bits/vector.tcc
FN:95,_ZNSt6vectorINSt7__cxx1112basic_stringIcSt11char_traitsIcESaIcEEESaIS5_EE12emplace_backIJS5_EEEvDpOT_
FN:153,_ZNSt6vectorINSt7__cxx1112basic_stringIcSt11char_traitsIcESaIcEEESaIS5_EE8_M_eraseEN9__gnu_cxx17__normal_iteratorIPS5_S7_EE
FN:179,_ZNSt6vectorINSt7__cxx1112basic_stringIcSt11char_traitsIcESaIcEEESaIS5_EEaSERKS7_
FN:394,_ZNSt6vectorINSt7__cxx1112basic_stringIcSt11char_traitsIcESaIcEEESaIS5_EE17_M_realloc_insertIJS5_EEEvN9__gnu_cxx17__normal_iteratorIPS5_S7_EEDpOT_
FN:394,_ZNSt6vectorINSt7__cxx1112basic_stringIcSt11char_traitsIcESaIcEEESaIS5_EE17_M_realloc_insertIJRKS5_EEEvN9__gnu_cxx17__normal_iteratorIPS5_S7_EEDpOT_
FN:630,_ZNSt6vectorINSt7__cxx1112basic_stringIcSt11char_traitsIcESaIcEEESaIS5_EE15_M_range_insertIN9__gnu_cxx17__normal_iteratorIPKS5_S7_EEEEvNSA_IPS5_S7_EET_SG_St20forward_iterator_tag
FNDA:0,_ZNSt6vectorINSt7__cxx1112basic_stringIcSt11char_traitsIcESaIcEEESaIS5_EE12emplace_backIJS5_EEEvDpOT_
FNDA:0,_ZNSt6vectorINSt7__cxx1112basic_stringIcSt11char_traitsIcESaIcEEESaIS5_EE8_M_eraseEN9__gnu_cxx17__normal_iteratorIPS5_S7_EE
FNDA:0,_ZNSt6vectorINSt7__cxx1112basic_stringIcSt11char_traitsIcESaIcEEESaIS5_EEaSERKS7_
FNDA:0,_ZNSt6vectorINSt7__cxx1112basic_stringIcSt11char_traitsIcESaIcEEESaIS5_EE17_M_realloc_insertIJS5_EEEvN9__gnu_cxx17__normal_iteratorIPS5_S7_EEDpOT_
FNDA:0,_ZNSt6vectorINSt7__cxx1112basic_stringIcSt11char_traitsIcESaIcEEESaIS5_EE17_M_realloc_insertIJRKS5_EEEvN9__gnu_cxx17__normal_iteratorIPS5_S7_EEDpOT_
FNDA:0,_ZNSt6vectorINSt7__cxx1112basic_stringIcSt11char_traitsIcESaIcEEESaIS5_EE15_M_range_insertIN9__gnu_cxx17__normal_iteratorIPKS5_S7_EEEEvNSA_IPS5_S7_EET_SG_St20forward_iterator_tag
FNF:6
FNH:0
DA:95,0
DA:98,0
DA:100,0
DA:102,0
DA:105,0
DA:109,0
DA:153,0
DA:156,0
DA:157,0
DA:158,0
DA:159,0
DA:160,0
DA:179,0
DA:182,0
DA:185,0
DA:187,0
DA:188,0
DA:191,0
DA:192,0
DA:193,0
DA:194,0
DA:195,0
DA:196,0
DA:197,0
DA:199,0
DA:203,0
DA:204,0
DA:206,0
DA:208,0
DA:209,0
DA:210,0
DA:211,0
DA:212,0
DA:213,0
DA:214,0
DA:216,0
DA:218,0
DA:219,0
DA:223,0
DA:225,0
DA:226,0
DA:228,0
DA:230,0
DA:232,0
DA:394,0
DA:403,0
DA:405,0
DA:406,0
DA:407,0
DA:415,0
DA:416,0
DA:422,0
DA:424,0
DA:426,0
DA:427,0
DA:429,0
DA:431,0
DA:433,0
DA:434,0
DA:436,0
DA:438,0
DA:439,0
DA:440,0
DA:442,0
DA:443,0
DA:444,0
DA:446,0
DA:447,0
DA:448,0
DA:449,0
DA:450,0
DA:451,0
DA:452,0
DA:453,0
DA:454,0
DA:630,0
DA:634,0
DA:636,0
DA:637,0
DA:638,0
DA:640,0
DA:641,0
DA:642,0
DA:644,0
DA:647,0
DA:648,0
DA:649,0
DA:651,0
DA:655,0
DA:656,0
DA:657,0
DA:659,0
DA:660,0
DA:661,0
DA:664,0
DA:665,0
DA:666,0
DA:671,0
DA:673,0
DA:674,0
DA:677,0
DA:679,0
DA:680,0
DA:681,0
DA:684,0
DA:685,0
DA:687,0
DA:688,0
DA:690,0
DA:692,0
DA:693,0
DA:694,0
DA:695,0
DA:697,0
DA:698,0
DA:699,0
DA:700,0
DA:701,0
DA:702,0
DA:703,0
DA:704,0
DA:707,0
LF:122
LH:0
end_of_record
SF:/usr/include/c++/7/ext/alloc_traits.h
FN:94,_ZN9__gnu_cxx14__alloc_traitsISaINSt7__cxx1112basic_stringIcSt11char_traitsIcESaIcEEEEE17_S_select_on_copyERKS7_
FN:97,_ZN9__gnu_cxx14__alloc_traitsISaINSt7__cxx1112basic_stringIcSt11char_traitsIcESaIcEEEEE10_S_on_swapERS7_S9_
FN:100,_ZN9__gnu_cxx14__alloc_traitsISaINSt7__cxx1112basic_stringIcSt11char_traitsIcESaIcEEEEE27_S_propagate_on_copy_assignEv
FN:109,_ZN9__gnu_cxx14__alloc_traitsISaINSt7__cxx1112basic_stringIcSt11char_traitsIcESaIcEEEEE15_S_always_equalEv
FNDA:0,_ZN9__gnu_cxx14__alloc_traitsISaINSt7__cxx1112basic_stringIcSt11char_traitsIcESaIcEEEEE17_S_select_on_copyERKS7_
FNDA:0,_ZN9__gnu_cxx14__alloc_traitsISaINSt7__cxx1112basic_stringIcSt11char_traitsIcESaIcEEEEE10_S_on_swapERS7_S9_
FNDA:0,_ZN9__gnu_cxx14__alloc_traitsISaINSt7__cxx1112basic_stringIcSt11char_traitsIcESaIcEEEEE27_S_propagate_on_copy_assignEv
FNDA:0,_ZN9__gnu_cxx14__alloc_traitsISaINSt7__cxx1112basic_stringIcSt11char_traitsIcESaIcEEEEE15_S_always_equalEv
FNF:4
FNH:0
DA:94,0
DA:95,0
DA:97,0
DA:98,0
DA:100,0
DA:101,0
DA:109,0
DA:110,0
LF:8
LH:0
end_of_record
SF:/usr/include/c++/7/ext/new_allocator.h
FN:79,_ZN9__gnu_cxx13new_allocatorINSt7__cxx1112basic_stringIcSt11char_traitsIcESaIcEEEEC2Ev
FN:81,_ZN9__gnu_cxx13new_allocatorINSt7__cxx1112basic_stringIcSt11char_traitsIcESaIcEEEEC2ERKS7_
FN:86,_ZN9__gnu_cxx13new_allocatorINSt7__cxx1112basic_stringIcSt11char_traitsIcESaIcEEEED2Ev
FN:99,_ZN9__gnu_cxx13new_allocatorINSt7__cxx1112basic_stringIcSt11char_traitsIcESaIcEEEE8allocateEmPKv
FN:116,_ZN9__gnu_cxx13new_allocatorINSt7__cxx1112basic_stringIcSt11char_traitsIcESaIcEEEE10deallocateEPS6_m
FN:129,_ZNK9__gnu_cxx13new_allocatorINSt7__cxx1112basic_stringIcSt11char_traitsIcESaIcEEEE8max_sizeEv
FN:135,_ZN9__gnu_cxx13new_allocatorINSt7__cxx1112basic_stringIcSt11char_traitsIcESaIcEEEE9constructIS6_JRKS6_EEEvPT_DpOT0_
FN:135,_ZN9__gnu_cxx13new_allocatorINSt7__cxx1112basic_stringIcSt11char_traitsIcESaIcEEEE9constructIS6_JS6_EEEvPT_DpOT0_
FN:140,_ZN9__gnu_cxx13new_allocatorINSt7__cxx1112basic_stringIcSt11char_traitsIcESaIcEEEE7destroyIS6_EEvPT_
FNDA:0,_ZN9__gnu_cxx13new_allocatorINSt7__cxx1112basic_stringIcSt11char_traitsIcESaIcEEEEC2Ev
FNDA:0,_ZN9__gnu_cxx13new_allocatorINSt7__cxx1112basic_stringIcSt11char_traitsIcESaIcEEEEC2ERKS7_
FNDA:0,_ZN9__gnu_cxx13new_allocatorINSt7__cxx1112basic_stringIcSt11char_traitsIcESaIcEEEED2Ev
FNDA:0,_ZN9__gnu_cxx13new_allocatorINSt7__cxx1112basic_stringIcSt11char_traitsIcESaIcEEEE8allocateEmPKv
FNDA:0,_ZN9__gnu_cxx13new_allocatorINSt7__cxx1112basic_stringIcSt11char_traitsIcESaIcEEEE10deallocateEPS6_m
FNDA:0,_ZNK9__gnu_cxx13new_allocatorINSt7__cxx1112basic_stringIcSt11char_traitsIcESaIcEEEE8max_sizeEv
FNDA:0,_ZN9__gnu_cxx13new_allocatorINSt7__cxx1112basic_stringIcSt11char_traitsIcESaIcEEEE9constructIS6_JS6_EEEvPT_DpOT0_
FNDA:0,_ZN9__gnu_cxx13new_allocatorINSt7__cxx1112basic_stringIcSt11char_traitsIcESaIcEEEE9constructIS6_JRKS6_EEEvPT_DpOT0_
FNDA:0,_ZN9__gnu_cxx13new_allocatorINSt7__cxx1112basic_stringIcSt11char_traitsIcESaIcEEEE7destroyIS6_EEvPT_
FNF:9
FNH:0
DA:79,0
DA:81,0
DA:86,0
DA:99,0
DA:101,0
DA:102,0
DA:111,0
DA:116,0
DA:125,0
DA:126,0
DA:129,0
DA:130,0
DA:135,0
DA:136,0
DA:140,0
LF:15
LH:0
end_of_record
SF:/usr/include/c++/7/iostream
DA:74,1
LF:1
LH:1
end_of_record
SF:/usr/include/c++/7/new
FN:168,_ZnwmPv
FN:174,_ZdlPvS_
FNDA:0,_ZnwmPv
FNDA:0,_ZdlPvS_
FNF:2
FNH:0
DA:168,0
DA:169,0
DA:174,0
LF:3
LH:0
end_of_record
TN:
SF:/home/vera/poco/Foundation/src/pcre_valid_utf8.c
FN:104,_pcre_valid_utf
FNDA:0,_pcre_valid_utf
FNF:1
FNH:0
DA:104,0
DA:109,0
DA:111,0
DA:112,0
DA:115,0
DA:119,0
DA:120,0
DA:122,0
DA:124,0
DA:125,0
DA:128,0
DA:130,0
DA:131,0
DA:134,0
DA:135,0
DA:137,0
DA:138,0
DA:140,0
DA:144,0
DA:146,0
DA:147,0
DA:154,0
DA:159,0
DA:161,0
DA:162,0
DA:164,0
DA:170,0
DA:171,0
DA:173,0
DA:174,0
DA:176,0
DA:178,0
DA:179,0
DA:181,0
DA:183,0
DA:184,0
DA:186,0
DA:192,0
DA:193,0
DA:195,0
DA:196,0
DA:198,0
DA:200,0
DA:201,0
DA:203,0
DA:205,0
DA:206,0
DA:208,0
DA:210,0
DA:211,0
DA:213,0
DA:223,0
DA:224,0
DA:226,0
DA:227,0
DA:229,0
DA:231,0
DA:232,0
DA:234,0
DA:236,0
DA:237,0
DA:239,0
DA:241,0
DA:242,0
DA:244,0
DA:249,0
DA:250,0
DA:252,0
DA:253,0
DA:255,0
DA:257,0
DA:258,0
DA:260,0
DA:262,0
DA:263,0
DA:265,0
DA:267,0
DA:268,0
DA:270,0
DA:272,0
DA:273,0
DA:275,0
DA:282,0
DA:284,0
DA:285,0
DA:295,0
LF:86
LH:0
end_of_record
TN:
SF:/home/vera/poco/Foundation/include/Poco/AtomicCounter.h
FN:100,_ZN4Poco13AtomicCounterppEv
FN:112,_ZN4Poco13AtomicCountermmEv
FNDA:0,_ZN4Poco13AtomicCounterppEv
FNDA:0,_ZN4Poco13AtomicCountermmEv
FNF:2
FNH:0
DA:100,0
DA:102,0
DA:112,0
DA:114,0
LF:4
LH:0
end_of_record
SF:/home/vera/poco/Foundation/include/Poco/RefCountedObject.h
FN:72,_ZNK4Poco16RefCountedObject9duplicateEv
FN:78,_ZNK4Poco16RefCountedObject7releaseEv
FNDA:0,_ZNK4Poco16RefCountedObject9duplicateEv
FNDA:0,_ZNK4Poco16RefCountedObject7releaseEv
FNF:2
FNH:0
DA:72,0
DA:74,0
DA:75,0
DA:78,0
DA:82,0
DA:84,0
DA:86,0
DA:88,0
LF:8
LH:0
end_of_record
SF:/home/vera/poco/Foundation/src/Pipe.cpp
FN:21,_ZN4Poco4PipeC2Ev
FN:27,_ZN4Poco4PipeC2ERKS0_
FN:34,_ZN4Poco4PipeD2Ev
FN:40,_ZN4Poco4PipeaSERKS0_
FN:52,_ZN4Poco4Pipe5closeENS0_9CloseModeE
FN:70,_Z41__static_initialization_and_destruction_0ii
FN:70,_GLOBAL__sub_I_Pipe.cpp
FNDA:0,_ZN4Poco4PipeC2Ev
FNDA:0,_ZN4Poco4PipeC2ERKS0_
FNDA:0,_ZN4Poco4PipeD2Ev
FNDA:0,_ZN4Poco4PipeaSERKS0_
FNDA:0,_ZN4Poco4Pipe5closeENS0_9CloseModeE
FNDA:1,_GLOBAL__sub_I_Pipe.cpp
FNDA:1,_Z41__static_initialization_and_destruction_0ii
FNF:7
FNH:2
DA:21,0
DA:22,0
DA:24,0
DA:27,0
DA:28,0
DA:30,0
DA:31,0
DA:34,0
DA:36,0
DA:37,0
DA:40,0
DA:42,0
DA:44,0
DA:45,0
DA:46,0
DA:48,0
DA:52,0
DA:54,0
DA:56,0
DA:57,0
DA:58,0
DA:59,0
DA:60,0
DA:61,0
DA:62,0
DA:63,0
DA:64,0
DA:65,0
DA:67,0
DA:70,3
LF:30
LH:1
end_of_record
SF:/usr/include/c++/7/bits/atomic_base.h
FN:295,_ZNSt13__atomic_baseIiEppEv
FN:303,_ZNSt13__atomic_baseIiEmmEv
FNDA:0,_ZNSt13__atomic_baseIiEppEv
FNDA:0,_ZNSt13__atomic_baseIiEmmEv
FNF:2
FNH:0
DA:295,0
DA:296,0
DA:303,0
DA:304,0
LF:4
LH:0
end_of_record
SF:/usr/include/c++/7/iostream
DA:74,1
LF:1
LH:1
end_of_record
TN:
SF:/home/vera/poco/Foundation/include/Poco/Ascii.h
FN:127,_ZN4Poco5Ascii10propertiesEi
FN:136,_ZN4Poco5Ascii7isAsciiEi
FN:142,_ZN4Poco5Ascii13hasPropertiesEii
FN:196,_ZN4Poco5Ascii7isUpperEi
FN:208,_ZN4Poco5Ascii7toLowerEi
FNDA:0,_ZN4Poco5Ascii10propertiesEi
FNDA:0,_ZN4Poco5Ascii7isAsciiEi
FNDA:0,_ZN4Poco5Ascii13hasPropertiesEii
FNDA:0,_ZN4Poco5Ascii7isUpperEi
FNDA:0,_ZN4Poco5Ascii7toLowerEi
FNF:5
FNH:0
DA:127,0
DA:129,0
DA:130,0
DA:132,0
DA:136,0
DA:138,0
DA:142,0
DA:144,0
DA:196,0
DA:198,0
DA:208,0
DA:210,0
DA:211,0
DA:213,0
LF:14
LH:0
end_of_record
SF:/home/vera/poco/Foundation/include/Poco/FPEnvironment.h
FN:192,_ZN4Poco13FPEnvironment8copySignEdd
FNDA:0,_ZN4Poco13FPEnvironment8copySignEdd
FNF:1
FNH:0
DA:192,0
DA:194,0
LF:2
LH:0
end_of_record
SF:/home/vera/poco/Foundation/include/Poco/FPEnvironment_C99.h
FN:116,_ZN4Poco17FPEnvironmentImpl12copySignImplEdd
FNDA:0,_ZN4Poco17FPEnvironmentImpl12copySignImplEdd
FNF:1
FNH:0
DA:116,0
DA:118,0
LF:2
LH:0
end_of_record
SF:/home/vera/poco/Foundation/include/Poco/NumericString.h
FN:72,_ZN4Poco4Impl14IsNegativeImplILb1ElEclEl
FN:79,_ZN4Poco4Impl14IsNegativeImplILb0EmEclEm
FN:86,_ZN4Poco10isNegativeImEEbT_
FN:86,_ZN4Poco10isNegativeIlEEbT_
FN:94,_ZN4Poco13isIntOverflowImlEEbT0_
FN:94,_ZN4Poco13isIntOverflowIllEEbT0_
FN:94,_ZN4Poco13isIntOverflowIimEEbT0_
FN:94,_ZN4Poco13isIntOverflowIjlEEbT0_
FN:94,_ZN4Poco13isIntOverflowIjmEEbT0_
FN:94,_ZN4Poco13isIntOverflowIilEEbT0_
FN:94,_ZN4Poco13isIntOverflowIlmEEbT0_
FN:94,_ZN4Poco13isIntOverflowImmEEbT0_
FN:168,_ZN4Poco8strToIntIjEEbPKcRT_sc
FN:168,_ZN4Poco8strToIntImEEbPKcRT_sc
FN:168,_ZN4Poco8strToIntIiEEbPKcRT_sc
FN:168,_ZN4Poco8strToIntIlEEbPKcRT_sc
FNDA:0,_ZN4Poco4Impl14IsNegativeImplILb1ElEclEl
FNDA:0,_ZN4Poco4Impl14IsNegativeImplILb0EmEclEm
FNDA:0,_ZN4Poco10isNegativeImEEbT_
FNDA:0,_ZN4Poco10isNegativeIlEEbT_
FNDA:0,_ZN4Poco13isIntOverflowImmEEbT0_
FNDA:0,_ZN4Poco13isIntOverflowImlEEbT0_
FNDA:0,_ZN4Poco13isIntOverflowIlmEEbT0_
FNDA:0,_ZN4Poco13isIntOverflowIllEEbT0_
FNDA:0,_ZN4Poco13isIntOverflowIjmEEbT0_
FNDA:0,_ZN4Poco13isIntOverflowIjlEEbT0_
FNDA:2,_ZN4Poco13isIntOverflowIimEEbT0_
FNDA:0,_ZN4Poco13isIntOverflowIilEEbT0_
FNDA:0,_ZN4Poco8strToIntImEEbPKcRT_sc
FNDA:0,_ZN4Poco8strToIntIlEEbPKcRT_sc
FNDA:0,_ZN4Poco8strToIntIjEEbPKcRT_sc
FNDA:2,_ZN4Poco8strToIntIiEEbPKcRT_sc
FNF:16
FNH:2
DA:72,0
DA:79,0
DA:86,0
DA:89,0
DA:94,2
DA:101,2
DA:102,4
DA:103,4
DA:104,2
DA:108,0
DA:109,0
DA:111,2
DA:168,2
DA:177,2
DA:179,2
DA:180,2
DA:181,2
DA:182,2
DA:183,2
DA:185,0
DA:186,0
DA:187,0
DA:189,2
DA:193,2
DA:194,2
DA:196,0
DA:202,0
DA:205,0
DA:206,0
DA:210,2
DA:211,16
DA:213,7
DA:214,7
DA:216,5
DA:219,5
DA:220,5
DA:221,5
DA:223,5
DA:225,2
DA:226,2
DA:228,2
DA:229,2
DA:230,2
DA:232,0
DA:234,2
DA:236,0
DA:238,0
DA:239,0
DA:240,0
DA:241,0
DA:243,0
DA:245,0
DA:247,0
DA:248,0
DA:249,0
DA:250,0
DA:252,0
DA:254,0
DA:255,0
DA:256,0
DA:259,0
DA:260,0
DA:263,0
DA:266,0
DA:270,2
DA:272,0
DA:275,0
DA:277,0
DA:278,0
DA:279,0
DA:283,2
DA:284,2
DA:287,2
LF:73
LH:35
end_of_record
SF:/home/vera/poco/Foundation/include/Poco/String.h
FN:283,_ZN4Poco8icompareINSt7__cxx1112basic_stringIcSt11char_traitsIcESaIcEEEEEiRKT_NS7_9size_typeESA_PKNS7_10value_typeE
FN:324,_ZN4Poco8icompareINSt7__cxx1112basic_stringIcSt11char_traitsIcESaIcEEEEEiRKT_PKNS7_10value_typeE
FNDA:0,_ZN4Poco8icompareINSt7__cxx1112basic_stringIcSt11char_traitsIcESaIcEEEEEiRKT_NS7_9size_typeESA_PKNS7_10value_typeE
FNDA:0,_ZN4Poco8icompareINSt7__cxx1112basic_stringIcSt11char_traitsIcESaIcEEEEEiRKT_PKNS7_10value_typeE
FNF:2
FNH:0
DA:283,0
DA:289,0
DA:290,0
DA:291,0
DA:292,0
DA:293,0
DA:294,0
DA:295,0
DA:297,0
DA:298,0
DA:299,0
DA:300,0
DA:301,0
DA:302,0
DA:303,0
DA:306,0
DA:307,0
DA:309,0
DA:324,0
DA:328,0
LF:20
LH:0
end_of_record
SF:/home/vera/poco/Foundation/src/NumberParser.cpp
FN:41,_ZN4Poco12NumberParser5parseERKNSt7__cxx1112basic_stringIcSt11char_traitsIcESaIcEEEc
FN:51,_ZN4Poco12NumberParser8tryParseERKNSt7__cxx1112basic_stringIcSt11char_traitsIcESaIcEEERic
FN:57,_ZN4Poco12NumberParser13parseUnsignedERKNSt7__cxx1112basic_stringIcSt11char_traitsIcESaIcEEEc
FN:67,_ZN4Poco12NumberParser16tryParseUnsignedERKNSt7__cxx1112basic_stringIcSt11char_traitsIcESaIcEEERjc
FN:73,_ZN4Poco12NumberParser8parseHexERKNSt7__cxx1112basic_stringIcSt11char_traitsIcESaIcEEE
FN:83,_ZN4Poco12NumberParser11tryParseHexERKNSt7__cxx1112basic_stringIcSt11char_traitsIcESaIcEEERj
FN:91,_ZN4Poco12NumberParser8parseOctERKNSt7__cxx1112basic_stringIcSt11char_traitsIcESaIcEEE
FN:101,_ZN4Poco12NumberParser11tryParseOctERKNSt7__cxx1112basic_stringIcSt11char_traitsIcESaIcEEERj
FN:110,_ZN4Poco12NumberParser7parse64ERKNSt7__cxx1112basic_stringIcSt11char_traitsIcESaIcEEEc
FN:120,_ZN4Poco12NumberParser10tryParse64ERKNSt7__cxx1112basic_stringIcSt11char_traitsIcESaIcEEERlc
FN:126,_ZN4Poco12NumberParser15parseUnsigned64ERKNSt7__cxx1112basic_stringIcSt11char_traitsIcESaIcEEEc
FN:136,_ZN4Poco12NumberParser18tryParseUnsigned64ERKNSt7__cxx1112basic_stringIcSt11char_traitsIcESaIcEEERmc
FN:142,_ZN4Poco12NumberParser10parseHex64ERKNSt7__cxx1112basic_stringIcSt11char_traitsIcESaIcEEE
FN:152,_ZN4Poco12NumberParser13tryParseHex64ERKNSt7__cxx1112basic_stringIcSt11char_traitsIcESaIcEEERm
FN:160,_ZN4Poco12NumberParser10parseOct64ERKNSt7__cxx1112basic_stringIcSt11char_traitsIcESaIcEEE
FN:170,_ZN4Poco12NumberParser13tryParseOct64ERKNSt7__cxx1112basic_stringIcSt11char_traitsIcESaIcEEERm
FN:179,_ZN4Poco12NumberParser10parseFloatERKNSt7__cxx1112basic_stringIcSt11char_traitsIcESaIcEEEcc
FN:189,_ZN4Poco12NumberParser13tryParseFloatERKNSt7__cxx1112basic_stringIcSt11char_traitsIcESaIcEEERdcc
FN:195,_ZN4Poco12NumberParser9parseBoolERKNSt7__cxx1112basic_stringIcSt11char_traitsIcESaIcEEE
FN:205,_ZN4Poco12NumberParser12tryParseBoolERKNSt7__cxx1112basic_stringIcSt11char_traitsIcESaIcEEERb
FN:250,_Z41__static_initialization_and_destruction_0ii
FN:250,_GLOBAL__sub_I_NumberParser.cpp
FNDA:0,_ZN4Poco12NumberParser5parseERKNSt7__cxx1112basic_stringIcSt11char_traitsIcESaIcEEEc
FNDA:2,_ZN4Poco12NumberParser8tryParseERKNSt7__cxx1112basic_stringIcSt11char_traitsIcESaIcEEERic
FNDA:0,_ZN4Poco12NumberParser13parseUnsignedERKNSt7__cxx1112basic_stringIcSt11char_traitsIcESaIcEEEc
FNDA:0,_ZN4Poco12NumberParser16tryParseUnsignedERKNSt7__cxx1112basic_stringIcSt11char_traitsIcESaIcEEERjc
FNDA:0,_ZN4Poco12NumberParser8parseHexERKNSt7__cxx1112basic_stringIcSt11char_traitsIcESaIcEEE
FNDA:0,_ZN4Poco12NumberParser11tryParseHexERKNSt7__cxx1112basic_stringIcSt11char_traitsIcESaIcEEERj
FNDA:0,_ZN4Poco12NumberParser8parseOctERKNSt7__cxx1112basic_stringIcSt11char_traitsIcESaIcEEE
FNDA:0,_ZN4Poco12NumberParser11tryParseOctERKNSt7__cxx1112basic_stringIcSt11char_traitsIcESaIcEEERj
FNDA:0,_ZN4Poco12NumberParser7parse64ERKNSt7__cxx1112basic_stringIcSt11char_traitsIcESaIcEEEc
FNDA:0,_ZN4Poco12NumberParser10tryParse64ERKNSt7__cxx1112basic_stringIcSt11char_traitsIcESaIcEEERlc
FNDA:0,_ZN4Poco12NumberParser15parseUnsigned64ERKNSt7__cxx1112basic_stringIcSt11char_traitsIcESaIcEEEc
FNDA:0,_ZN4Poco12NumberParser18tryParseUnsigned64ERKNSt7__cxx1112basic_stringIcSt11char_traitsIcESaIcEEERmc
FNDA:0,_ZN4Poco12NumberParser10parseHex64ERKNSt7__cxx1112basic_stringIcSt11char_traitsIcESaIcEEE
FNDA:0,_ZN4Poco12NumberParser13tryParseHex64ERKNSt7__cxx1112basic_stringIcSt11char_traitsIcESaIcEEERm
FNDA:0,_ZN4Poco12NumberParser10parseOct64ERKNSt7__cxx1112basic_stringIcSt11char_traitsIcESaIcEEE
FNDA:0,_ZN4Poco12NumberParser13tryParseOct64ERKNSt7__cxx1112basic_stringIcSt11char_traitsIcESaIcEEERm
FNDA:0,_ZN4Poco12NumberParser10parseFloatERKNSt7__cxx1112basic_stringIcSt11char_traitsIcESaIcEEEcc
FNDA:0,_ZN4Poco12NumberParser13tryParseFloatERKNSt7__cxx1112basic_stringIcSt11char_traitsIcESaIcEEERdcc
FNDA:0,_ZN4Poco12NumberParser9parseBoolERKNSt7__cxx1112basic_stringIcSt11char_traitsIcESaIcEEE
FNDA:0,_ZN4Poco12NumberParser12tryParseBoolERKNSt7__cxx1112basic_stringIcSt11char_traitsIcESaIcEEERb
FNDA:1,_GLOBAL__sub_I_NumberParser.cpp
FNDA:1,_Z41__static_initialization_and_destruction_0ii
FNF:22
FNH:3
DA:41,0
DA:44,0
DA:45,0
DA:47,0
DA:51,2
DA:53,2
DA:57,0
DA:60,0
DA:61,0
DA:63,0
DA:67,0
DA:69,0
DA:73,0
DA:76,0
DA:77,0
DA:79,0
DA:83,0
DA:85,0
DA:86,0
DA:87,0
DA:91,0
DA:94,0
DA:95,0
DA:97,0
DA:101,0
DA:103,0
DA:110,0
DA:113,0
DA:114,0
DA:116,0
DA:120,0
DA:122,0
DA:126,0
DA:129,0
DA:130,0
DA:132,0
DA:136,0
DA:138,0
DA:142,0
DA:145,0
DA:146,0
DA:148,0
DA:152,0
DA:154,0
DA:155,0
DA:156,0
DA:160,0
DA:163,0
DA:164,0
DA:166,0
DA:170,0
DA:172,0
DA:179,0
DA:182,0
DA:183,0
DA:185,0
DA:189,0
DA:191,0
DA:195,0
DA:198,0
DA:199,0
DA:201,0
DA:205,0
DA:208,0
DA:210,0
DA:211,0
DA:214,0
DA:216,0
DA:217,0
DA:219,0
DA:221,0
DA:222,0
DA:224,0
DA:226,0
DA:227,0
DA:230,0
DA:232,0
DA:233,0
DA:235,0
DA:237,0
DA:238,0
DA:240,0
DA:242,0
DA:243,0
DA:246,0
DA:250,3
LF:86
LH:3
end_of_record
SF:/usr/include/c++/7/bits/stl_iterator.h
FN:782,_ZN9__gnu_cxx17__normal_iteratorIPKcNSt7__cxx1112basic_stringIcSt11char_traitsIcESaIcEEEEC2ERKS2_
FN:795,_ZNK9__gnu_cxx17__normal_iteratorIPKcNSt7__cxx1112basic_stringIcSt11char_traitsIcESaIcEEEEdeEv
FN:803,_ZN9__gnu_cxx17__normal_iteratorIPKcNSt7__cxx1112basic_stringIcSt11char_traitsIcESaIcEEEEppEv
FN:835,_ZNK9__gnu_cxx17__normal_iteratorIPKcNSt7__cxx1112basic_stringIcSt11char_traitsIcESaIcEEEEplEl
FN:847,_ZNK9__gnu_cxx17__normal_iteratorIPKcNSt7__cxx1112basic_stringIcSt11char_traitsIcESaIcEEEE4baseEv
FN:869,_ZN9__gnu_cxxeqIPKcNSt7__cxx1112basic_stringIcSt11char_traitsIcESaIcEEEEEbRKNS_17__normal_iteratorIT_T0_EESE_
FN:883,_ZN9__gnu_cxxneIPKcNSt7__cxx1112basic_stringIcSt11char_traitsIcESaIcEEEEEbRKNS_17__normal_iteratorIT_T0_EESE_
FNDA:0,_ZN9__gnu_cxx17__normal_iteratorIPKcNSt7__cxx1112basic_stringIcSt11char_traitsIcESaIcEEEEC2ERKS2_
FNDA:0,_ZNK9__gnu_cxx17__normal_iteratorIPKcNSt7__cxx1112basic_stringIcSt11char_traitsIcESaIcEEEEdeEv
FNDA:0,_ZN9__gnu_cxx17__normal_iteratorIPKcNSt7__cxx1112basic_stringIcSt11char_traitsIcESaIcEEEEppEv
FNDA:0,_ZNK9__gnu_cxx17__normal_iteratorIPKcNSt7__cxx1112basic_stringIcSt11char_traitsIcESaIcEEEEplEl
FNDA:0,_ZNK9__gnu_cxx17__normal_iteratorIPKcNSt7__cxx1112basic_stringIcSt11char_traitsIcESaIcEEEE4baseEv
FNDA:0,_ZN9__gnu_cxxeqIPKcNSt7__cxx1112basic_stringIcSt11char_traitsIcESaIcEEEEEbRKNS_17__normal_iteratorIT_T0_EESE_
FNDA:0,_ZN9__gnu_cxxneIPKcNSt7__cxx1112basic_stringIcSt11char_traitsIcESaIcEEEEEbRKNS_17__normal_iteratorIT_T0_EESE_
FNF:7
FNH:0
DA:782,0
DA:783,0
DA:795,0
DA:796,0
DA:803,0
DA:805,0
DA:806,0
DA:835,0
DA:836,0
DA:847,0
DA:848,0
DA:869,0
DA:872,0
DA:883,0
DA:886,0
LF:15
LH:0
end_of_record
SF:/usr/include/c++/7/iostream
DA:74,1
LF:1
LH:1
end_of_record
SF:/usr/include/c++/7/limits
FN:999,_ZNSt14numeric_limitsIiE3minEv
FN:1002,_ZNSt14numeric_limitsIiE3maxEv
FN:1069,_ZNSt14numeric_limitsIjE3maxEv
FN:1138,_ZNSt14numeric_limitsIlE3minEv
FN:1141,_ZNSt14numeric_limitsIlE3maxEv
FN:1205,_ZNSt14numeric_limitsImE3minEv
FN:1208,_ZNSt14numeric_limitsImE3maxEv
FNDA:2,_ZNSt14numeric_limitsIiE3minEv
FNDA:2,_ZNSt14numeric_limitsIiE3maxEv
FNDA:0,_ZNSt14numeric_limitsIjE3maxEv
FNDA:0,_ZNSt14numeric_limitsIlE3minEv
FNDA:0,_ZNSt14numeric_limitsIlE3maxEv
FNDA:0,_ZNSt14numeric_limitsImE3minEv
FNDA:0,_ZNSt14numeric_limitsImE3maxEv
FNF:7
FNH:2
DA:999,2
DA:1002,2
DA:1069,0
DA:1138,0
DA:1141,0
DA:1205,0
DA:1208,0
LF:7
LH:2
end_of_record
TN:
SF:/home/vera/poco/Foundation/include/Poco/AbstractEvent.h
FN:155,_ZN4Poco13AbstractEventIKNS_7MessageENS_15DefaultStrategyIS2_NS_16AbstractDelegateIS2_EEEES5_NS_9FastMutexEEC2Ev
FN:168,_ZN4Poco13AbstractEventIKNS_7MessageENS_15DefaultStrategyIS2_NS_16AbstractDelegateIS2_EEEES5_NS_9FastMutexEED0Ev
FN:168,_ZN4Poco13AbstractEventIKNS_7MessageENS_15DefaultStrategyIS2_NS_16AbstractDelegateIS2_EEEES5_NS_9FastMutexEED2Ev
FN:212,_ZN4Poco13AbstractEventIKNS_7MessageENS_15DefaultStrategyIS2_NS_16AbstractDelegateIS2_EEEES5_NS_9FastMutexEEclEPKvRS2_
FN:224,_ZN4Poco13AbstractEventIKNS_7MessageENS_15DefaultStrategyIS2_NS_16AbstractDelegateIS2_EEEES5_NS_9FastMutexEE6notifyEPKvRS2_
FN:319,_ZN4Poco13AbstractEventIKNS_7MessageENS_15DefaultStrategyIS2_NS_16AbstractDelegateIS2_EEEES5_NS_9FastMutexEE17NotifyAsyncParamsC2ERKS9_
FN:319,_ZN4Poco13AbstractEventIKNS_7MessageENS_15DefaultStrategyIS2_NS_16AbstractDelegateIS2_EEEES5_NS_9FastMutexEE17NotifyAsyncParamsD2Ev
FN:334,_ZN4Poco13AbstractEventIKNS_7MessageENS_15DefaultStrategyIS2_NS_16AbstractDelegateIS2_EEEES5_NS_9FastMutexEE16executeAsyncImplERKNS8_17NotifyAsyncParamsE
FNDA:0,_ZN4Poco13AbstractEventIKNS_7MessageENS_15DefaultStrategyIS2_NS_16AbstractDelegateIS2_EEEES5_NS_9FastMutexEEC2Ev
FNDA:0,_ZN4Poco13AbstractEventIKNS_7MessageENS_15DefaultStrategyIS2_NS_16AbstractDelegateIS2_EEEES5_NS_9FastMutexEED0Ev
FNDA:0,_ZN4Poco13AbstractEventIKNS_7MessageENS_15DefaultStrategyIS2_NS_16AbstractDelegateIS2_EEEES5_NS_9FastMutexEED2Ev
FNDA:0,_ZN4Poco13AbstractEventIKNS_7MessageENS_15DefaultStrategyIS2_NS_16AbstractDelegateIS2_EEEES5_NS_9FastMutexEEclEPKvRS2_
FNDA:0,_ZN4Poco13AbstractEventIKNS_7MessageENS_15DefaultStrategyIS2_NS_16AbstractDelegateIS2_EEEES5_NS_9FastMutexEE6notifyEPKvRS2_
FNDA:0,_ZN4Poco13AbstractEventIKNS_7MessageENS_15DefaultStrategyIS2_NS_16AbstractDelegateIS2_EEEES5_NS_9FastMutexEE17NotifyAsyncParamsD2Ev
FNDA:0,_ZN4Poco13AbstractEventIKNS_7MessageENS_15DefaultStrategyIS2_NS_16AbstractDelegateIS2_EEEES5_NS_9FastMutexEE17NotifyAsyncParamsC2ERKS9_
FNDA:0,_ZN4Poco13AbstractEventIKNS_7MessageENS_15DefaultStrategyIS2_NS_16AbstractDelegateIS2_EEEES5_NS_9FastMutexEE16executeAsyncImplERKNS8_17NotifyAsyncParamsE
FNF:8
FNH:0
DA:155,0
DA:157,0
DA:159,0
DA:168,0
DA:170,0
DA:212,0
DA:215,0
DA:216,0
DA:224,0
DA:235,0
DA:237,0
DA:242,0
DA:243,0
DA:244,0
DA:319,0
DA:334,0
DA:336,0
DA:338,0
DA:341,0
DA:342,0
DA:343,0
DA:344,0
LF:22
LH:0
end_of_record
SF:/home/vera/poco/Foundation/include/Poco/ActiveMethod.h
FN:79,_ZN4Poco12ActiveMethodIKNS_7MessageENS_13AbstractEventIS2_NS_15DefaultStrategyIS2_NS_16AbstractDelegateIS2_EEEES6_NS_9FastMutexEE17NotifyAsyncParamsES9_NS_13ActiveStarterIS9_EEEC2EPS9_MS9_FS2_RKSA_E
FNDA:0,_ZN4Poco12ActiveMethodIKNS_7MessageENS_13AbstractEventIS2_NS_15DefaultStrategyIS2_NS_16AbstractDelegateIS2_EEEES6_NS_9FastMutexEE17NotifyAsyncParamsES9_NS_13ActiveStarterIS9_EEEC2EPS9_MS9_FS2_RKSA_E
FNF:1
FNH:0
DA:79,0
DA:81,0
DA:84,0
DA:85,0
LF:4
LH:0
end_of_record
SF:/home/vera/poco/Foundation/include/Poco/AtomicCounter.h
FN:100,_ZN4Poco13AtomicCounterppEv
FN:112,_ZN4Poco13AtomicCountermmEv
FNDA:0,_ZN4Poco13AtomicCounterppEv
FNDA:0,_ZN4Poco13AtomicCountermmEv
FNF:2
FNH:0
DA:100,0
DA:102,0
DA:112,0
DA:114,0
LF:4
LH:0
end_of_record
SF:/home/vera/poco/Foundation/include/Poco/BasicEvent.h
FN:43,_ZN4Poco10BasicEventIKNS_7MessageENS_9FastMutexEEC2Ev
FN:47,_ZN4Poco10BasicEventIKNS_7MessageENS_9FastMutexEED0Ev
FN:47,_ZN4Poco10BasicEventIKNS_7MessageENS_9FastMutexEED2Ev
FNDA:0,_ZN4Poco10BasicEventIKNS_7MessageENS_9FastMutexEEC2Ev
FNDA:0,_ZN4Poco10BasicEventIKNS_7MessageENS_9FastMutexEED0Ev
FNDA:0,_ZN4Poco10BasicEventIKNS_7MessageENS_9FastMutexEED2Ev
FNF:3
FNH:0
DA:43,0
DA:44,0
DA:45,0
DA:47,0
DA:49,0
LF:5
LH:0
end_of_record
SF:/home/vera/poco/Foundation/include/Poco/DefaultStrategy.h
FN:44,_ZN4Poco15DefaultStrategyIKNS_7MessageENS_16AbstractDelegateIS2_EEEC2Ev
FN:48,_ZN4Poco15DefaultStrategyIKNS_7MessageENS_16AbstractDelegateIS2_EEEC2ERKS5_
FN:53,_ZN4Poco15DefaultStrategyIKNS_7MessageENS_16AbstractDelegateIS2_EEED2Ev
FN:53,_ZN4Poco15DefaultStrategyIKNS_7MessageENS_16AbstractDelegateIS2_EEED0Ev
FN:57,_ZN4Poco15DefaultStrategyIKNS_7MessageENS_16AbstractDelegateIS2_EEE6notifyEPKvRS2_
FN:65,_ZN4Poco15DefaultStrategyIKNS_7MessageENS_16AbstractDelegateIS2_EEE3addERKS4_
FN:72,_ZN4Poco15DefaultStrategyIKNS_7MessageENS_16AbstractDelegateIS2_EEE6removeERKS4_
FN:85,_ZN4Poco15DefaultStrategyIKNS_7MessageENS_16AbstractDelegateIS2_EEE6removeEPS4_
FN:107,_ZN4Poco15DefaultStrategyIKNS_7MessageENS_16AbstractDelegateIS2_EEE5clearEv
FN:116,_ZNK4Poco15DefaultStrategyIKNS_7MessageENS_16AbstractDelegateIS2_EEE5emptyEv
FNDA:0,_ZN4Poco15DefaultStrategyIKNS_7MessageENS_16AbstractDelegateIS2_EEEC2Ev
FNDA:0,_ZN4Poco15DefaultStrategyIKNS_7MessageENS_16AbstractDelegateIS2_EEEC2ERKS5_
FNDA:0,_ZN4Poco15DefaultStrategyIKNS_7MessageENS_16AbstractDelegateIS2_EEED0Ev
FNDA:0,_ZN4Poco15DefaultStrategyIKNS_7MessageENS_16AbstractDelegateIS2_EEED2Ev
FNDA:0,_ZN4Poco15DefaultStrategyIKNS_7MessageENS_16AbstractDelegateIS2_EEE6notifyEPKvRS2_
FNDA:0,_ZN4Poco15DefaultStrategyIKNS_7MessageENS_16AbstractDelegateIS2_EEE3addERKS4_
FNDA:0,_ZN4Poco15DefaultStrategyIKNS_7MessageENS_16AbstractDelegateIS2_EEE6removeERKS4_
FNDA:0,_ZN4Poco15DefaultStrategyIKNS_7MessageENS_16AbstractDelegateIS2_EEE6removeEPS4_
FNDA:0,_ZN4Poco15DefaultStrategyIKNS_7MessageENS_16AbstractDelegateIS2_EEE5clearEv
FNDA:0,_ZNK4Poco15DefaultStrategyIKNS_7MessageENS_16AbstractDelegateIS2_EEE5emptyEv
FNF:10
FNH:0
DA:44,0
DA:45,0
DA:46,0
DA:48,0
DA:49,0
DA:51,0
DA:53,0
DA:55,0
DA:57,0
DA:59,0
DA:61,0
DA:63,0
DA:65,0
DA:67,0
DA:68,0
DA:69,0
DA:72,0
DA:74,0
DA:76,0
DA:78,0
DA:79,0
DA:80,0
DA:85,0
DA:87,0
DA:89,0
DA:91,0
DA:92,0
DA:93,0
DA:107,0
DA:109,0
DA:111,0
DA:113,0
DA:114,0
DA:116,0
DA:118,0
LF:35
LH:0
end_of_record
SF:/home/vera/poco/Foundation/include/Poco/Mutex.h
FN:308,_ZN4Poco9FastMutex4lockEv
FN:333,_ZN4Poco9FastMutex6unlockEv
FNDA:0,_ZN4Poco9FastMutex4lockEv
FNDA:0,_ZN4Poco9FastMutex6unlockEv
FNF:2
FNH:0
DA:308,0
DA:310,0
DA:311,0
DA:333,0
DA:335,0
DA:336,0
LF:6
LH:0
end_of_record
SF:/home/vera/poco/Foundation/include/Poco/Mutex_POSIX.h
FN:57,_ZN4Poco9MutexImpl8lockImplEv
FN:76,_ZN4Poco9MutexImpl10unlockImplEv
FNDA:0,_ZN4Poco9MutexImpl8lockImplEv
FNDA:0,_ZN4Poco9MutexImpl10unlockImplEv
FNF:2
FNH:0
DA:57,0
DA:59,0
DA:60,0
DA:61,0
DA:76,0
DA:78,0
DA:79,0
DA:80,0
LF:8
LH:0
end_of_record
SF:/home/vera/poco/Foundation/include/Poco/NotificationStrategy.h
FN:38,_ZN4Poco20NotificationStrategyIKNS_7MessageENS_16AbstractDelegateIS2_EEEC2Ev
FN:42,_ZN4Poco20NotificationStrategyIKNS_7MessageENS_16AbstractDelegateIS2_EEED2Ev
FN:42,_ZN4Poco20NotificationStrategyIKNS_7MessageENS_16AbstractDelegateIS2_EEED0Ev
FNDA:0,_ZN4Poco20NotificationStrategyIKNS_7MessageENS_16AbstractDelegateIS2_EEEC2Ev
FNDA:0,_ZN4Poco20NotificationStrategyIKNS_7MessageENS_16AbstractDelegateIS2_EEED0Ev
FNDA:0,_ZN4Poco20NotificationStrategyIKNS_7MessageENS_16AbstractDelegateIS2_EEED2Ev
FNF:3
FNH:0
DA:38,0
DA:39,0
DA:40,0
DA:42,0
DA:44,0
LF:5
LH:0
end_of_record
SF:/home/vera/poco/Foundation/include/Poco/ScopedLock.h
FN:78,_ZN4Poco20ScopedLockWithUnlockINS_9FastMutexEEC2ERS1_
FN:88,_ZN4Poco20ScopedLockWithUnlockINS_9FastMutexEED2Ev
FN:100,_ZN4Poco20ScopedLockWithUnlockINS_9FastMutexEE6unlockEv
FNDA:0,_ZN4Poco20ScopedLockWithUnlockINS_9FastMutexEEC2ERS1_
FNDA:0,_ZN4Poco20ScopedLockWithUnlockINS_9FastMutexEED2Ev
FNDA:0,_ZN4Poco20ScopedLockWithUnlockINS_9FastMutexEE6unlockEv
FNF:3
FNH:0
DA:78,0
DA:80,0
DA:81,0
DA:88,0
DA:92,0
DA:94,0
DA:96,0
DA:98,0
DA:100,0
DA:102,0
DA:104,0
DA:105,0
DA:107,0
LF:13
LH:0
end_of_record
SF:/home/vera/poco/Foundation/include/Poco/SharedPtr.h
FN:31,_ZN4Poco16ReferenceCounterD2Ev
FN:35,_ZN4Poco16ReferenceCounterC2Ev
FN:39,_ZN4Poco16ReferenceCounter9duplicateEv
FN:44,_ZN4Poco16ReferenceCounter7releaseEv
FN:65,_ZN4Poco13ReleasePolicyINS_16AbstractDelegateIKNS_7MessageEEEE7releaseEPS4_
FN:65,_ZN4Poco13ReleasePolicyINS_15DefaultStrategyIKNS_7MessageENS_16AbstractDelegateIS3_EEEEE7releaseEPS6_
FN:125,_ZN4Poco9SharedPtrINS_16AbstractDelegateIKNS_7MessageEEENS_16ReferenceCounterENS_13ReleasePolicyIS4_EEEC2EPS4_
FN:144,_ZN4Poco9SharedPtrINS_16AbstractDelegateIKNS_7MessageEEENS_16ReferenceCounterENS_13ReleasePolicyIS4_EEEC2ERKS8_
FN:144,_ZN4Poco9SharedPtrINS_15DefaultStrategyIKNS_7MessageENS_16AbstractDelegateIS3_EEEENS_16ReferenceCounterENS_13ReleasePolicyIS6_EEEC2ERKSA_
FN:151,_ZN4Poco9SharedPtrINS_16AbstractDelegateIKNS_7MessageEEENS_16ReferenceCounterENS_13ReleasePolicyIS4_EEEC2EOS8_
FN:159,_ZN4Poco9SharedPtrINS_16AbstractDelegateIKNS_7MessageEEENS_16ReferenceCounterENS_13ReleasePolicyIS4_EEED2Ev
FN:159,_ZN4Poco9SharedPtrINS_15DefaultStrategyIKNS_7MessageENS_16AbstractDelegateIS3_EEEENS_16ReferenceCounterENS_13ReleasePolicyIS6_EEED2Ev
FN:226,_ZN4Poco9SharedPtrINS_16AbstractDelegateIKNS_7MessageEEENS_16ReferenceCounterENS_13ReleasePolicyIS4_EEEaSEOS8_
FN:275,_ZN4Poco9SharedPtrINS_15DefaultStrategyIKNS_7MessageENS_16AbstractDelegateIS3_EEEENS_16ReferenceCounterENS_13ReleasePolicyIS6_EEEptEv
FN:275,_ZN4Poco9SharedPtrINS_16AbstractDelegateIKNS_7MessageEEENS_16ReferenceCounterENS_13ReleasePolicyIS4_EEEptEv
FN:285,_ZN4Poco9SharedPtrINS_16AbstractDelegateIKNS_7MessageEEENS_16ReferenceCounterENS_13ReleasePolicyIS4_EEEdeEv
FN:295,_ZN4Poco9SharedPtrINS_16AbstractDelegateIKNS_7MessageEEENS_16ReferenceCounterENS_13ReleasePolicyIS4_EEE3getEv
FN:300,_ZNK4Poco9SharedPtrINS_16AbstractDelegateIKNS_7MessageEEENS_16ReferenceCounterENS_13ReleasePolicyIS4_EEE3getEv
FN:335,_ZNK4Poco9SharedPtrINS_16AbstractDelegateIKNS_7MessageEEENS_16ReferenceCounterENS_13ReleasePolicyIS4_EEEeqEPS4_
FN:431,_ZNK4Poco9SharedPtrINS_15DefaultStrategyIKNS_7MessageENS_16AbstractDelegateIS3_EEEENS_16ReferenceCounterENS_13ReleasePolicyIS6_EEE5derefEv
FN:431,_ZNK4Poco9SharedPtrINS_16AbstractDelegateIKNS_7MessageEEENS_16ReferenceCounterENS_13ReleasePolicyIS4_EEE5derefEv
FN:439,_ZN4Poco9SharedPtrINS_15DefaultStrategyIKNS_7MessageENS_16AbstractDelegateIS3_EEEENS_16ReferenceCounterENS_13ReleasePolicyIS6_EEE7releaseEv
FN:439,_ZN4Poco9SharedPtrINS_16AbstractDelegateIKNS_7MessageEEENS_16ReferenceCounterENS_13ReleasePolicyIS4_EEE7releaseEv
FNDA:0,_ZN4Poco16ReferenceCounterD2Ev
FNDA:0,_ZN4Poco16ReferenceCounterC2Ev
FNDA:0,_ZN4Poco16ReferenceCounter9duplicateEv
FNDA:0,_ZN4Poco16ReferenceCounter7releaseEv
FNDA:0,_ZN4Poco13ReleasePolicyINS_16AbstractDelegateIKNS_7MessageEEEE7releaseEPS4_
FNDA:0,_ZN4Poco13ReleasePolicyINS_15DefaultStrategyIKNS_7MessageENS_16AbstractDelegateIS3_EEEEE7releaseEPS6_
FNDA:0,_ZN4Poco9SharedPtrINS_16AbstractDelegateIKNS_7MessageEEENS_16ReferenceCounterENS_13ReleasePolicyIS4_EEEC2EPS4_
FNDA:0,_ZN4Poco9SharedPtrINS_16AbstractDelegateIKNS_7MessageEEENS_16ReferenceCounterENS_13ReleasePolicyIS4_EEEC2ERKS8_
FNDA:0,_ZN4Poco9SharedPtrINS_15DefaultStrategyIKNS_7MessageENS_16AbstractDelegateIS3_EEEENS_16ReferenceCounterENS_13ReleasePolicyIS6_EEEC2ERKSA_
FNDA:0,_ZN4Poco9SharedPtrINS_16AbstractDelegateIKNS_7MessageEEENS_16ReferenceCounterENS_13ReleasePolicyIS4_EEEC2EOS8_
FNDA:0,_ZN4Poco9SharedPtrINS_16AbstractDelegateIKNS_7MessageEEENS_16ReferenceCounterENS_13ReleasePolicyIS4_EEED2Ev
FNDA:0,_ZN4Poco9SharedPtrINS_15DefaultStrategyIKNS_7MessageENS_16AbstractDelegateIS3_EEEENS_16ReferenceCounterENS_13ReleasePolicyIS6_EEED2Ev
FNDA:0,_ZN4Poco9SharedPtrINS_16AbstractDelegateIKNS_7MessageEEENS_16ReferenceCounterENS_13ReleasePolicyIS4_EEEaSEOS8_
FNDA:0,_ZN4Poco9SharedPtrINS_16AbstractDelegateIKNS_7MessageEEENS_16ReferenceCounterENS_13ReleasePolicyIS4_EEEptEv
FNDA:0,_ZN4Poco9SharedPtrINS_15DefaultStrategyIKNS_7MessageENS_16AbstractDelegateIS3_EEEENS_16ReferenceCounterENS_13ReleasePolicyIS6_EEEptEv
FNDA:0,_ZN4Poco9SharedPtrINS_16AbstractDelegateIKNS_7MessageEEENS_16ReferenceCounterENS_13ReleasePolicyIS4_EEEdeEv
FNDA:0,_ZN4Poco9SharedPtrINS_16AbstractDelegateIKNS_7MessageEEENS_16ReferenceCounterENS_13ReleasePolicyIS4_EEE3getEv
FNDA:0,_ZNK4Poco9SharedPtrINS_16AbstractDelegateIKNS_7MessageEEENS_16ReferenceCounterENS_13ReleasePolicyIS4_EEE3getEv
FNDA:0,_ZNK4Poco9SharedPtrINS_16AbstractDelegateIKNS_7MessageEEENS_16ReferenceCounterENS_13ReleasePolicyIS4_EEEeqEPS4_
FNDA:0,_ZNK4Poco9SharedPtrINS_16AbstractDelegateIKNS_7MessageEEENS_16ReferenceCounterENS_13ReleasePolicyIS4_EEE5derefEv
FNDA:0,_ZNK4Poco9SharedPtrINS_15DefaultStrategyIKNS_7MessageENS_16AbstractDelegateIS3_EEEENS_16ReferenceCounterENS_13ReleasePolicyIS6_EEE5derefEv
FNDA:0,_ZN4Poco9SharedPtrINS_16AbstractDelegateIKNS_7MessageEEENS_16ReferenceCounterENS_13ReleasePolicyIS4_EEE7releaseEv
FNDA:0,_ZN4Poco9SharedPtrINS_15DefaultStrategyIKNS_7MessageENS_16AbstractDelegateIS3_EEEENS_16ReferenceCounterENS_13ReleasePolicyIS6_EEE7releaseEv
FNF:23
FNH:0
DA:31,0
DA:35,0
DA:37,0
DA:39,0
DA:41,0
DA:42,0
DA:44,0
DA:46,0
DA:65,0
DA:69,0
DA:70,0
DA:125,0
DA:127,0
DA:128,0
DA:131,0
DA:133,0
DA:134,0
DA:144,0
DA:145,0
DA:146,0
DA:148,0
DA:149,0
DA:151,0
DA:152,0
DA:153,0
DA:155,0
DA:156,0
DA:157,0
DA:159,0
DA:161,0
DA:162,0
DA:226,0
DA:228,0
DA:229,0
DA:230,0
DA:231,0
DA:232,0
DA:233,0
DA:275,0
DA:277,0
DA:285,0
DA:287,0
DA:295,0
DA:297,0
DA:300,0
DA:302,0
DA:335,0
DA:337,0
DA:431,0
DA:433,0
DA:434,0
DA:436,0
DA:439,0
DA:441,0
DA:443,0
DA:444,0
DA:446,0
DA:447,0
DA:449,0
LF:59
LH:0
end_of_record
SF:/home/vera/poco/Foundation/src/EventChannel.cpp
FN:21,_ZN4Poco12EventChannelC2Ev
FN:26,_ZN4Poco12EventChannelD0Ev
FN:26,_ZN4Poco12EventChannelD2Ev
FN:31,_ZN4Poco12EventChannel3logERKNS_7MessageE
FN:37,_Z41__static_initialization_and_destruction_0ii
FN:37,_GLOBAL__sub_I_EventChannel.cpp
FNDA:0,_ZN4Poco12EventChannelC2Ev
FNDA:0,_ZN4Poco12EventChannelD0Ev
FNDA:0,_ZN4Poco12EventChannelD2Ev
FNDA:0,_ZN4Poco12EventChannel3logERKNS_7MessageE
FNDA:1,_GLOBAL__sub_I_EventChannel.cpp
FNDA:1,_Z41__static_initialization_and_destruction_0ii
FNF:6
FNH:2
DA:21,0
DA:23,0
DA:26,0
DA:28,0
DA:31,0
DA:33,0
DA:34,0
DA:37,3
LF:8
LH:1
end_of_record
SF:/usr/include/c++/7/bits/alloc_traits.h
FN:435,_ZNSt16allocator_traitsISaIN4Poco9SharedPtrINS0_16AbstractDelegateIKNS0_7MessageEEENS0_16ReferenceCounterENS0_13ReleasePolicyIS5_EEEEEE8allocateERSA_m
FN:461,_ZNSt16allocator_traitsISaIN4Poco9SharedPtrINS0_16AbstractDelegateIKNS0_7MessageEEENS0_16ReferenceCounterENS0_13ReleasePolicyIS5_EEEEEE10deallocateERSA_PS9_m
FN:474,_ZNSt16allocator_traitsISaIN4Poco9SharedPtrINS0_16AbstractDelegateIKNS0_7MessageEEENS0_16ReferenceCounterENS0_13ReleasePolicyIS5_EEEEEE9constructIS9_JRKS9_EEEvRSA_PT_DpOT0_
FN:486,_ZNSt16allocator_traitsISaIN4Poco9SharedPtrINS0_16AbstractDelegateIKNS0_7MessageEEENS0_16ReferenceCounterENS0_13ReleasePolicyIS5_EEEEEE7destroyIS9_EEvRSA_PT_
FN:495,_ZNSt16allocator_traitsISaIN4Poco9SharedPtrINS0_16AbstractDelegateIKNS0_7MessageEEENS0_16ReferenceCounterENS0_13ReleasePolicyIS5_EEEEEE8max_sizeERKSA_
FN:504,_ZNSt16allocator_traitsISaIN4Poco9SharedPtrINS0_16AbstractDelegateIKNS0_7MessageEEENS0_16ReferenceCounterENS0_13ReleasePolicyIS5_EEEEEE37select_on_container_copy_constructionERKSA_
FNDA:0,_ZNSt16allocator_traitsISaIN4Poco9SharedPtrINS0_16AbstractDelegateIKNS0_7MessageEEENS0_16ReferenceCounterENS0_13ReleasePolicyIS5_EEEEEE8allocateERSA_m
FNDA:0,_ZNSt16allocator_traitsISaIN4Poco9SharedPtrINS0_16AbstractDelegateIKNS0_7MessageEEENS0_16ReferenceCounterENS0_13ReleasePolicyIS5_EEEEEE10deallocateERSA_PS9_m
FNDA:0,_ZNSt16allocator_traitsISaIN4Poco9SharedPtrINS0_16AbstractDelegateIKNS0_7MessageEEENS0_16ReferenceCounterENS0_13ReleasePolicyIS5_EEEEEE9constructIS9_JRKS9_EEEvRSA_PT_DpOT0_
FNDA:0,_ZNSt16allocator_traitsISaIN4Poco9SharedPtrINS0_16AbstractDelegateIKNS0_7MessageEEENS0_16ReferenceCounterENS0_13ReleasePolicyIS5_EEEEEE7destroyIS9_EEvRSA_PT_
FNDA:0,_ZNSt16allocator_traitsISaIN4Poco9SharedPtrINS0_16AbstractDelegateIKNS0_7MessageEEENS0_16ReferenceCounterENS0_13ReleasePolicyIS5_EEEEEE8max_sizeERKSA_
FNDA:0,_ZNSt16allocator_traitsISaIN4Poco9SharedPtrINS0_16AbstractDelegateIKNS0_7MessageEEENS0_16ReferenceCounterENS0_13ReleasePolicyIS5_EEEEEE37select_on_container_copy_constructionERKSA_
FNF:6
FNH:0
DA:435,0
DA:436,0
DA:461,0
DA:462,0
DA:474,0
DA:475,0
DA:486,0
DA:487,0
DA:495,0
DA:496,0
DA:504,0
DA:505,0
LF:12
LH:0
end_of_record
SF:/usr/include/c++/7/bits/allocator.h
FN:131,_ZNSaIN4Poco9SharedPtrINS_16AbstractDelegateIKNS_7MessageEEENS_16ReferenceCounterENS_13ReleasePolicyIS4_EEEEEC2Ev
FN:133,_ZNSaIN4Poco9SharedPtrINS_16AbstractDelegateIKNS_7MessageEEENS_16ReferenceCounterENS_13ReleasePolicyIS4_EEEEEC2ERKS9_
FN:139,_ZNSaIN4Poco9SharedPtrINS_16AbstractDelegateIKNS_7MessageEEENS_16ReferenceCounterENS_13ReleasePolicyIS4_EEEEED2Ev
FNDA:0,_ZNSaIN4Poco9SharedPtrINS_16AbstractDelegateIKNS_7MessageEEENS_16ReferenceCounterENS_13ReleasePolicyIS4_EEEEEC2Ev
FNDA:0,_ZNSaIN4Poco9SharedPtrINS_16AbstractDelegateIKNS_7MessageEEENS_16ReferenceCounterENS_13ReleasePolicyIS4_EEEEEC2ERKS9_
FNDA:0,_ZNSaIN4Poco9SharedPtrINS_16AbstractDelegateIKNS_7MessageEEENS_16ReferenceCounterENS_13ReleasePolicyIS4_EEEEED2Ev
FNF:3
FNH:0
DA:131,0
DA:133,0
DA:134,0
DA:139,0
LF:4
LH:0
end_of_record
SF:/usr/include/c++/7/bits/atomic_base.h
FN:295,_ZNSt13__atomic_baseIiEppEv
FN:303,_ZNSt13__atomic_baseIiEmmEv
FNDA:0,_ZNSt13__atomic_baseIiEppEv
FNDA:0,_ZNSt13__atomic_baseIiEmmEv
FNF:2
FNH:0
DA:295,0
DA:296,0
DA:303,0
DA:304,0
LF:4
LH:0
end_of_record
SF:/usr/include/c++/7/bits/cpp_type_traits.h
FN:408,_ZSt12__miter_baseIN9__gnu_cxx17__normal_iteratorIPN4Poco9SharedPtrINS2_16AbstractDelegateIKNS2_7MessageEEENS2_16ReferenceCounterENS2_13ReleasePolicyIS7_EEEESt6vectorISB_SaISB_EEEEET_SH_
FNDA:0,_ZSt12__miter_baseIN9__gnu_cxx17__normal_iteratorIPN4Poco9SharedPtrINS2_16AbstractDelegateIKNS2_7MessageEEENS2_16ReferenceCounterENS2_13ReleasePolicyIS7_EEEESt6vectorISB_SaISB_EEEEET_SH_
FNF:1
FNH:0
DA:408,0
DA:409,0
LF:2
LH:0
end_of_record
SF:/usr/include/c++/7/bits/move.h
FN:47,_ZSt11__addressofIN4Poco9SharedPtrINS0_16AbstractDelegateIKNS0_7MessageEEENS0_16ReferenceCounterENS0_13ReleasePolicyIS5_EEEEEPT_RSA_
FN:73,_ZSt7forwardIN4Poco9SharedPtrINS0_16AbstractDelegateIKNS0_7MessageEEENS0_16ReferenceCounterENS0_13ReleasePolicyIS5_EEEEEOT_RNSt16remove_referenceISA_E4typeE
FN:73,_ZSt7forwardIRKN4Poco9SharedPtrINS0_16AbstractDelegateIKNS0_7MessageEEENS0_16ReferenceCounterENS0_13ReleasePolicyIS5_EEEEEOT_RNSt16remove_referenceISC_E4typeE
FN:98,_ZSt4moveIRN4Poco9SharedPtrINS0_16AbstractDelegateIKNS0_7MessageEEENS0_16ReferenceCounterENS0_13ReleasePolicyIS5_EEEEEONSt16remove_referenceIT_E4typeEOSC_
FNDA:0,_ZSt11__addressofIN4Poco9SharedPtrINS0_16AbstractDelegateIKNS0_7MessageEEENS0_16ReferenceCounterENS0_13ReleasePolicyIS5_EEEEEPT_RSA_
FNDA:0,_ZSt7forwardIN4Poco9SharedPtrINS0_16AbstractDelegateIKNS0_7MessageEEENS0_16ReferenceCounterENS0_13ReleasePolicyIS5_EEEEEOT_RNSt16remove_referenceISA_E4typeE
FNDA:0,_ZSt7forwardIRKN4Poco9SharedPtrINS0_16AbstractDelegateIKNS0_7MessageEEENS0_16ReferenceCounterENS0_13ReleasePolicyIS5_EEEEEOT_RNSt16remove_referenceISC_E4typeE
FNDA:0,_ZSt4moveIRN4Poco9SharedPtrINS0_16AbstractDelegateIKNS0_7MessageEEENS0_16ReferenceCounterENS0_13ReleasePolicyIS5_EEEEEONSt16remove_referenceIT_E4typeEOSC_
FNF:4
FNH:0
DA:47,0
DA:48,0
DA:73,0
DA:74,0
DA:98,0
DA:99,0
LF:6
LH:0
end_of_record
SF:/usr/include/c++/7/bits/stl_algobase.h
FN:219,_ZSt3maxImERKT_S2_S2_
FN:338,_ZNSt11__copy_moveILb1ELb0ESt26random_access_iterator_tagE8__copy_mIPN4Poco9SharedPtrINS3_16AbstractDelegateIKNS3_7MessageEEENS3_16ReferenceCounterENS3_13ReleasePolicyIS8_EEEESD_EET0_T_SF_SE_
FN:375,_ZSt13__copy_move_aILb1EPN4Poco9SharedPtrINS0_16AbstractDelegateIKNS0_7MessageEEENS0_16ReferenceCounterENS0_13ReleasePolicyIS5_EEEESA_ET1_T0_SC_SB_
FN:420,_ZSt14__copy_move_a2ILb1EN9__gnu_cxx17__normal_iteratorIPN4Poco9SharedPtrINS2_16AbstractDelegateIKNS2_7MessageEEENS2_16ReferenceCounterENS2_13ReleasePolicyIS7_EEEESt6vectorISB_SaISB_EEEESG_ET1_T0_SI_SH_
FN:479,_ZSt4moveIN9__gnu_cxx17__normal_iteratorIPN4Poco9SharedPtrINS2_16AbstractDelegateIKNS2_7MessageEEENS2_16ReferenceCounterENS2_13ReleasePolicyIS7_EEEESt6vectorISB_SaISB_EEEESG_ET0_T_SI_SH_
FNDA:0,_ZSt3maxImERKT_S2_S2_
FNDA:0,_ZNSt11__copy_moveILb1ELb0ESt26random_access_iterator_tagE8__copy_mIPN4Poco9SharedPtrINS3_16AbstractDelegateIKNS3_7MessageEEENS3_16ReferenceCounterENS3_13ReleasePolicyIS8_EEEESD_EET0_T_SF_SE_
FNDA:0,_ZSt13__copy_move_aILb1EPN4Poco9SharedPtrINS0_16AbstractDelegateIKNS0_7MessageEEENS0_16ReferenceCounterENS0_13ReleasePolicyIS5_EEEESA_ET1_T0_SC_SB_
FNDA:0,_ZSt14__copy_move_a2ILb1EN9__gnu_cxx17__normal_iteratorIPN4Poco9SharedPtrINS2_16AbstractDelegateIKNS2_7MessageEEENS2_16ReferenceCounterENS2_13ReleasePolicyIS7_EEEESt6vectorISB_SaISB_EEEESG_ET1_T0_SI_SH_
FNDA:0,_ZSt4moveIN9__gnu_cxx17__normal_iteratorIPN4Poco9SharedPtrINS2_16AbstractDelegateIKNS2_7MessageEEENS2_16ReferenceCounterENS2_13ReleasePolicyIS7_EEEESt6vectorISB_SaISB_EEEESG_ET0_T_SI_SH_
FNF:5
FNH:0
DA:219,0
DA:224,0
DA:225,0
DA:226,0
DA:338,0
DA:341,0
DA:343,0
DA:344,0
DA:345,0
DA:347,0
DA:375,0
DA:380,0
DA:386,0
DA:420,0
DA:422,0
DA:424,0
DA:479,0
DA:487,0
DA:488,0
LF:19
LH:0
end_of_record
SF:/usr/include/c++/7/bits/stl_construct.h
FN:74,_ZSt10_ConstructIN4Poco9SharedPtrINS0_16AbstractDelegateIKNS0_7MessageEEENS0_16ReferenceCounterENS0_13ReleasePolicyIS5_EEEEJS9_EEvPT_DpOT0_
FN:74,_ZSt10_ConstructIN4Poco9SharedPtrINS0_16AbstractDelegateIKNS0_7MessageEEENS0_16ReferenceCounterENS0_13ReleasePolicyIS5_EEEEJRKS9_EEvPT_DpOT0_
FN:97,_ZSt8_DestroyIN4Poco9SharedPtrINS0_16AbstractDelegateIKNS0_7MessageEEENS0_16ReferenceCounterENS0_13ReleasePolicyIS5_EEEEEvPT_
FN:105,_ZNSt12_Destroy_auxILb0EE9__destroyIPN4Poco9SharedPtrINS2_16AbstractDelegateIKNS2_7MessageEEENS2_16ReferenceCounterENS2_13ReleasePolicyIS7_EEEEEEvT_SD_
FN:127,_ZSt8_DestroyIPN4Poco9SharedPtrINS0_16AbstractDelegateIKNS0_7MessageEEENS0_16ReferenceCounterENS0_13ReleasePolicyIS5_EEEEEvT_SB_
FN:203,_ZSt8_DestroyIPN4Poco9SharedPtrINS0_16AbstractDelegateIKNS0_7MessageEEENS0_16ReferenceCounterENS0_13ReleasePolicyIS5_EEEES9_EvT_SB_RSaIT0_E
FNDA:0,_ZSt10_ConstructIN4Poco9SharedPtrINS0_16AbstractDelegateIKNS0_7MessageEEENS0_16ReferenceCounterENS0_13ReleasePolicyIS5_EEEEJS9_EEvPT_DpOT0_
FNDA:0,_ZSt10_ConstructIN4Poco9SharedPtrINS0_16AbstractDelegateIKNS0_7MessageEEENS0_16ReferenceCounterENS0_13ReleasePolicyIS5_EEEEJRKS9_EEvPT_DpOT0_
FNDA:0,_ZSt8_DestroyIN4Poco9SharedPtrINS0_16AbstractDelegateIKNS0_7MessageEEENS0_16ReferenceCounterENS0_13ReleasePolicyIS5_EEEEEvPT_
FNDA:0,_ZNSt12_Destroy_auxILb0EE9__destroyIPN4Poco9SharedPtrINS2_16AbstractDelegateIKNS2_7MessageEEENS2_16ReferenceCounterENS2_13ReleasePolicyIS7_EEEEEEvT_SD_
FNDA:0,_ZSt8_DestroyIPN4Poco9SharedPtrINS0_16AbstractDelegateIKNS0_7MessageEEENS0_16ReferenceCounterENS0_13ReleasePolicyIS5_EEEEEvT_SB_
FNDA:0,_ZSt8_DestroyIPN4Poco9SharedPtrINS0_16AbstractDelegateIKNS0_7MessageEEENS0_16ReferenceCounterENS0_13ReleasePolicyIS5_EEEES9_EvT_SB_RSaIT0_E
FNF:6
FNH:0
DA:74,0
DA:75,0
DA:97,0
DA:98,0
DA:105,0
DA:107,0
DA:108,0
DA:109,0
DA:127,0
DA:137,0
DA:138,0
DA:203,0
DA:206,0
DA:207,0
LF:14
LH:0
end_of_record
SF:/usr/include/c++/7/bits/stl_iterator.h
FN:782,_ZN9__gnu_cxx17__normal_iteratorIPKN4Poco9SharedPtrINS1_16AbstractDelegateIKNS1_7MessageEEENS1_16ReferenceCounterENS1_13ReleasePolicyIS6_EEEESt6vectorISA_SaISA_EEEC2ERKSC_
FN:782,_ZN9__gnu_cxx17__normal_iteratorIPN4Poco9SharedPtrINS1_16AbstractDelegateIKNS1_7MessageEEENS1_16ReferenceCounterENS1_13ReleasePolicyIS6_EEEESt6vectorISA_SaISA_EEEC2ERKSB_
FN:787,_ZN9__gnu_cxx17__normal_iteratorIPKN4Poco9SharedPtrINS1_16AbstractDelegateIKNS1_7MessageEEENS1_16ReferenceCounterENS1_13ReleasePolicyIS6_EEEESt6vectorISA_SaISA_EEEC2IPSA_EERKNS0_IT_NS_11__enable_ifIXsrSt10__are_sameISJ_SI_E7__valueESF_E6__typeEEE
FN:795,_ZNK9__gnu_cxx17__normal_iteratorIPKN4Poco9SharedPtrINS1_16AbstractDelegateIKNS1_7MessageEEENS1_16ReferenceCounterENS1_13ReleasePolicyIS6_EEEESt6vectorISA_SaISA_EEEdeEv
FN:795,_ZNK9__gnu_cxx17__normal_iteratorIPN4Poco9SharedPtrINS1_16AbstractDelegateIKNS1_7MessageEEENS1_16ReferenceCounterENS1_13ReleasePolicyIS6_EEEESt6vectorISA_SaISA_EEEdeEv
FN:803,_ZN9__gnu_cxx17__normal_iteratorIPKN4Poco9SharedPtrINS1_16AbstractDelegateIKNS1_7MessageEEENS1_16ReferenceCounterENS1_13ReleasePolicyIS6_EEEESt6vectorISA_SaISA_EEEppEv
FN:803,_ZN9__gnu_cxx17__normal_iteratorIPN4Poco9SharedPtrINS1_16AbstractDelegateIKNS1_7MessageEEENS1_16ReferenceCounterENS1_13ReleasePolicyIS6_EEEESt6vectorISA_SaISA_EEEppEv
FN:835,_ZNK9__gnu_cxx17__normal_iteratorIPN4Poco9SharedPtrINS1_16AbstractDelegateIKNS1_7MessageEEENS1_16ReferenceCounterENS1_13ReleasePolicyIS6_EEEESt6vectorISA_SaISA_EEEplEl
FN:847,_ZNK9__gnu_cxx17__normal_iteratorIPKN4Poco9SharedPtrINS1_16AbstractDelegateIKNS1_7MessageEEENS1_16ReferenceCounterENS1_13ReleasePolicyIS6_EEEESt6vectorISA_SaISA_EEE4baseEv
FN:847,_ZNK9__gnu_cxx17__normal_iteratorIPN4Poco9SharedPtrINS1_16AbstractDelegateIKNS1_7MessageEEENS1_16ReferenceCounterENS1_13ReleasePolicyIS6_EEEESt6vectorISA_SaISA_EEE4baseEv
FN:869,_ZN9__gnu_cxxeqIPKN4Poco9SharedPtrINS1_16AbstractDelegateIKNS1_7MessageEEENS1_16ReferenceCounterENS1_13ReleasePolicyIS6_EEEESt6vectorISA_SaISA_EEEEbRKNS_17__normal_iteratorIT_T0_EESL_
FN:883,_ZN9__gnu_cxxneIPKN4Poco9SharedPtrINS1_16AbstractDelegateIKNS1_7MessageEEENS1_16ReferenceCounterENS1_13ReleasePolicyIS6_EEEESt6vectorISA_SaISA_EEEEbRKNS_17__normal_iteratorIT_T0_EESL_
FN:883,_ZN9__gnu_cxxneIPN4Poco9SharedPtrINS1_16AbstractDelegateIKNS1_7MessageEEENS1_16ReferenceCounterENS1_13ReleasePolicyIS6_EEEESt6vectorISA_SaISA_EEEEbRKNS_17__normal_iteratorIT_T0_EESK_
FN:965,_ZN9__gnu_cxxmiIPKN4Poco9SharedPtrINS1_16AbstractDelegateIKNS1_7MessageEEENS1_16ReferenceCounterENS1_13ReleasePolicyIS6_EEEESt6vectorISA_SaISA_EEEENS_17__normal_iteratorIT_T0_E15difference_typeERKSJ_SM_
FN:965,_ZN9__gnu_cxxmiIPN4Poco9SharedPtrINS1_16AbstractDelegateIKNS1_7MessageEEENS1_16ReferenceCounterENS1_13ReleasePolicyIS6_EEEESt6vectorISA_SaISA_EEEENS_17__normal_iteratorIT_T0_E15difference_typeERKSI_SL_
FN:986,_ZSt12__niter_baseIPN4Poco9SharedPtrINS0_16AbstractDelegateIKNS0_7MessageEEENS0_16ReferenceCounterENS0_13ReleasePolicyIS5_EEEESt6vectorIS9_SaIS9_EEET_N9__gnu_cxx17__normal_iteratorISE_T0_EE
FN:1039,_ZNSt13move_iteratorIPN4Poco9SharedPtrINS0_16AbstractDelegateIKNS0_7MessageEEENS0_16ReferenceCounterENS0_13ReleasePolicyIS5_EEEEEC2ESA_
FN:1048,_ZNKSt13move_iteratorIPN4Poco9SharedPtrINS0_16AbstractDelegateIKNS0_7MessageEEENS0_16ReferenceCounterENS0_13ReleasePolicyIS5_EEEEE4baseEv
FN:1052,_ZNKSt13move_iteratorIPN4Poco9SharedPtrINS0_16AbstractDelegateIKNS0_7MessageEEENS0_16ReferenceCounterENS0_13ReleasePolicyIS5_EEEEEdeEv
FN:1060,_ZNSt13move_iteratorIPN4Poco9SharedPtrINS0_16AbstractDelegateIKNS0_7MessageEEENS0_16ReferenceCounterENS0_13ReleasePolicyIS5_EEEEEppEv
FN:1127,_ZSteqIPN4Poco9SharedPtrINS0_16AbstractDelegateIKNS0_7MessageEEENS0_16ReferenceCounterENS0_13ReleasePolicyIS5_EEEEEbRKSt13move_iteratorIT_ESF_
FN:1139,_ZStneIPN4Poco9SharedPtrINS0_16AbstractDelegateIKNS0_7MessageEEENS0_16ReferenceCounterENS0_13ReleasePolicyIS5_EEEEEbRKSt13move_iteratorIT_ESF_
FN:1224,_ZSt32__make_move_if_noexcept_iteratorIN4Poco9SharedPtrINS0_16AbstractDelegateIKNS0_7MessageEEENS0_16ReferenceCounterENS0_13ReleasePolicyIS5_EEEESt13move_iteratorIPS9_EET0_PT_
FNDA:0,_ZN9__gnu_cxx17__normal_iteratorIPKN4Poco9SharedPtrINS1_16AbstractDelegateIKNS1_7MessageEEENS1_16ReferenceCounterENS1_13ReleasePolicyIS6_EEEESt6vectorISA_SaISA_EEEC2ERKSC_
FNDA:0,_ZN9__gnu_cxx17__normal_iteratorIPN4Poco9SharedPtrINS1_16AbstractDelegateIKNS1_7MessageEEENS1_16ReferenceCounterENS1_13ReleasePolicyIS6_EEEESt6vectorISA_SaISA_EEEC2ERKSB_
FNDA:0,_ZN9__gnu_cxx17__normal_iteratorIPKN4Poco9SharedPtrINS1_16AbstractDelegateIKNS1_7MessageEEENS1_16ReferenceCounterENS1_13ReleasePolicyIS6_EEEESt6vectorISA_SaISA_EEEC2IPSA_EERKNS0_IT_NS_11__enable_ifIXsrSt10__are_sameISJ_SI_E7__valueESF_E6__typeEEE
FNDA:0,_ZNK9__gnu_cxx17__normal_iteratorIPKN4Poco9SharedPtrINS1_16AbstractDelegateIKNS1_7MessageEEENS1_16ReferenceCounterENS1_13ReleasePolicyIS6_EEEESt6vectorISA_SaISA_EEEdeEv
FNDA:0,_ZNK9__gnu_cxx17__normal_iteratorIPN4Poco9SharedPtrINS1_16AbstractDelegateIKNS1_7MessageEEENS1_16ReferenceCounterENS1_13ReleasePolicyIS6_EEEESt6vectorISA_SaISA_EEEdeEv
FNDA:0,_ZN9__gnu_cxx17__normal_iteratorIPKN4Poco9SharedPtrINS1_16AbstractDelegateIKNS1_7MessageEEENS1_16ReferenceCounterENS1_13ReleasePolicyIS6_EEEESt6vectorISA_SaISA_EEEppEv
FNDA:0,_ZN9__gnu_cxx17__normal_iteratorIPN4Poco9SharedPtrINS1_16AbstractDelegateIKNS1_7MessageEEENS1_16ReferenceCounterENS1_13ReleasePolicyIS6_EEEESt6vectorISA_SaISA_EEEppEv
FNDA:0,_ZNK9__gnu_cxx17__normal_iteratorIPN4Poco9SharedPtrINS1_16AbstractDelegateIKNS1_7MessageEEENS1_16ReferenceCounterENS1_13ReleasePolicyIS6_EEEESt6vectorISA_SaISA_EEEplEl
FNDA:0,_ZNK9__gnu_cxx17__normal_iteratorIPKN4Poco9SharedPtrINS1_16AbstractDelegateIKNS1_7MessageEEENS1_16ReferenceCounterENS1_13ReleasePolicyIS6_EEEESt6vectorISA_SaISA_EEE4baseEv
FNDA:0,_ZNK9__gnu_cxx17__normal_iteratorIPN4Poco9SharedPtrINS1_16AbstractDelegateIKNS1_7MessageEEENS1_16ReferenceCounterENS1_13ReleasePolicyIS6_EEEESt6vectorISA_SaISA_EEE4baseEv
FNDA:0,_ZN9__gnu_cxxeqIPKN4Poco9SharedPtrINS1_16AbstractDelegateIKNS1_7MessageEEENS1_16ReferenceCounterENS1_13ReleasePolicyIS6_EEEESt6vectorISA_SaISA_EEEEbRKNS_17__normal_iteratorIT_T0_EESL_
FNDA:0,_ZN9__gnu_cxxneIPKN4Poco9SharedPtrINS1_16AbstractDelegateIKNS1_7MessageEEENS1_16ReferenceCounterENS1_13ReleasePolicyIS6_EEEESt6vectorISA_SaISA_EEEEbRKNS_17__normal_iteratorIT_T0_EESL_
FNDA:0,_ZN9__gnu_cxxneIPN4Poco9SharedPtrINS1_16AbstractDelegateIKNS1_7MessageEEENS1_16ReferenceCounterENS1_13ReleasePolicyIS6_EEEESt6vectorISA_SaISA_EEEEbRKNS_17__normal_iteratorIT_T0_EESK_
FNDA:0,_ZN9__gnu_cxxmiIPN4Poco9SharedPtrINS1_16AbstractDelegateIKNS1_7MessageEEENS1_16ReferenceCounterENS1_13ReleasePolicyIS6_EEEESt6vectorISA_SaISA_EEEENS_17__normal_iteratorIT_T0_E15difference_typeERKSI_SL_
FNDA:0,_ZN9__gnu_cxxmiIPKN4Poco9SharedPtrINS1_16AbstractDelegateIKNS1_7MessageEEENS1_16ReferenceCounterENS1_13ReleasePolicyIS6_EEEESt6vectorISA_SaISA_EEEENS_17__normal_iteratorIT_T0_E15difference_typeERKSJ_SM_
FNDA:0,_ZSt12__niter_baseIPN4Poco9SharedPtrINS0_16AbstractDelegateIKNS0_7MessageEEENS0_16ReferenceCounterENS0_13ReleasePolicyIS5_EEEESt6vectorIS9_SaIS9_EEET_N9__gnu_cxx17__normal_iteratorISE_T0_EE
FNDA:0,_ZNSt13move_iteratorIPN4Poco9SharedPtrINS0_16AbstractDelegateIKNS0_7MessageEEENS0_16ReferenceCounterENS0_13ReleasePolicyIS5_EEEEEC2ESA_
FNDA:0,_ZNKSt13move_iteratorIPN4Poco9SharedPtrINS0_16AbstractDelegateIKNS0_7MessageEEENS0_16ReferenceCounterENS0_13ReleasePolicyIS5_EEEEE4baseEv
FNDA:0,_ZNKSt13move_iteratorIPN4Poco9SharedPtrINS0_16AbstractDelegateIKNS0_7MessageEEENS0_16ReferenceCounterENS0_13ReleasePolicyIS5_EEEEEdeEv
FNDA:0,_ZNSt13move_iteratorIPN4Poco9SharedPtrINS0_16AbstractDelegateIKNS0_7MessageEEENS0_16ReferenceCounterENS0_13ReleasePolicyIS5_EEEEEppEv
FNDA:0,_ZSteqIPN4Poco9SharedPtrINS0_16AbstractDelegateIKNS0_7MessageEEENS0_16ReferenceCounterENS0_13ReleasePolicyIS5_EEEEEbRKSt13move_iteratorIT_ESF_
FNDA:0,_ZStneIPN4Poco9SharedPtrINS0_16AbstractDelegateIKNS0_7MessageEEENS0_16ReferenceCounterENS0_13ReleasePolicyIS5_EEEEEbRKSt13move_iteratorIT_ESF_
FNDA:0,_ZSt32__make_move_if_noexcept_iteratorIN4Poco9SharedPtrINS0_16AbstractDelegateIKNS0_7MessageEEENS0_16ReferenceCounterENS0_13ReleasePolicyIS5_EEEESt13move_iteratorIPS9_EET0_PT_
FNF:23
FNH:0
DA:782,0
DA:783,0
DA:787,0
DA:791,0
DA:795,0
DA:796,0
DA:803,0
DA:805,0
DA:806,0
DA:835,0
DA:836,0
DA:847,0
DA:848,0
DA:869,0
DA:872,0
DA:883,0
DA:886,0
DA:965,0
DA:968,0
DA:986,0
DA:987,0
DA:1039,0
DA:1040,0
DA:1048,0
DA:1049,0
DA:1052,0
DA:1053,0
DA:1060,0
DA:1062,0
DA:1063,0
DA:1127,0
DA:1129,0
DA:1139,0
DA:1141,0
DA:1224,0
DA:1225,0
LF:36
LH:0
end_of_record
SF:/usr/include/c++/7/bits/stl_uninitialized.h
FN:76,_ZNSt20__uninitialized_copyILb0EE13__uninit_copyISt13move_iteratorIPN4Poco9SharedPtrINS3_16AbstractDelegateIKNS3_7MessageEEENS3_16ReferenceCounterENS3_13ReleasePolicyIS8_EEEEESD_EET0_T_SG_SF_
FN:76,_ZNSt20__uninitialized_copyILb0EE13__uninit_copyIN9__gnu_cxx17__normal_iteratorIPKN4Poco9SharedPtrINS4_16AbstractDelegateIKNS4_7MessageEEENS4_16ReferenceCounterENS4_13ReleasePolicyIS9_EEEESt6vectorISD_SaISD_EEEEPSD_EET0_T_SM_SL_
FN:115,_ZSt18uninitialized_copyIN9__gnu_cxx17__normal_iteratorIPKN4Poco9SharedPtrINS2_16AbstractDelegateIKNS2_7MessageEEENS2_16ReferenceCounterENS2_13ReleasePolicyIS7_EEEESt6vectorISB_SaISB_EEEEPSB_ET0_T_SK_SJ_
FN:115,_ZSt18uninitialized_copyISt13move_iteratorIPN4Poco9SharedPtrINS1_16AbstractDelegateIKNS1_7MessageEEENS1_16ReferenceCounterENS1_13ReleasePolicyIS6_EEEEESB_ET0_T_SE_SD_
FN:287,_ZSt22__uninitialized_copy_aIN9__gnu_cxx17__normal_iteratorIPKN4Poco9SharedPtrINS2_16AbstractDelegateIKNS2_7MessageEEENS2_16ReferenceCounterENS2_13ReleasePolicyIS7_EEEESt6vectorISB_SaISB_EEEEPSB_SB_ET0_T_SK_SJ_RSaIT1_E
FN:287,_ZSt22__uninitialized_copy_aISt13move_iteratorIPN4Poco9SharedPtrINS1_16AbstractDelegateIKNS1_7MessageEEENS1_16ReferenceCounterENS1_13ReleasePolicyIS6_EEEEESB_SA_ET0_T_SE_SD_RSaIT1_E
FN:305,_ZSt34__uninitialized_move_if_noexcept_aIPN4Poco9SharedPtrINS0_16AbstractDelegateIKNS0_7MessageEEENS0_16ReferenceCounterENS0_13ReleasePolicyIS5_EEEESA_SaIS9_EET0_T_SD_SC_RT1_
FNDA:0,_ZNSt20__uninitialized_copyILb0EE13__uninit_copyISt13move_iteratorIPN4Poco9SharedPtrINS3_16AbstractDelegateIKNS3_7MessageEEENS3_16ReferenceCounterENS3_13ReleasePolicyIS8_EEEEESD_EET0_T_SG_SF_
FNDA:0,_ZNSt20__uninitialized_copyILb0EE13__uninit_copyIN9__gnu_cxx17__normal_iteratorIPKN4Poco9SharedPtrINS4_16AbstractDelegateIKNS4_7MessageEEENS4_16ReferenceCounterENS4_13ReleasePolicyIS9_EEEESt6vectorISD_SaISD_EEEEPSD_EET0_T_SM_SL_
FNDA:0,_ZSt18uninitialized_copyISt13move_iteratorIPN4Poco9SharedPtrINS1_16AbstractDelegateIKNS1_7MessageEEENS1_16ReferenceCounterENS1_13ReleasePolicyIS6_EEEEESB_ET0_T_SE_SD_
FNDA:0,_ZSt18uninitialized_copyIN9__gnu_cxx17__normal_iteratorIPKN4Poco9SharedPtrINS2_16AbstractDelegateIKNS2_7MessageEEENS2_16ReferenceCounterENS2_13ReleasePolicyIS7_EEEESt6vectorISB_SaISB_EEEEPSB_ET0_T_SK_SJ_
FNDA:0,_ZSt22__uninitialized_copy_aISt13move_iteratorIPN4Poco9SharedPtrINS1_16AbstractDelegateIKNS1_7MessageEEENS1_16ReferenceCounterENS1_13ReleasePolicyIS6_EEEEESB_SA_ET0_T_SE_SD_RSaIT1_E
FNDA:0,_ZSt22__uninitialized_copy_aIN9__gnu_cxx17__normal_iteratorIPKN4Poco9SharedPtrINS2_16AbstractDelegateIKNS2_7MessageEEENS2_16ReferenceCounterENS2_13ReleasePolicyIS7_EEEESt6vectorISB_SaISB_EEEEPSB_SB_ET0_T_SK_SJ_RSaIT1_E
FNDA:0,_ZSt34__uninitialized_move_if_noexcept_aIPN4Poco9SharedPtrINS0_16AbstractDelegateIKNS0_7MessageEEENS0_16ReferenceCounterENS0_13ReleasePolicyIS5_EEEESA_SaIS9_EET0_T_SD_SC_RT1_
FNF:7
FNH:0
DA:76,0
DA:79,0
DA:82,0
DA:83,0
DA:84,0
DA:86,0
DA:88,0
DA:89,0
DA:115,0
DA:128,0
DA:134,0
DA:287,0
DA:289,0
DA:305,0
DA:311,0
DA:312,0
LF:16
LH:0
end_of_record
SF:/usr/include/c++/7/bits/stl_vector.h
FN:81,_ZNSt12_Vector_baseIN4Poco9SharedPtrINS0_16AbstractDelegateIKNS0_7MessageEEENS0_16ReferenceCounterENS0_13ReleasePolicyIS5_EEEESaIS9_EE12_Vector_implD2Ev
FN:88,_ZNSt12_Vector_baseIN4Poco9SharedPtrINS0_16AbstractDelegateIKNS0_7MessageEEENS0_16ReferenceCounterENS0_13ReleasePolicyIS5_EEEESaIS9_EE12_Vector_implC2Ev
FN:92,_ZNSt12_Vector_baseIN4Poco9SharedPtrINS0_16AbstractDelegateIKNS0_7MessageEEENS0_16ReferenceCounterENS0_13ReleasePolicyIS5_EEEESaIS9_EE12_Vector_implC2ERKSA_
FN:115,_ZNSt12_Vector_baseIN4Poco9SharedPtrINS0_16AbstractDelegateIKNS0_7MessageEEENS0_16ReferenceCounterENS0_13ReleasePolicyIS5_EEEESaIS9_EE19_M_get_Tp_allocatorEv
FN:119,_ZNKSt12_Vector_baseIN4Poco9SharedPtrINS0_16AbstractDelegateIKNS0_7MessageEEENS0_16ReferenceCounterENS0_13ReleasePolicyIS5_EEEESaIS9_EE19_M_get_Tp_allocatorEv
FN:126,_ZNSt12_Vector_baseIN4Poco9SharedPtrINS0_16AbstractDelegateIKNS0_7MessageEEENS0_16ReferenceCounterENS0_13ReleasePolicyIS5_EEEESaIS9_EEC2Ev
FN:136,_ZNSt12_Vector_baseIN4Poco9SharedPtrINS0_16AbstractDelegateIKNS0_7MessageEEENS0_16ReferenceCounterENS0_13ReleasePolicyIS5_EEEESaIS9_EEC2EmRKSA_
FN:161,_ZNSt12_Vector_baseIN4Poco9SharedPtrINS0_16AbstractDelegateIKNS0_7MessageEEENS0_16ReferenceCounterENS0_13ReleasePolicyIS5_EEEESaIS9_EED2Ev
FN:169,_ZNSt12_Vector_baseIN4Poco9SharedPtrINS0_16AbstractDelegateIKNS0_7MessageEEENS0_16ReferenceCounterENS0_13ReleasePolicyIS5_EEEESaIS9_EE11_M_allocateEm
FN:176,_ZNSt12_Vector_baseIN4Poco9SharedPtrINS0_16AbstractDelegateIKNS0_7MessageEEENS0_16ReferenceCounterENS0_13ReleasePolicyIS5_EEEESaIS9_EE13_M_deallocateEPS9_m
FN:185,_ZNSt12_Vector_baseIN4Poco9SharedPtrINS0_16AbstractDelegateIKNS0_7MessageEEENS0_16ReferenceCounterENS0_13ReleasePolicyIS5_EEEESaIS9_EE17_M_create_storageEm
FN:259,_ZNSt6vectorIN4Poco9SharedPtrINS0_16AbstractDelegateIKNS0_7MessageEEENS0_16ReferenceCounterENS0_13ReleasePolicyIS5_EEEESaIS9_EEC2Ev
FN:326,_ZNSt6vectorIN4Poco9SharedPtrINS0_16AbstractDelegateIKNS0_7MessageEEENS0_16ReferenceCounterENS0_13ReleasePolicyIS5_EEEESaIS9_EEC2ERKSB_
FN:433,_ZNSt6vectorIN4Poco9SharedPtrINS0_16AbstractDelegateIKNS0_7MessageEEENS0_16ReferenceCounterENS0_13ReleasePolicyIS5_EEEESaIS9_EED2Ev
FN:563,_ZNSt6vectorIN4Poco9SharedPtrINS0_16AbstractDelegateIKNS0_7MessageEEENS0_16ReferenceCounterENS0_13ReleasePolicyIS5_EEEESaIS9_EE5beginEv
FN:572,_ZNKSt6vectorIN4Poco9SharedPtrINS0_16AbstractDelegateIKNS0_7MessageEEENS0_16ReferenceCounterENS0_13ReleasePolicyIS5_EEEESaIS9_EE5beginEv
FN:581,_ZNSt6vectorIN4Poco9SharedPtrINS0_16AbstractDelegateIKNS0_7MessageEEENS0_16ReferenceCounterENS0_13ReleasePolicyIS5_EEEESaIS9_EE3endEv
FN:590,_ZNKSt6vectorIN4Poco9SharedPtrINS0_16AbstractDelegateIKNS0_7MessageEEENS0_16ReferenceCounterENS0_13ReleasePolicyIS5_EEEESaIS9_EE3endEv
FN:636,_ZNKSt6vectorIN4Poco9SharedPtrINS0_16AbstractDelegateIKNS0_7MessageEEENS0_16ReferenceCounterENS0_13ReleasePolicyIS5_EEEESaIS9_EE6cbeginEv
FN:670,_ZNKSt6vectorIN4Poco9SharedPtrINS0_16AbstractDelegateIKNS0_7MessageEEENS0_16ReferenceCounterENS0_13ReleasePolicyIS5_EEEESaIS9_EE4sizeEv
FN:675,_ZNKSt6vectorIN4Poco9SharedPtrINS0_16AbstractDelegateIKNS0_7MessageEEENS0_16ReferenceCounterENS0_13ReleasePolicyIS5_EEEESaIS9_EE8max_sizeEv
FN:759,_ZNKSt6vectorIN4Poco9SharedPtrINS0_16AbstractDelegateIKNS0_7MessageEEENS0_16ReferenceCounterENS0_13ReleasePolicyIS5_EEEESaIS9_EE5emptyEv
FN:939,_ZNSt6vectorIN4Poco9SharedPtrINS0_16AbstractDelegateIKNS0_7MessageEEENS0_16ReferenceCounterENS0_13ReleasePolicyIS5_EEEESaIS9_EE9push_backERKS9_
FN:1179,_ZNSt6vectorIN4Poco9SharedPtrINS0_16AbstractDelegateIKNS0_7MessageEEENS0_16ReferenceCounterENS0_13ReleasePolicyIS5_EEEESaIS9_EE5eraseEN9__gnu_cxx17__normal_iteratorIPKS9_SB_EE
FN:1247,_ZNSt6vectorIN4Poco9SharedPtrINS0_16AbstractDelegateIKNS0_7MessageEEENS0_16ReferenceCounterENS0_13ReleasePolicyIS5_EEEESaIS9_EE5clearEv
FN:1502,_ZNKSt6vectorIN4Poco9SharedPtrINS0_16AbstractDelegateIKNS0_7MessageEEENS0_16ReferenceCounterENS0_13ReleasePolicyIS5_EEEESaIS9_EE12_M_check_lenEmPKc
FN:1516,_ZNSt6vectorIN4Poco9SharedPtrINS0_16AbstractDelegateIKNS0_7MessageEEENS0_16ReferenceCounterENS0_13ReleasePolicyIS5_EEEESaIS9_EE15_M_erase_at_endEPS9_
FNDA:0,_ZNSt12_Vector_baseIN4Poco9SharedPtrINS0_16AbstractDelegateIKNS0_7MessageEEENS0_16ReferenceCounterENS0_13ReleasePolicyIS5_EEEESaIS9_EE12_Vector_implD2Ev
FNDA:0,_ZNSt12_Vector_baseIN4Poco9SharedPtrINS0_16AbstractDelegateIKNS0_7MessageEEENS0_16ReferenceCounterENS0_13ReleasePolicyIS5_EEEESaIS9_EE12_Vector_implC2Ev
FNDA:0,_ZNSt12_Vector_baseIN4Poco9SharedPtrINS0_16AbstractDelegateIKNS0_7MessageEEENS0_16ReferenceCounterENS0_13ReleasePolicyIS5_EEEESaIS9_EE12_Vector_implC2ERKSA_
FNDA:0,_ZNSt12_Vector_baseIN4Poco9SharedPtrINS0_16AbstractDelegateIKNS0_7MessageEEENS0_16ReferenceCounterENS0_13ReleasePolicyIS5_EEEESaIS9_EE19_M_get_Tp_allocatorEv
FNDA:0,_ZNKSt12_Vector_baseIN4Poco9SharedPtrINS0_16AbstractDelegateIKNS0_7MessageEEENS0_16ReferenceCounterENS0_13ReleasePolicyIS5_EEEESaIS9_EE19_M_get_Tp_allocatorEv
FNDA:0,_ZNSt12_Vector_baseIN4Poco9SharedPtrINS0_16AbstractDelegateIKNS0_7MessageEEENS0_16ReferenceCounterENS0_13ReleasePolicyIS5_EEEESaIS9_EEC2Ev
FNDA:0,_ZNSt12_Vector_baseIN4Poco9SharedPtrINS0_16AbstractDelegateIKNS0_7MessageEEENS0_16ReferenceCounterENS0_13ReleasePolicyIS5_EEEESaIS9_EEC2EmRKSA_
FNDA:0,_ZNSt12_Vector_baseIN4Poco9SharedPtrINS0_16AbstractDelegateIKNS0_7MessageEEENS0_16ReferenceCounterENS0_13ReleasePolicyIS5_EEEESaIS9_EED2Ev
FNDA:0,_ZNSt12_Vector_baseIN4Poco9SharedPtrINS0_16AbstractDelegateIKNS0_7MessageEEENS0_16ReferenceCounterENS0_13ReleasePolicyIS5_EEEESaIS9_EE11_M_allocateEm
FNDA:0,_ZNSt12_Vector_baseIN4Poco9SharedPtrINS0_16AbstractDelegateIKNS0_7MessageEEENS0_16ReferenceCounterENS0_13ReleasePolicyIS5_EEEESaIS9_EE13_M_deallocateEPS9_m
FNDA:0,_ZNSt12_Vector_baseIN4Poco9SharedPtrINS0_16AbstractDelegateIKNS0_7MessageEEENS0_16ReferenceCounterENS0_13ReleasePolicyIS5_EEEESaIS9_EE17_M_create_storageEm
FNDA:0,_ZNSt6vectorIN4Poco9SharedPtrINS0_16AbstractDelegateIKNS0_7MessageEEENS0_16ReferenceCounterENS0_13ReleasePolicyIS5_EEEESaIS9_EEC2Ev
FNDA:0,_ZNSt6vectorIN4Poco9SharedPtrINS0_16AbstractDelegateIKNS0_7MessageEEENS0_16ReferenceCounterENS0_13ReleasePolicyIS5_EEEESaIS9_EEC2ERKSB_
FNDA:0,_ZNSt6vectorIN4Poco9SharedPtrINS0_16AbstractDelegateIKNS0_7MessageEEENS0_16ReferenceCounterENS0_13ReleasePolicyIS5_EEEESaIS9_EED2Ev
FNDA:0,_ZNSt6vectorIN4Poco9SharedPtrINS0_16AbstractDelegateIKNS0_7MessageEEENS0_16ReferenceCounterENS0_13ReleasePolicyIS5_EEEESaIS9_EE5beginEv
FNDA:0,_ZNKSt6vectorIN4Poco9SharedPtrINS0_16AbstractDelegateIKNS0_7MessageEEENS0_16ReferenceCounterENS0_13ReleasePolicyIS5_EEEESaIS9_EE5beginEv
FNDA:0,_ZNSt6vectorIN4Poco9SharedPtrINS0_16AbstractDelegateIKNS0_7MessageEEENS0_16ReferenceCounterENS0_13ReleasePolicyIS5_EEEESaIS9_EE3endEv
FNDA:0,_ZNKSt6vectorIN4Poco9SharedPtrINS0_16AbstractDelegateIKNS0_7MessageEEENS0_16ReferenceCounterENS0_13ReleasePolicyIS5_EEEESaIS9_EE3endEv
FNDA:0,_ZNKSt6vectorIN4Poco9SharedPtrINS0_16AbstractDelegateIKNS0_7MessageEEENS0_16ReferenceCounterENS0_13ReleasePolicyIS5_EEEESaIS9_EE6cbeginEv
FNDA:0,_ZNKSt6vectorIN4Poco9SharedPtrINS0_16AbstractDelegateIKNS0_7MessageEEENS0_16ReferenceCounterENS0_13ReleasePolicyIS5_EEEESaIS9_EE4sizeEv
FNDA:0,_ZNKSt6vectorIN4Poco9SharedPtrINS0_16AbstractDelegateIKNS0_7MessageEEENS0_16ReferenceCounterENS0_13ReleasePolicyIS5_EEEESaIS9_EE8max_sizeEv
FNDA:0,_ZNKSt6vectorIN4Poco9SharedPtrINS0_16AbstractDelegateIKNS0_7MessageEEENS0_16ReferenceCounterENS0_13ReleasePolicyIS5_EEEESaIS9_EE5emptyEv
FNDA:0,_ZNSt6vectorIN4Poco9SharedPtrINS0_16AbstractDelegateIKNS0_7MessageEEENS0_16ReferenceCounterENS0_13ReleasePolicyIS5_EEEESaIS9_EE9push_backERKS9_
FNDA:0,_ZNSt6vectorIN4Poco9SharedPtrINS0_16AbstractDelegateIKNS0_7MessageEEENS0_16ReferenceCounterENS0_13ReleasePolicyIS5_EEEESaIS9_EE5eraseEN9__gnu_cxx17__normal_iteratorIPKS9_SB_EE
FNDA:0,_ZNSt6vectorIN4Poco9SharedPtrINS0_16AbstractDelegateIKNS0_7MessageEEENS0_16ReferenceCounterENS0_13ReleasePolicyIS5_EEEESaIS9_EE5clearEv
FNDA:0,_ZNKSt6vectorIN4Poco9SharedPtrINS0_16AbstractDelegateIKNS0_7MessageEEENS0_16ReferenceCounterENS0_13ReleasePolicyIS5_EEEESaIS9_EE12_M_check_lenEmPKc
FNDA:0,_ZNSt6vectorIN4Poco9SharedPtrINS0_16AbstractDelegateIKNS0_7MessageEEENS0_16ReferenceCounterENS0_13ReleasePolicyIS5_EEEESaIS9_EE15_M_erase_at_endEPS9_
FNF:27
FNH:0
DA:81,0
DA:88,0
DA:89,0
DA:90,0
DA:92,0
DA:93,0
DA:94,0
DA:115,0
DA:116,0
DA:119,0
DA:120,0
DA:126,0
DA:127,0
DA:136,0
DA:137,0
DA:138,0
DA:161,0
DA:162,0
DA:163,0
DA:169,0
DA:172,0
DA:176,0
DA:179,0
DA:180,0
DA:181,0
DA:185,0
DA:187,0
DA:188,0
DA:189,0
DA:190,0
DA:259,0
DA:263,0
DA:326,0
DA:328,0
DA:330,0
DA:331,0
DA:333,0
DA:334,0
DA:433,0
DA:434,0
DA:435,0
DA:563,0
DA:564,0
DA:572,0
DA:573,0
DA:581,0
DA:582,0
DA:590,0
DA:591,0
DA:636,0
DA:637,0
DA:670,0
DA:671,0
DA:675,0
DA:676,0
DA:759,0
DA:760,0
DA:939,0
DA:941,0
DA:943,0
DA:945,0
DA:948,0
DA:949,0
DA:1179,0
DA:1180,0
DA:1247,0
DA:1248,0
DA:1502,0
DA:1504,0
DA:1505,0
DA:1507,0
DA:1508,0
DA:1516,0
DA:1518,0
DA:1519,0
DA:1520,0
LF:76
LH:0
end_of_record
SF:/usr/include/c++/7/bits/vector.tcc
FN:153,_ZNSt6vectorIN4Poco9SharedPtrINS0_16AbstractDelegateIKNS0_7MessageEEENS0_16ReferenceCounterENS0_13ReleasePolicyIS5_EEEESaIS9_EE8_M_eraseEN9__gnu_cxx17__normal_iteratorIPS9_SB_EE
FN:394,_ZNSt6vectorIN4Poco9SharedPtrINS0_16AbstractDelegateIKNS0_7MessageEEENS0_16ReferenceCounterENS0_13ReleasePolicyIS5_EEEESaIS9_EE17_M_realloc_insertIJRKS9_EEEvN9__gnu_cxx17__normal_iteratorIPS9_SB_EEDpOT_
FNDA:0,_ZNSt6vectorIN4Poco9SharedPtrINS0_16AbstractDelegateIKNS0_7MessageEEENS0_16ReferenceCounterENS0_13ReleasePolicyIS5_EEEESaIS9_EE8_M_eraseEN9__gnu_cxx17__normal_iteratorIPS9_SB_EE
FNDA:0,_ZNSt6vectorIN4Poco9SharedPtrINS0_16AbstractDelegateIKNS0_7MessageEEENS0_16ReferenceCounterENS0_13ReleasePolicyIS5_EEEESaIS9_EE17_M_realloc_insertIJRKS9_EEEvN9__gnu_cxx17__normal_iteratorIPS9_SB_EEDpOT_
FNF:2
FNH:0
DA:153,0
DA:156,0
DA:157,0
DA:158,0
DA:159,0
DA:160,0
DA:394,0
DA:403,0
DA:405,0
DA:406,0
DA:407,0
DA:415,0
DA:416,0
DA:422,0
DA:424,0
DA:426,0
DA:427,0
DA:429,0
DA:431,0
DA:433,0
DA:434,0
DA:436,0
DA:438,0
DA:439,0
DA:440,0
DA:442,0
DA:443,0
DA:444,0
DA:446,0
DA:447,0
DA:448,0
DA:449,0
DA:450,0
DA:451,0
DA:452,0
DA:453,0
DA:454,0
LF:37
LH:0
end_of_record
SF:/usr/include/c++/7/ext/alloc_traits.h
FN:94,_ZN9__gnu_cxx14__alloc_traitsISaIN4Poco9SharedPtrINS1_16AbstractDelegateIKNS1_7MessageEEENS1_16ReferenceCounterENS1_13ReleasePolicyIS6_EEEEEE17_S_select_on_copyERKSB_
FNDA:0,_ZN9__gnu_cxx14__alloc_traitsISaIN4Poco9SharedPtrINS1_16AbstractDelegateIKNS1_7MessageEEENS1_16ReferenceCounterENS1_13ReleasePolicyIS6_EEEEEE17_S_select_on_copyERKSB_
FNF:1
FNH:0
DA:94,0
DA:95,0
LF:2
LH:0
end_of_record
SF:/usr/include/c++/7/ext/new_allocator.h
FN:79,_ZN9__gnu_cxx13new_allocatorIN4Poco9SharedPtrINS1_16AbstractDelegateIKNS1_7MessageEEENS1_16ReferenceCounterENS1_13ReleasePolicyIS6_EEEEEC2Ev
FN:81,_ZN9__gnu_cxx13new_allocatorIN4Poco9SharedPtrINS1_16AbstractDelegateIKNS1_7MessageEEENS1_16ReferenceCounterENS1_13ReleasePolicyIS6_EEEEEC2ERKSB_
FN:86,_ZN9__gnu_cxx13new_allocatorIN4Poco9SharedPtrINS1_16AbstractDelegateIKNS1_7MessageEEENS1_16ReferenceCounterENS1_13ReleasePolicyIS6_EEEEED2Ev
FN:99,_ZN9__gnu_cxx13new_allocatorIN4Poco9SharedPtrINS1_16AbstractDelegateIKNS1_7MessageEEENS1_16ReferenceCounterENS1_13ReleasePolicyIS6_EEEEE8allocateEmPKv
FN:116,_ZN9__gnu_cxx13new_allocatorIN4Poco9SharedPtrINS1_16AbstractDelegateIKNS1_7MessageEEENS1_16ReferenceCounterENS1_13ReleasePolicyIS6_EEEEE10deallocateEPSA_m
FN:129,_ZNK9__gnu_cxx13new_allocatorIN4Poco9SharedPtrINS1_16AbstractDelegateIKNS1_7MessageEEENS1_16ReferenceCounterENS1_13ReleasePolicyIS6_EEEEE8max_sizeEv
FN:135,_ZN9__gnu_cxx13new_allocatorIN4Poco9SharedPtrINS1_16AbstractDelegateIKNS1_7MessageEEENS1_16ReferenceCounterENS1_13ReleasePolicyIS6_EEEEE9constructISA_JRKSA_EEEvPT_DpOT0_
FN:140,_ZN9__gnu_cxx13new_allocatorIN4Poco9SharedPtrINS1_16AbstractDelegateIKNS1_7MessageEEENS1_16ReferenceCounterENS1_13ReleasePolicyIS6_EEEEE7destroyISA_EEvPT_
FNDA:0,_ZN9__gnu_cxx13new_allocatorIN4Poco9SharedPtrINS1_16AbstractDelegateIKNS1_7MessageEEENS1_16ReferenceCounterENS1_13ReleasePolicyIS6_EEEEEC2Ev
FNDA:0,_ZN9__gnu_cxx13new_allocatorIN4Poco9SharedPtrINS1_16AbstractDelegateIKNS1_7MessageEEENS1_16ReferenceCounterENS1_13ReleasePolicyIS6_EEEEEC2ERKSB_
FNDA:0,_ZN9__gnu_cxx13new_allocatorIN4Poco9SharedPtrINS1_16AbstractDelegateIKNS1_7MessageEEENS1_16ReferenceCounterENS1_13ReleasePolicyIS6_EEEEED2Ev
FNDA:0,_ZN9__gnu_cxx13new_allocatorIN4Poco9SharedPtrINS1_16AbstractDelegateIKNS1_7MessageEEENS1_16ReferenceCounterENS1_13ReleasePolicyIS6_EEEEE8allocateEmPKv
FNDA:0,_ZN9__gnu_cxx13new_allocatorIN4Poco9SharedPtrINS1_16AbstractDelegateIKNS1_7MessageEEENS1_16ReferenceCounterENS1_13ReleasePolicyIS6_EEEEE10deallocateEPSA_m
FNDA:0,_ZNK9__gnu_cxx13new_allocatorIN4Poco9SharedPtrINS1_16AbstractDelegateIKNS1_7MessageEEENS1_16ReferenceCounterENS1_13ReleasePolicyIS6_EEEEE8max_sizeEv
FNDA:0,_ZN9__gnu_cxx13new_allocatorIN4Poco9SharedPtrINS1_16AbstractDelegateIKNS1_7MessageEEENS1_16ReferenceCounterENS1_13ReleasePolicyIS6_EEEEE9constructISA_JRKSA_EEEvPT_DpOT0_
FNDA:0,_ZN9__gnu_cxx13new_allocatorIN4Poco9SharedPtrINS1_16AbstractDelegateIKNS1_7MessageEEENS1_16ReferenceCounterENS1_13ReleasePolicyIS6_EEEEE7destroyISA_EEvPT_
FNF:8
FNH:0
DA:79,0
DA:81,0
DA:86,0
DA:99,0
DA:101,0
DA:102,0
DA:111,0
DA:116,0
DA:125,0
DA:126,0
DA:129,0
DA:130,0
DA:135,0
DA:136,0
DA:140,0
LF:15
LH:0
end_of_record
SF:/usr/include/c++/7/iostream
DA:74,1
LF:1
LH:1
end_of_record
SF:/usr/include/c++/7/new
FN:168,_ZnwmPv
FN:174,_ZdlPvS_
FNDA:0,_ZnwmPv
FNDA:0,_ZdlPvS_
FNF:2
FNH:0
DA:168,0
DA:169,0
DA:174,0
LF:3
LH:0
end_of_record
TN:
SF:/home/vera/poco/Foundation/include/Poco/AtomicCounter.h
FN:112,_ZN4Poco13AtomicCountermmEv
FNDA:0,_ZN4Poco13AtomicCountermmEv
FNF:1
FNH:0
DA:112,0
DA:114,0
LF:2
LH:0
end_of_record
SF:/home/vera/poco/Foundation/include/Poco/AutoPtr.h
FN:69,_ZN4Poco7AutoPtrINS_7ChannelEEC2EPS1_
FN:69,_ZN4Poco7AutoPtrINS_9FormatterEEC2EPS1_
FN:94,_ZN4Poco7AutoPtrINS_7ChannelEED2Ev
FNDA:0,_ZN4Poco7AutoPtrINS_9FormatterEEC2EPS1_
FNDA:0,_ZN4Poco7AutoPtrINS_7ChannelEEC2EPS1_
FNDA:0,_ZN4Poco7AutoPtrINS_7ChannelEED2Ev
FNF:3
FNH:0
DA:69,0
DA:71,0
DA:94,0
DA:96,0
DA:97,0
LF:5
LH:0
end_of_record
SF:/home/vera/poco/Foundation/include/Poco/DynamicFactory.h
FN:39,_ZN4Poco14DynamicFactoryINS_7ChannelEEC2Ev
FN:39,_ZN4Poco14DynamicFactoryINS_9FormatterEEC2Ev
FN:44,_ZN4Poco14DynamicFactoryINS_7ChannelEED2Ev
FN:44,_ZN4Poco14DynamicFactoryINS_9FormatterEED2Ev
FN:54,_ZNK4Poco14DynamicFactoryINS_9FormatterEE14createInstanceERKNSt7__cxx1112basic_stringIcSt11char_traitsIcESaIcEEE
FN:54,_ZNK4Poco14DynamicFactoryINS_7ChannelEE14createInstanceERKNSt7__cxx1112basic_stringIcSt11char_traitsIcESaIcEEE
FN:79,_ZN4Poco14DynamicFactoryINS_7ChannelEE13registerClassERKNSt7__cxx1112basic_stringIcSt11char_traitsIcESaIcEEEPNS_20AbstractInstantiatorIS1_EE
FN:79,_ZN4Poco14DynamicFactoryINS_9FormatterEE13registerClassERKNSt7__cxx1112basic_stringIcSt11char_traitsIcESaIcEEEPNS_20AbstractInstantiatorIS1_EE
FNDA:0,_ZN4Poco14DynamicFactoryINS_9FormatterEEC2Ev
FNDA:0,_ZN4Poco14DynamicFactoryINS_7ChannelEEC2Ev
FNDA:0,_ZN4Poco14DynamicFactoryINS_9FormatterEED2Ev
FNDA:0,_ZN4Poco14DynamicFactoryINS_7ChannelEED2Ev
FNDA:0,_ZNK4Poco14DynamicFactoryINS_9FormatterEE14createInstanceERKNSt7__cxx1112basic_stringIcSt11char_traitsIcESaIcEEE
FNDA:0,_ZNK4Poco14DynamicFactoryINS_7ChannelEE14createInstanceERKNSt7__cxx1112basic_stringIcSt11char_traitsIcESaIcEEE
FNDA:0,_ZN4Poco14DynamicFactoryINS_9FormatterEE13registerClassERKNSt7__cxx1112basic_stringIcSt11char_traitsIcESaIcEEEPNS_20AbstractInstantiatorIS1_EE
FNDA:0,_ZN4Poco14DynamicFactoryINS_7ChannelEE13registerClassERKNSt7__cxx1112basic_stringIcSt11char_traitsIcESaIcEEEPNS_20AbstractInstantiatorIS1_EE
FNF:8
FNH:0
DA:39,0
DA:41,0
DA:42,0
DA:44,0
DA:48,0
DA:50,0
DA:52,0
DA:54,0
DA:59,0
DA:61,0
DA:62,0
DA:63,0
DA:65,0
DA:79,0
DA:86,0
DA:88,0
DA:90,0
DA:92,0
DA:93,0
DA:94,0
DA:96,0
DA:97,0
LF:22
LH:0
end_of_record
SF:/home/vera/poco/Foundation/include/Poco/Instantiator.h
FN:33,_ZN4Poco20AbstractInstantiatorINS_9FormatterEEC2Ev
FN:33,_ZN4Poco20AbstractInstantiatorINS_7ChannelEEC2Ev
FN:38,_ZN4Poco20AbstractInstantiatorINS_7ChannelEED0Ev
FN:38,_ZN4Poco20AbstractInstantiatorINS_9FormatterEED2Ev
FN:38,_ZN4Poco20AbstractInstantiatorINS_7ChannelEED2Ev
FN:38,_ZN4Poco20AbstractInstantiatorINS_9FormatterEED0Ev
FN:62,_ZN4Poco12InstantiatorINS_13SyslogChannelENS_7ChannelEEC2Ev
FN:62,_ZN4Poco12InstantiatorINS_14ConsoleChannelENS_7ChannelEEC2Ev
FN:62,_ZN4Poco12InstantiatorINS_17FormattingChannelENS_7ChannelEEC2Ev
FN:62,_ZN4Poco12InstantiatorINS_12EventChannelENS_7ChannelEEC2Ev
FN:62,_ZN4Poco12InstantiatorINS_15SplitterChannelENS_7ChannelEEC2Ev
FN:62,_ZN4Poco12InstantiatorINS_11FileChannelENS_7ChannelEEC2Ev
FN:62,_ZN4Poco12InstantiatorINS_16PatternFormatterENS_9FormatterEEC2Ev
FN:62,_ZN4Poco12InstantiatorINS_12AsyncChannelENS_7ChannelEEC2Ev
FN:62,_ZN4Poco12InstantiatorINS_11NullChannelENS_7ChannelEEC2Ev
FN:62,_ZN4Poco12InstantiatorINS_17SimpleFileChannelENS_7ChannelEEC2Ev
FN:62,_ZN4Poco12InstantiatorINS_19ColorConsoleChannelENS_7ChannelEEC2Ev
FN:67,_ZN4Poco12InstantiatorINS_11FileChannelENS_7ChannelEED0Ev
FN:67,_ZN4Poco12InstantiatorINS_15SplitterChannelENS_7ChannelEED0Ev
FN:67,_ZN4Poco12InstantiatorINS_17SimpleFileChannelENS_7ChannelEED0Ev
FN:67,_ZN4Poco12InstantiatorINS_12EventChannelENS_7ChannelEED2Ev
FN:67,_ZN4Poco12InstantiatorINS_17FormattingChannelENS_7ChannelEED0Ev
FN:67,_ZN4Poco12InstantiatorINS_17FormattingChannelENS_7ChannelEED2Ev
FN:67,_ZN4Poco12InstantiatorINS_11NullChannelENS_7ChannelEED2Ev
FN:67,_ZN4Poco12InstantiatorINS_14ConsoleChannelENS_7ChannelEED2Ev
FN:67,_ZN4Poco12InstantiatorINS_12AsyncChannelENS_7ChannelEED0Ev
FN:67,_ZN4Poco12InstantiatorINS_15SplitterChannelENS_7ChannelEED2Ev
FN:67,_ZN4Poco12InstantiatorINS_12EventChannelENS_7ChannelEED0Ev
FN:67,_ZN4Poco12InstantiatorINS_12AsyncChannelENS_7ChannelEED2Ev
FN:67,_ZN4Poco12InstantiatorINS_16PatternFormatterENS_9FormatterEED2Ev
FN:67,_ZN4Poco12InstantiatorINS_19ColorConsoleChannelENS_7ChannelEED2Ev
FN:67,_ZN4Poco12InstantiatorINS_16PatternFormatterENS_9FormatterEED0Ev
FN:67,_ZN4Poco12InstantiatorINS_11NullChannelENS_7ChannelEED0Ev
FN:67,_ZN4Poco12InstantiatorINS_13SyslogChannelENS_7ChannelEED0Ev
FN:67,_ZN4Poco12InstantiatorINS_19ColorConsoleChannelENS_7ChannelEED0Ev
FN:67,_ZN4Poco12InstantiatorINS_13SyslogChannelENS_7ChannelEED2Ev
FN:67,_ZN4Poco12InstantiatorINS_17SimpleFileChannelENS_7ChannelEED2Ev
FN:67,_ZN4Poco12InstantiatorINS_11FileChannelENS_7ChannelEED2Ev
FN:67,_ZN4Poco12InstantiatorINS_14ConsoleChannelENS_7ChannelEED0Ev
FN:72,_ZNK4Poco12InstantiatorINS_17FormattingChannelENS_7ChannelEE14createInstanceEv
FN:72,_ZNK4Poco12InstantiatorINS_13SyslogChannelENS_7ChannelEE14createInstanceEv
FN:72,_ZNK4Poco12InstantiatorINS_19ColorConsoleChannelENS_7ChannelEE14createInstanceEv
FN:72,_ZNK4Poco12InstantiatorINS_16PatternFormatterENS_9FormatterEE14createInstanceEv
FN:72,_ZNK4Poco12InstantiatorINS_11NullChannelENS_7ChannelEE14createInstanceEv
FN:72,_ZNK4Poco12InstantiatorINS_12EventChannelENS_7ChannelEE14createInstanceEv
FN:72,_ZNK4Poco12InstantiatorINS_14ConsoleChannelENS_7ChannelEE14createInstanceEv
FN:72,_ZNK4Poco12InstantiatorINS_17SimpleFileChannelENS_7ChannelEE14createInstanceEv
FN:72,_ZNK4Poco12InstantiatorINS_11FileChannelENS_7ChannelEE14createInstanceEv
FN:72,_ZNK4Poco12InstantiatorINS_12AsyncChannelENS_7ChannelEE14createInstanceEv
FN:72,_ZNK4Poco12InstantiatorINS_15SplitterChannelENS_7ChannelEE14createInstanceEv
FNDA:0,_ZN4Poco20AbstractInstantiatorINS_9FormatterEEC2Ev
FNDA:0,_ZN4Poco20AbstractInstantiatorINS_7ChannelEEC2Ev
FNDA:0,_ZN4Poco20AbstractInstantiatorINS_9FormatterEED0Ev
FNDA:0,_ZN4Poco20AbstractInstantiatorINS_9FormatterEED2Ev
FNDA:0,_ZN4Poco20AbstractInstantiatorINS_7ChannelEED0Ev
FNDA:0,_ZN4Poco20AbstractInstantiatorINS_7ChannelEED2Ev
FNDA:0,_ZN4Poco12InstantiatorINS_16PatternFormatterENS_9FormatterEEC2Ev
FNDA:0,_ZN4Poco12InstantiatorINS_13SyslogChannelENS_7ChannelEEC2Ev
FNDA:0,_ZN4Poco12InstantiatorINS_12EventChannelENS_7ChannelEEC2Ev
FNDA:0,_ZN4Poco12InstantiatorINS_11NullChannelENS_7ChannelEEC2Ev
FNDA:0,_ZN4Poco12InstantiatorINS_15SplitterChannelENS_7ChannelEEC2Ev
FNDA:0,_ZN4Poco12InstantiatorINS_17FormattingChannelENS_7ChannelEEC2Ev
FNDA:0,_ZN4Poco12InstantiatorINS_17SimpleFileChannelENS_7ChannelEEC2Ev
FNDA:0,_ZN4Poco12InstantiatorINS_11FileChannelENS_7ChannelEEC2Ev
FNDA:0,_ZN4Poco12InstantiatorINS_19ColorConsoleChannelENS_7ChannelEEC2Ev
FNDA:0,_ZN4Poco12InstantiatorINS_14ConsoleChannelENS_7ChannelEEC2Ev
FNDA:0,_ZN4Poco12InstantiatorINS_12AsyncChannelENS_7ChannelEEC2Ev
FNDA:0,_ZN4Poco12InstantiatorINS_12AsyncChannelENS_7ChannelEED0Ev
FNDA:0,_ZN4Poco12InstantiatorINS_12AsyncChannelENS_7ChannelEED2Ev
FNDA:0,_ZN4Poco12InstantiatorINS_14ConsoleChannelENS_7ChannelEED0Ev
FNDA:0,_ZN4Poco12InstantiatorINS_14ConsoleChannelENS_7ChannelEED2Ev
FNDA:0,_ZN4Poco12InstantiatorINS_19ColorConsoleChannelENS_7ChannelEED0Ev
FNDA:0,_ZN4Poco12InstantiatorINS_19ColorConsoleChannelENS_7ChannelEED2Ev
FNDA:0,_ZN4Poco12InstantiatorINS_11FileChannelENS_7ChannelEED0Ev
FNDA:0,_ZN4Poco12InstantiatorINS_11FileChannelENS_7ChannelEED2Ev
FNDA:0,_ZN4Poco12InstantiatorINS_17SimpleFileChannelENS_7ChannelEED0Ev
FNDA:0,_ZN4Poco12InstantiatorINS_17SimpleFileChannelENS_7ChannelEED2Ev
FNDA:0,_ZN4Poco12InstantiatorINS_17FormattingChannelENS_7ChannelEED0Ev
FNDA:0,_ZN4Poco12InstantiatorINS_17FormattingChannelENS_7ChannelEED2Ev
FNDA:0,_ZN4Poco12InstantiatorINS_15SplitterChannelENS_7ChannelEED0Ev
FNDA:0,_ZN4Poco12InstantiatorINS_15SplitterChannelENS_7ChannelEED2Ev
FNDA:0,_ZN4Poco12InstantiatorINS_11NullChannelENS_7ChannelEED0Ev
FNDA:0,_ZN4Poco12InstantiatorINS_11NullChannelENS_7ChannelEED2Ev
FNDA:0,_ZN4Poco12InstantiatorINS_12EventChannelENS_7ChannelEED0Ev
FNDA:0,_ZN4Poco12InstantiatorINS_12EventChannelENS_7ChannelEED2Ev
FNDA:0,_ZN4Poco12InstantiatorINS_13SyslogChannelENS_7ChannelEED0Ev
FNDA:0,_ZN4Poco12InstantiatorINS_13SyslogChannelENS_7ChannelEED2Ev
FNDA:0,_ZN4Poco12InstantiatorINS_16PatternFormatterENS_9FormatterEED0Ev
FNDA:0,_ZN4Poco12InstantiatorINS_16PatternFormatterENS_9FormatterEED2Ev
FNDA:0,_ZNK4Poco12InstantiatorINS_12AsyncChannelENS_7ChannelEE14createInstanceEv
FNDA:0,_ZNK4Poco12InstantiatorINS_14ConsoleChannelENS_7ChannelEE14createInstanceEv
FNDA:0,_ZNK4Poco12InstantiatorINS_19ColorConsoleChannelENS_7ChannelEE14createInstanceEv
FNDA:0,_ZNK4Poco12InstantiatorINS_11FileChannelENS_7ChannelEE14createInstanceEv
FNDA:0,_ZNK4Poco12InstantiatorINS_17SimpleFileChannelENS_7ChannelEE14createInstanceEv
FNDA:0,_ZNK4Poco12InstantiatorINS_17FormattingChannelENS_7ChannelEE14createInstanceEv
FNDA:0,_ZNK4Poco12InstantiatorINS_15SplitterChannelENS_7ChannelEE14createInstanceEv
FNDA:0,_ZNK4Poco12InstantiatorINS_11NullChannelENS_7ChannelEE14createInstanceEv
FNDA:0,_ZNK4Poco12InstantiatorINS_12EventChannelENS_7ChannelEE14createInstanceEv
FNDA:0,_ZNK4Poco12InstantiatorINS_13SyslogChannelENS_7ChannelEE14createInstanceEv
FNDA:0,_ZNK4Poco12InstantiatorINS_16PatternFormatterENS_9FormatterEE14createInstanceEv
FNF:50
FNH:0
DA:33,0
DA:35,0
DA:36,0
DA:38,0
DA:41,0
DA:62,0
DA:64,0
DA:65,0
DA:67,0
DA:70,0
DA:72,0
DA:74,0
LF:12
LH:0
end_of_record
SF:/home/vera/poco/Foundation/include/Poco/Mutex.h
FN:308,_ZN4Poco9FastMutex4lockEv
FN:333,_ZN4Poco9FastMutex6unlockEv
FNDA:0,_ZN4Poco9FastMutex4lockEv
FNDA:0,_ZN4Poco9FastMutex6unlockEv
FNF:2
FNH:0
DA:308,0
DA:310,0
DA:311,0
DA:333,0
DA:335,0
DA:336,0
LF:6
LH:0
end_of_record
SF:/home/vera/poco/Foundation/include/Poco/Mutex_POSIX.h
FN:57,_ZN4Poco9MutexImpl8lockImplEv
FN:76,_ZN4Poco9MutexImpl10unlockImplEv
FNDA:0,_ZN4Poco9MutexImpl8lockImplEv
FNDA:0,_ZN4Poco9MutexImpl10unlockImplEv
FNF:2
FNH:0
DA:57,0
DA:59,0
DA:60,0
DA:61,0
DA:76,0
DA:78,0
DA:79,0
DA:80,0
LF:8
LH:0
end_of_record
SF:/home/vera/poco/Foundation/include/Poco/RefCountedObject.h
FN:78,_ZNK4Poco16RefCountedObject7releaseEv
FNDA:0,_ZNK4Poco16RefCountedObject7releaseEv
FNF:1
FNH:0
DA:78,0
DA:82,0
DA:84,0
DA:86,0
DA:88,0
LF:5
LH:0
end_of_record
SF:/home/vera/poco/Foundation/include/Poco/ScopedLock.h
FN:36,_ZN4Poco10ScopedLockINS_9FastMutexEEC2ERS1_
FN:46,_ZN4Poco10ScopedLockINS_9FastMutexEED2Ev
FNDA:0,_ZN4Poco10ScopedLockINS_9FastMutexEEC2ERS1_
FNDA:0,_ZN4Poco10ScopedLockINS_9FastMutexEED2Ev
FNF:2
FNH:0
DA:36,0
DA:38,0
DA:39,0
DA:46,0
DA:50,0
DA:52,0
DA:54,0
DA:56,0
LF:8
LH:0
end_of_record
SF:/home/vera/poco/Foundation/include/Poco/SingletonHolder.h
FN:37,_ZN4Poco15SingletonHolderINS_14LoggingFactoryEEC2Ev
FN:43,_ZN4Poco15SingletonHolderINS_14LoggingFactoryEED2Ev
FN:50,_ZN4Poco15SingletonHolderINS_14LoggingFactoryEE3getEv
FNDA:1,_ZN4Poco15SingletonHolderINS_14LoggingFactoryEEC2Ev
FNDA:1,_ZN4Poco15SingletonHolderINS_14LoggingFactoryEED2Ev
FNDA:0,_ZN4Poco15SingletonHolderINS_14LoggingFactoryEE3getEv
FNF:3
FNH:2
DA:37,1
DA:38,1
DA:41,1
DA:43,1
DA:47,1
DA:48,1
DA:50,0
DA:55,0
DA:56,0
DA:57,0
LF:10
LH:6
end_of_record
SF:/home/vera/poco/Foundation/src/LoggingFactory.cpp
FN:38,_ZN4Poco14LoggingFactoryC2Ev
FN:44,_ZN4Poco14LoggingFactoryD2Ev
FN:49,_ZN4Poco14LoggingFactory20registerChannelClassERKNSt7__cxx1112basic_stringIcSt11char_traitsIcESaIcEEEPNS_20AbstractInstantiatorINS_7ChannelEEE
FN:55,_ZN4Poco14LoggingFactory22registerFormatterClassERKNSt7__cxx1112basic_stringIcSt11char_traitsIcESaIcEEEPNS_20AbstractInstantiatorINS_9FormatterEEE
FN:61,_ZNK4Poco14LoggingFactory13createChannelERKNSt7__cxx1112basic_stringIcSt11char_traitsIcESaIcEEE
FN:67,_ZNK4Poco14LoggingFactory15createFormatterERKNSt7__cxx1112basic_stringIcSt11char_traitsIcESaIcEEE
FN:79,_ZN4Poco14LoggingFactory14defaultFactoryEv
FN:85,_ZN4Poco14LoggingFactory16registerBuiltinsEv
FN:121,_Z41__static_initialization_and_destruction_0ii
FN:121,_GLOBAL__sub_I_LoggingFactory.cpp
FNDA:0,_ZN4Poco14LoggingFactoryC2Ev
FNDA:0,_ZN4Poco14LoggingFactoryD2Ev
FNDA:0,_ZN4Poco14LoggingFactory20registerChannelClassERKNSt7__cxx1112basic_stringIcSt11char_traitsIcESaIcEEEPNS_20AbstractInstantiatorINS_7ChannelEEE
FNDA:0,_ZN4Poco14LoggingFactory22registerFormatterClassERKNSt7__cxx1112basic_stringIcSt11char_traitsIcESaIcEEEPNS_20AbstractInstantiatorINS_9FormatterEEE
FNDA:0,_ZNK4Poco14LoggingFactory13createChannelERKNSt7__cxx1112basic_stringIcSt11char_traitsIcESaIcEEE
FNDA:0,_ZNK4Poco14LoggingFactory15createFormatterERKNSt7__cxx1112basic_stringIcSt11char_traitsIcESaIcEEE
FNDA:0,_ZN4Poco14LoggingFactory14defaultFactoryEv
FNDA:0,_ZN4Poco14LoggingFactory16registerBuiltinsEv
FNDA:1,_GLOBAL__sub_I_LoggingFactory.cpp
FNDA:1,_Z41__static_initialization_and_destruction_0ii
FNF:10
FNH:2
DA:38,0
DA:40,0
DA:41,0
DA:44,0
DA:46,0
DA:49,0
DA:51,0
DA:52,0
DA:55,0
DA:57,0
DA:58,0
DA:61,0
DA:63,0
DA:67,0
DA:69,0
DA:75,1
DA:79,0
DA:81,0
DA:85,0
DA:87,0
DA:92,0
DA:93,0
DA:97,0
DA:98,0
DA:100,0
DA:102,0
DA:104,0
DA:105,0
DA:109,0
DA:117,0
DA:118,0
DA:121,3
LF:32
LH:2
end_of_record
SF:/usr/include/c++/7/bits/alloc_traits.h
FN:435,_ZNSt16allocator_traitsISaISt13_Rb_tree_nodeISt4pairIKNSt7__cxx1112basic_stringIcSt11char_traitsIcESaIcEEEPN4Poco20AbstractInstantiatorINS9_9FormatterEEEEEEE8allocateERSG_m
FN:435,_ZNSt16allocator_traitsISaISt13_Rb_tree_nodeISt4pairIKNSt7__cxx1112basic_stringIcSt11char_traitsIcESaIcEEEPN4Poco20AbstractInstantiatorINS9_7ChannelEEEEEEE8allocateERSG_m
FN:461,_ZNSt16allocator_traitsISaISt13_Rb_tree_nodeISt4pairIKNSt7__cxx1112basic_stringIcSt11char_traitsIcESaIcEEEPN4Poco20AbstractInstantiatorINS9_7ChannelEEEEEEE10deallocateERSG_PSF_m
FN:461,_ZNSt16allocator_traitsISaISt13_Rb_tree_nodeISt4pairIKNSt7__cxx1112basic_stringIcSt11char_traitsIcESaIcEEEPN4Poco20AbstractInstantiatorINS9_9FormatterEEEEEEE10deallocateERSG_PSF_m
FN:474,_ZNSt16allocator_traitsISaISt13_Rb_tree_nodeISt4pairIKNSt7__cxx1112basic_stringIcSt11char_traitsIcESaIcEEEPN4Poco20AbstractInstantiatorINS9_9FormatterEEEEEEE9constructISE_JRKSt21piecewise_construct_tSt5tupleIJRS8_EESM_IJEEEEEvRSG_PT_DpOT0_
FN:474,_ZNSt16allocator_traitsISaISt13_Rb_tree_nodeISt4pairIKNSt7__cxx1112basic_stringIcSt11char_traitsIcESaIcEEEPN4Poco20AbstractInstantiatorINS9_7ChannelEEEEEEE9constructISE_JRKSt21piecewise_construct_tSt5tupleIJRS8_EESM_IJEEEEEvRSG_PT_DpOT0_
FN:486,_ZNSt16allocator_traitsISaISt13_Rb_tree_nodeISt4pairIKNSt7__cxx1112basic_stringIcSt11char_traitsIcESaIcEEEPN4Poco20AbstractInstantiatorINS9_7ChannelEEEEEEE7destroyISE_EEvRSG_PT_
FN:486,_ZNSt16allocator_traitsISaISt13_Rb_tree_nodeISt4pairIKNSt7__cxx1112basic_stringIcSt11char_traitsIcESaIcEEEPN4Poco20AbstractInstantiatorINS9_9FormatterEEEEEEE7destroyISE_EEvRSG_PT_
FNDA:0,_ZNSt16allocator_traitsISaISt13_Rb_tree_nodeISt4pairIKNSt7__cxx1112basic_stringIcSt11char_traitsIcESaIcEEEPN4Poco20AbstractInstantiatorINS9_9FormatterEEEEEEE8allocateERSG_m
FNDA:0,_ZNSt16allocator_traitsISaISt13_Rb_tree_nodeISt4pairIKNSt7__cxx1112basic_stringIcSt11char_traitsIcESaIcEEEPN4Poco20AbstractInstantiatorINS9_7ChannelEEEEEEE8allocateERSG_m
FNDA:0,_ZNSt16allocator_traitsISaISt13_Rb_tree_nodeISt4pairIKNSt7__cxx1112basic_stringIcSt11char_traitsIcESaIcEEEPN4Poco20AbstractInstantiatorINS9_9FormatterEEEEEEE10deallocateERSG_PSF_m
FNDA:0,_ZNSt16allocator_traitsISaISt13_Rb_tree_nodeISt4pairIKNSt7__cxx1112basic_stringIcSt11char_traitsIcESaIcEEEPN4Poco20AbstractInstantiatorINS9_7ChannelEEEEEEE10deallocateERSG_PSF_m
FNDA:0,_ZNSt16allocator_traitsISaISt13_Rb_tree_nodeISt4pairIKNSt7__cxx1112basic_stringIcSt11char_traitsIcESaIcEEEPN4Poco20AbstractInstantiatorINS9_9FormatterEEEEEEE9constructISE_JRKSt21piecewise_construct_tSt5tupleIJRS8_EESM_IJEEEEEvRSG_PT_DpOT0_
FNDA:0,_ZNSt16allocator_traitsISaISt13_Rb_tree_nodeISt4pairIKNSt7__cxx1112basic_stringIcSt11char_traitsIcESaIcEEEPN4Poco20AbstractInstantiatorINS9_7ChannelEEEEEEE9constructISE_JRKSt21piecewise_construct_tSt5tupleIJRS8_EESM_IJEEEEEvRSG_PT_DpOT0_
FNDA:0,_ZNSt16allocator_traitsISaISt13_Rb_tree_nodeISt4pairIKNSt7__cxx1112basic_stringIcSt11char_traitsIcESaIcEEEPN4Poco20AbstractInstantiatorINS9_9FormatterEEEEEEE7destroyISE_EEvRSG_PT_
FNDA:0,_ZNSt16allocator_traitsISaISt13_Rb_tree_nodeISt4pairIKNSt7__cxx1112basic_stringIcSt11char_traitsIcESaIcEEEPN4Poco20AbstractInstantiatorINS9_7ChannelEEEEEEE7destroyISE_EEvRSG_PT_
FNF:8
FNH:0
DA:435,0
DA:436,0
DA:461,0
DA:462,0
DA:474,0
DA:475,0
DA:486,0
DA:487,0
LF:8
LH:0
end_of_record
SF:/usr/include/c++/7/bits/allocator.h
FN:131,_ZNSaISt13_Rb_tree_nodeISt4pairIKNSt7__cxx1112basic_stringIcSt11char_traitsIcESaIcEEEPN4Poco20AbstractInstantiatorINS8_9FormatterEEEEEEC2Ev
FN:131,_ZNSaISt13_Rb_tree_nodeISt4pairIKNSt7__cxx1112basic_stringIcSt11char_traitsIcESaIcEEEPN4Poco20AbstractInstantiatorINS8_7ChannelEEEEEEC2Ev
FN:139,_ZNSaISt13_Rb_tree_nodeISt4pairIKNSt7__cxx1112basic_stringIcSt11char_traitsIcESaIcEEEPN4Poco20AbstractInstantiatorINS8_7ChannelEEEEEED2Ev
FN:139,_ZNSaISt13_Rb_tree_nodeISt4pairIKNSt7__cxx1112basic_stringIcSt11char_traitsIcESaIcEEEPN4Poco20AbstractInstantiatorINS8_9FormatterEEEEEED2Ev
FNDA:0,_ZNSaISt13_Rb_tree_nodeISt4pairIKNSt7__cxx1112basic_stringIcSt11char_traitsIcESaIcEEEPN4Poco20AbstractInstantiatorINS8_9FormatterEEEEEEC2Ev
FNDA:0,_ZNSaISt13_Rb_tree_nodeISt4pairIKNSt7__cxx1112basic_stringIcSt11char_traitsIcESaIcEEEPN4Poco20AbstractInstantiatorINS8_7ChannelEEEEEEC2Ev
FNDA:0,_ZNSaISt13_Rb_tree_nodeISt4pairIKNSt7__cxx1112basic_stringIcSt11char_traitsIcESaIcEEEPN4Poco20AbstractInstantiatorINS8_9FormatterEEEEEED2Ev
FNDA:0,_ZNSaISt13_Rb_tree_nodeISt4pairIKNSt7__cxx1112basic_stringIcSt11char_traitsIcESaIcEEEPN4Poco20AbstractInstantiatorINS8_7ChannelEEEEEED2Ev
FNF:4
FNH:0
DA:131,0
DA:139,0
LF:2
LH:0
end_of_record
SF:/usr/include/c++/7/bits/atomic_base.h
FN:303,_ZNSt13__atomic_baseIiEmmEv
FNDA:0,_ZNSt13__atomic_baseIiEmmEv
FNF:1
FNH:0
DA:303,0
DA:304,0
LF:2
LH:0
end_of_record
SF:/usr/include/c++/7/bits/basic_string.h
FN:6094,_ZStltIcSt11char_traitsIcESaIcEEbRKNSt7__cxx1112basic_stringIT_T0_T1_EESA_
FNDA:0,_ZStltIcSt11char_traitsIcESaIcEEbRKNSt7__cxx1112basic_stringIT_T0_T1_EESA_
FNF:1
FNH:0
DA:6094,0
DA:6097,0
LF:2
LH:0
end_of_record
SF:/usr/include/c++/7/bits/move.h
FN:73,_ZSt7forwardIRKNSt7__cxx1112basic_stringIcSt11char_traitsIcESaIcEEEEOT_RNSt16remove_referenceIS8_E4typeE
FN:73,_ZSt7forwardISt5tupleIJEEEOT_RNSt16remove_referenceIS2_E4typeE
FN:73,_ZSt7forwardIRPSt13_Rb_tree_nodeISt4pairIKNSt7__cxx1112basic_stringIcSt11char_traitsIcESaIcEEEPN4Poco20AbstractInstantiatorINS9_7ChannelEEEEEEOT_RNSt16remove_referenceISI_E4typeE
FN:73,_ZSt7forwardIRPSt18_Rb_tree_node_baseEOT_RNSt16remove_referenceIS3_E4typeE
FN:73,_ZSt7forwardISt5tupleIJRKNSt7__cxx1112basic_stringIcSt11char_traitsIcESaIcEEEEEEOT_RNSt16remove_referenceISA_E4typeE
FN:73,_ZSt7forwardIRKSt21piecewise_construct_tEOT_RNSt16remove_referenceIS3_E4typeE
FN:73,_ZSt7forwardIRPSt13_Rb_tree_nodeISt4pairIKNSt7__cxx1112basic_stringIcSt11char_traitsIcESaIcEEEPN4Poco20AbstractInstantiatorINS9_9FormatterEEEEEEOT_RNSt16remove_referenceISI_E4typeE
FNDA:0,_ZSt7forwardIRKNSt7__cxx1112basic_stringIcSt11char_traitsIcESaIcEEEEOT_RNSt16remove_referenceIS8_E4typeE
FNDA:0,_ZSt7forwardIRPSt13_Rb_tree_nodeISt4pairIKNSt7__cxx1112basic_stringIcSt11char_traitsIcESaIcEEEPN4Poco20AbstractInstantiatorINS9_9FormatterEEEEEEOT_RNSt16remove_referenceISI_E4typeE
FNDA:0,_ZSt7forwardIRPSt13_Rb_tree_nodeISt4pairIKNSt7__cxx1112basic_stringIcSt11char_traitsIcESaIcEEEPN4Poco20AbstractInstantiatorINS9_7ChannelEEEEEEOT_RNSt16remove_referenceISI_E4typeE
FNDA:0,_ZSt7forwardIRPSt18_Rb_tree_node_baseEOT_RNSt16remove_referenceIS3_E4typeE
FNDA:0,_ZSt7forwardISt5tupleIJEEEOT_RNSt16remove_referenceIS2_E4typeE
FNDA:0,_ZSt7forwardISt5tupleIJRKNSt7__cxx1112basic_stringIcSt11char_traitsIcESaIcEEEEEEOT_RNSt16remove_referenceISA_E4typeE
FNDA:0,_ZSt7forwardIRKSt21piecewise_construct_tEOT_RNSt16remove_referenceIS3_E4typeE
FNF:7
FNH:0
DA:73,0
DA:74,0
LF:2
LH:0
end_of_record
SF:/usr/include/c++/7/bits/stl_function.h
FN:385,_ZNKSt4lessINSt7__cxx1112basic_stringIcSt11char_traitsIcESaIcEEEEclERKS5_S8_
FN:890,_ZNKSt10_Select1stISt4pairIKNSt7__cxx1112basic_stringIcSt11char_traitsIcESaIcEEEPN4Poco20AbstractInstantiatorINS8_9FormatterEEEEEclERKSD_
FN:890,_ZNKSt10_Select1stISt4pairIKNSt7__cxx1112basic_stringIcSt11char_traitsIcESaIcEEEPN4Poco20AbstractInstantiatorINS8_7ChannelEEEEEclERKSD_
FNDA:0,_ZNKSt4lessINSt7__cxx1112basic_stringIcSt11char_traitsIcESaIcEEEEclERKS5_S8_
FNDA:0,_ZNKSt10_Select1stISt4pairIKNSt7__cxx1112basic_stringIcSt11char_traitsIcESaIcEEEPN4Poco20AbstractInstantiatorINS8_9FormatterEEEEEclERKSD_
FNDA:0,_ZNKSt10_Select1stISt4pairIKNSt7__cxx1112basic_stringIcSt11char_traitsIcESaIcEEEPN4Poco20AbstractInstantiatorINS8_7ChannelEEEEEclERKSD_
FNF:3
FNH:0
DA:385,0
DA:386,0
DA:890,0
DA:891,0
LF:4
LH:0
end_of_record
SF:/usr/include/c++/7/bits/stl_map.h
FN:177,_ZNSt3mapINSt7__cxx1112basic_stringIcSt11char_traitsIcESaIcEEEPN4Poco20AbstractInstantiatorINS6_7ChannelEEESt4lessIS5_ESaISt4pairIKS5_SA_EEEC2Ev
FN:177,_ZNSt3mapINSt7__cxx1112basic_stringIcSt11char_traitsIcESaIcEEEPN4Poco20AbstractInstantiatorINS6_9FormatterEEESt4lessIS5_ESaISt4pairIKS5_SA_EEEC2Ev
FN:294,_ZNSt3mapINSt7__cxx1112basic_stringIcSt11char_traitsIcESaIcEEEPN4Poco20AbstractInstantiatorINS6_7ChannelEEESt4lessIS5_ESaISt4pairIKS5_SA_EEED2Ev
FN:294,_ZNSt3mapINSt7__cxx1112basic_stringIcSt11char_traitsIcESaIcEEEPN4Poco20AbstractInstantiatorINS6_9FormatterEEESt4lessIS5_ESaISt4pairIKS5_SA_EEED2Ev
FN:348,_ZNSt3mapINSt7__cxx1112basic_stringIcSt11char_traitsIcESaIcEEEPN4Poco20AbstractInstantiatorINS6_9FormatterEEESt4lessIS5_ESaISt4pairIKS5_SA_EEE5beginEv
FN:348,_ZNSt3mapINSt7__cxx1112basic_stringIcSt11char_traitsIcESaIcEEEPN4Poco20AbstractInstantiatorINS6_7ChannelEEESt4lessIS5_ESaISt4pairIKS5_SA_EEE5beginEv
FN:366,_ZNSt3mapINSt7__cxx1112basic_stringIcSt11char_traitsIcESaIcEEEPN4Poco20AbstractInstantiatorINS6_9FormatterEEESt4lessIS5_ESaISt4pairIKS5_SA_EEE3endEv
FN:366,_ZNSt3mapINSt7__cxx1112basic_stringIcSt11char_traitsIcESaIcEEEPN4Poco20AbstractInstantiatorINS6_7ChannelEEESt4lessIS5_ESaISt4pairIKS5_SA_EEE3endEv
FN:375,_ZNKSt3mapINSt7__cxx1112basic_stringIcSt11char_traitsIcESaIcEEEPN4Poco20AbstractInstantiatorINS6_7ChannelEEESt4lessIS5_ESaISt4pairIKS5_SA_EEE3endEv
FN:375,_ZNKSt3mapINSt7__cxx1112basic_stringIcSt11char_traitsIcESaIcEEEPN4Poco20AbstractInstantiatorINS6_9FormatterEEESt4lessIS5_ESaISt4pairIKS5_SA_EEE3endEv
FN:484,_ZNSt3mapINSt7__cxx1112basic_stringIcSt11char_traitsIcESaIcEEEPN4Poco20AbstractInstantiatorINS6_7ChannelEEESt4lessIS5_ESaISt4pairIKS5_SA_EEEixERSE_
FN:484,_ZNSt3mapINSt7__cxx1112basic_stringIcSt11char_traitsIcESaIcEEEPN4Poco20AbstractInstantiatorINS6_9FormatterEEESt4lessIS5_ESaISt4pairIKS5_SA_EEEixERSE_
FN:1135,_ZNKSt3mapINSt7__cxx1112basic_stringIcSt11char_traitsIcESaIcEEEPN4Poco20AbstractInstantiatorINS6_9FormatterEEESt4lessIS5_ESaISt4pairIKS5_SA_EEE8key_compEv
FN:1135,_ZNKSt3mapINSt7__cxx1112basic_stringIcSt11char_traitsIcESaIcEEEPN4Poco20AbstractInstantiatorINS6_7ChannelEEESt4lessIS5_ESaISt4pairIKS5_SA_EEE8key_compEv
FN:1162,_ZNSt3mapINSt7__cxx1112basic_stringIcSt11char_traitsIcESaIcEEEPN4Poco20AbstractInstantiatorINS6_7ChannelEEESt4lessIS5_ESaISt4pairIKS5_SA_EEE4findERSE_
FN:1162,_ZNSt3mapINSt7__cxx1112basic_stringIcSt11char_traitsIcESaIcEEEPN4Poco20AbstractInstantiatorINS6_9FormatterEEESt4lessIS5_ESaISt4pairIKS5_SA_EEE4findERSE_
FN:1187,_ZNKSt3mapINSt7__cxx1112basic_stringIcSt11char_traitsIcESaIcEEEPN4Poco20AbstractInstantiatorINS6_7ChannelEEESt4lessIS5_ESaISt4pairIKS5_SA_EEE4findERSE_
FN:1187,_ZNKSt3mapINSt7__cxx1112basic_stringIcSt11char_traitsIcESaIcEEEPN4Poco20AbstractInstantiatorINS6_9FormatterEEESt4lessIS5_ESaISt4pairIKS5_SA_EEE4findERSE_
FN:1232,_ZNSt3mapINSt7__cxx1112basic_stringIcSt11char_traitsIcESaIcEEEPN4Poco20AbstractInstantiatorINS6_7ChannelEEESt4lessIS5_ESaISt4pairIKS5_SA_EEE11lower_boundERSE_
FN:1232,_ZNSt3mapINSt7__cxx1112basic_stringIcSt11char_traitsIcESaIcEEEPN4Poco20AbstractInstantiatorINS6_9FormatterEEESt4lessIS5_ESaISt4pairIKS5_SA_EEE11lower_boundERSE_
FNDA:0,_ZNSt3mapINSt7__cxx1112basic_stringIcSt11char_traitsIcESaIcEEEPN4Poco20AbstractInstantiatorINS6_9FormatterEEESt4lessIS5_ESaISt4pairIKS5_SA_EEEC2Ev
FNDA:0,_ZNSt3mapINSt7__cxx1112basic_stringIcSt11char_traitsIcESaIcEEEPN4Poco20AbstractInstantiatorINS6_7ChannelEEESt4lessIS5_ESaISt4pairIKS5_SA_EEEC2Ev
FNDA:0,_ZNSt3mapINSt7__cxx1112basic_stringIcSt11char_traitsIcESaIcEEEPN4Poco20AbstractInstantiatorINS6_9FormatterEEESt4lessIS5_ESaISt4pairIKS5_SA_EEED2Ev
FNDA:0,_ZNSt3mapINSt7__cxx1112basic_stringIcSt11char_traitsIcESaIcEEEPN4Poco20AbstractInstantiatorINS6_7ChannelEEESt4lessIS5_ESaISt4pairIKS5_SA_EEED2Ev
FNDA:0,_ZNSt3mapINSt7__cxx1112basic_stringIcSt11char_traitsIcESaIcEEEPN4Poco20AbstractInstantiatorINS6_9FormatterEEESt4lessIS5_ESaISt4pairIKS5_SA_EEE5beginEv
FNDA:0,_ZNSt3mapINSt7__cxx1112basic_stringIcSt11char_traitsIcESaIcEEEPN4Poco20AbstractInstantiatorINS6_7ChannelEEESt4lessIS5_ESaISt4pairIKS5_SA_EEE5beginEv
FNDA:0,_ZNSt3mapINSt7__cxx1112basic_stringIcSt11char_traitsIcESaIcEEEPN4Poco20AbstractInstantiatorINS6_9FormatterEEESt4lessIS5_ESaISt4pairIKS5_SA_EEE3endEv
FNDA:0,_ZNSt3mapINSt7__cxx1112basic_stringIcSt11char_traitsIcESaIcEEEPN4Poco20AbstractInstantiatorINS6_7ChannelEEESt4lessIS5_ESaISt4pairIKS5_SA_EEE3endEv
FNDA:0,_ZNKSt3mapINSt7__cxx1112basic_stringIcSt11char_traitsIcESaIcEEEPN4Poco20AbstractInstantiatorINS6_9FormatterEEESt4lessIS5_ESaISt4pairIKS5_SA_EEE3endEv
FNDA:0,_ZNKSt3mapINSt7__cxx1112basic_stringIcSt11char_traitsIcESaIcEEEPN4Poco20AbstractInstantiatorINS6_7ChannelEEESt4lessIS5_ESaISt4pairIKS5_SA_EEE3endEv
FNDA:0,_ZNSt3mapINSt7__cxx1112basic_stringIcSt11char_traitsIcESaIcEEEPN4Poco20AbstractInstantiatorINS6_9FormatterEEESt4lessIS5_ESaISt4pairIKS5_SA_EEEixERSE_
FNDA:0,_ZNSt3mapINSt7__cxx1112basic_stringIcSt11char_traitsIcESaIcEEEPN4Poco20AbstractInstantiatorINS6_7ChannelEEESt4lessIS5_ESaISt4pairIKS5_SA_EEEixERSE_
FNDA:0,_ZNKSt3mapINSt7__cxx1112basic_stringIcSt11char_traitsIcESaIcEEEPN4Poco20AbstractInstantiatorINS6_9FormatterEEESt4lessIS5_ESaISt4pairIKS5_SA_EEE8key_compEv
FNDA:0,_ZNKSt3mapINSt7__cxx1112basic_stringIcSt11char_traitsIcESaIcEEEPN4Poco20AbstractInstantiatorINS6_7ChannelEEESt4lessIS5_ESaISt4pairIKS5_SA_EEE8key_compEv
FNDA:0,_ZNSt3mapINSt7__cxx1112basic_stringIcSt11char_traitsIcESaIcEEEPN4Poco20AbstractInstantiatorINS6_9FormatterEEESt4lessIS5_ESaISt4pairIKS5_SA_EEE4findERSE_
FNDA:0,_ZNSt3mapINSt7__cxx1112basic_stringIcSt11char_traitsIcESaIcEEEPN4Poco20AbstractInstantiatorINS6_7ChannelEEESt4lessIS5_ESaISt4pairIKS5_SA_EEE4findERSE_
FNDA:0,_ZNKSt3mapINSt7__cxx1112basic_stringIcSt11char_traitsIcESaIcEEEPN4Poco20AbstractInstantiatorINS6_9FormatterEEESt4lessIS5_ESaISt4pairIKS5_SA_EEE4findERSE_
FNDA:0,_ZNKSt3mapINSt7__cxx1112basic_stringIcSt11char_traitsIcESaIcEEEPN4Poco20AbstractInstantiatorINS6_7ChannelEEESt4lessIS5_ESaISt4pairIKS5_SA_EEE4findERSE_
FNDA:0,_ZNSt3mapINSt7__cxx1112basic_stringIcSt11char_traitsIcESaIcEEEPN4Poco20AbstractInstantiatorINS6_9FormatterEEESt4lessIS5_ESaISt4pairIKS5_SA_EEE11lower_boundERSE_
FNDA:0,_ZNSt3mapINSt7__cxx1112basic_stringIcSt11char_traitsIcESaIcEEEPN4Poco20AbstractInstantiatorINS6_7ChannelEEESt4lessIS5_ESaISt4pairIKS5_SA_EEE11lower_boundERSE_
FNF:20
FNH:0
DA:177,0
DA:294,0
DA:348,0
DA:349,0
DA:366,0
DA:367,0
DA:375,0
DA:376,0
DA:484,0
DA:489,0
DA:491,0
DA:493,0
DA:499,0
DA:1135,0
DA:1136,0
DA:1162,0
DA:1163,0
DA:1187,0
DA:1188,0
DA:1232,0
DA:1233,0
LF:21
LH:0
end_of_record
SF:/usr/include/c++/7/bits/stl_pair.h
FN:208,_ZNSt4pairIKNSt7__cxx1112basic_stringIcSt11char_traitsIcESaIcEEEPN4Poco20AbstractInstantiatorINS7_9FormatterEEEED2Ev
FN:208,_ZNSt4pairIKNSt7__cxx1112basic_stringIcSt11char_traitsIcESaIcEEEPN4Poco20AbstractInstantiatorINS7_7ChannelEEEED2Ev
FN:311,_ZNSt4pairIPSt18_Rb_tree_node_baseS1_EC2IRS1_Lb1EEEOT_RKS1_
FN:325,_ZNSt4pairIPSt18_Rb_tree_node_baseS1_EC2IRS1_Lb1EEERKS1_OT_
FN:341,_ZNSt4pairIPSt18_Rb_tree_node_baseS1_EC2IRPSt13_Rb_tree_nodeIS_IKNSt7__cxx1112basic_stringIcSt11char_traitsIcESaIcEEEPN4Poco20AbstractInstantiatorINSC_7ChannelEEEEERS1_Lb1EEEOT_OT0_
FN:341,_ZNSt4pairIPSt18_Rb_tree_node_baseS1_EC2IRS1_S4_Lb1EEEOT_OT0_
FN:341,_ZNSt4pairIPSt18_Rb_tree_node_baseS1_EC2IRPSt13_Rb_tree_nodeIS_IKNSt7__cxx1112basic_stringIcSt11char_traitsIcESaIcEEEPN4Poco20AbstractInstantiatorINSC_9FormatterEEEEERS1_Lb1EEEOT_OT0_
FNDA:0,_ZNSt4pairIKNSt7__cxx1112basic_stringIcSt11char_traitsIcESaIcEEEPN4Poco20AbstractInstantiatorINS7_9FormatterEEEED2Ev
FNDA:0,_ZNSt4pairIKNSt7__cxx1112basic_stringIcSt11char_traitsIcESaIcEEEPN4Poco20AbstractInstantiatorINS7_7ChannelEEEED2Ev
FNDA:0,_ZNSt4pairIPSt18_Rb_tree_node_baseS1_EC2IRS1_Lb1EEEOT_RKS1_
FNDA:0,_ZNSt4pairIPSt18_Rb_tree_node_baseS1_EC2IRS1_Lb1EEERKS1_OT_
FNDA:0,_ZNSt4pairIPSt18_Rb_tree_node_baseS1_EC2IRPSt13_Rb_tree_nodeIS_IKNSt7__cxx1112basic_stringIcSt11char_traitsIcESaIcEEEPN4Poco20AbstractInstantiatorINSC_9FormatterEEEEERS1_Lb1EEEOT_OT0_
FNDA:0,_ZNSt4pairIPSt18_Rb_tree_node_baseS1_EC2IRPSt13_Rb_tree_nodeIS_IKNSt7__cxx1112basic_stringIcSt11char_traitsIcESaIcEEEPN4Poco20AbstractInstantiatorINSC_7ChannelEEEEERS1_Lb1EEEOT_OT0_
FNDA:0,_ZNSt4pairIPSt18_Rb_tree_node_baseS1_EC2IRS1_S4_Lb1EEEOT_OT0_
FNF:7
FNH:0
DA:208,0
DA:311,0
DA:312,0
DA:325,0
DA:326,0
DA:341,0
DA:342,0
LF:7
LH:0
end_of_record
SF:/usr/include/c++/7/bits/stl_tree.h
FN:146,_ZNSt20_Rb_tree_key_compareISt4lessINSt7__cxx1112basic_stringIcSt11char_traitsIcESaIcEEEEEC2Ev
FN:173,_ZNSt15_Rb_tree_headerC2Ev
FN:206,_ZNSt15_Rb_tree_header8_M_resetEv
FN:234,_ZNSt13_Rb_tree_nodeISt4pairIKNSt7__cxx1112basic_stringIcSt11char_traitsIcESaIcEEEPN4Poco20AbstractInstantiatorINS8_7ChannelEEEEE9_M_valptrEv
FN:234,_ZNSt13_Rb_tree_nodeISt4pairIKNSt7__cxx1112basic_stringIcSt11char_traitsIcESaIcEEEPN4Poco20AbstractInstantiatorINS8_9FormatterEEEEE9_M_valptrEv
FN:238,_ZNKSt13_Rb_tree_nodeISt4pairIKNSt7__cxx1112basic_stringIcSt11char_traitsIcESaIcEEEPN4Poco20AbstractInstantiatorINS8_9FormatterEEEEE9_M_valptrEv
FN:238,_ZNKSt13_Rb_tree_nodeISt4pairIKNSt7__cxx1112basic_stringIcSt11char_traitsIcESaIcEEEPN4Poco20AbstractInstantiatorINS8_7ChannelEEEEE9_M_valptrEv
FN:273,_ZNSt17_Rb_tree_iteratorISt4pairIKNSt7__cxx1112basic_stringIcSt11char_traitsIcESaIcEEEPN4Poco20AbstractInstantiatorINS8_7ChannelEEEEEC2EPSt18_Rb_tree_node_base
FN:273,_ZNSt17_Rb_tree_iteratorISt4pairIKNSt7__cxx1112basic_stringIcSt11char_traitsIcESaIcEEEPN4Poco20AbstractInstantiatorINS8_9FormatterEEEEEC2EPSt18_Rb_tree_node_base
FN:277,_ZNKSt17_Rb_tree_iteratorISt4pairIKNSt7__cxx1112basic_stringIcSt11char_traitsIcESaIcEEEPN4Poco20AbstractInstantiatorINS8_9FormatterEEEEEdeEv
FN:277,_ZNKSt17_Rb_tree_iteratorISt4pairIKNSt7__cxx1112basic_stringIcSt11char_traitsIcESaIcEEEPN4Poco20AbstractInstantiatorINS8_7ChannelEEEEEdeEv
FN:285,_ZNSt17_Rb_tree_iteratorISt4pairIKNSt7__cxx1112basic_stringIcSt11char_traitsIcESaIcEEEPN4Poco20AbstractInstantiatorINS8_7ChannelEEEEEppEv
FN:285,_ZNSt17_Rb_tree_iteratorISt4pairIKNSt7__cxx1112basic_stringIcSt11char_traitsIcESaIcEEEPN4Poco20AbstractInstantiatorINS8_9FormatterEEEEEppEv
FN:300,_ZNSt17_Rb_tree_iteratorISt4pairIKNSt7__cxx1112basic_stringIcSt11char_traitsIcESaIcEEEPN4Poco20AbstractInstantiatorINS8_7ChannelEEEEEmmEv
FN:300,_ZNSt17_Rb_tree_iteratorISt4pairIKNSt7__cxx1112basic_stringIcSt11char_traitsIcESaIcEEEPN4Poco20AbstractInstantiatorINS8_9FormatterEEEEEmmEv
FN:315,_ZNKSt17_Rb_tree_iteratorISt4pairIKNSt7__cxx1112basic_stringIcSt11char_traitsIcESaIcEEEPN4Poco20AbstractInstantiatorINS8_7ChannelEEEEEeqERKSE_
FN:315,_ZNKSt17_Rb_tree_iteratorISt4pairIKNSt7__cxx1112basic_stringIcSt11char_traitsIcESaIcEEEPN4Poco20AbstractInstantiatorINS8_9FormatterEEEEEeqERKSE_
FN:319,_ZNKSt17_Rb_tree_iteratorISt4pairIKNSt7__cxx1112basic_stringIcSt11char_traitsIcESaIcEEEPN4Poco20AbstractInstantiatorINS8_9FormatterEEEEEneERKSE_
FN:319,_ZNKSt17_Rb_tree_iteratorISt4pairIKNSt7__cxx1112basic_stringIcSt11char_traitsIcESaIcEEEPN4Poco20AbstractInstantiatorINS8_7ChannelEEEEEneERKSE_
FN:345,_ZNSt23_Rb_tree_const_iteratorISt4pairIKNSt7__cxx1112basic_stringIcSt11char_traitsIcESaIcEEEPN4Poco20AbstractInstantiatorINS8_9FormatterEEEEEC2EPKSt18_Rb_tree_node_base
FN:345,_ZNSt23_Rb_tree_const_iteratorISt4pairIKNSt7__cxx1112basic_stringIcSt11char_traitsIcESaIcEEEPN4Poco20AbstractInstantiatorINS8_7ChannelEEEEEC2EPKSt18_Rb_tree_node_base
FN:348,_ZNSt23_Rb_tree_const_iteratorISt4pairIKNSt7__cxx1112basic_stringIcSt11char_traitsIcESaIcEEEPN4Poco20AbstractInstantiatorINS8_7ChannelEEEEEC2ERKSt17_Rb_tree_iteratorISD_E
FN:348,_ZNSt23_Rb_tree_const_iteratorISt4pairIKNSt7__cxx1112basic_stringIcSt11char_traitsIcESaIcEEEPN4Poco20AbstractInstantiatorINS8_9FormatterEEEEEC2ERKSt17_Rb_tree_iteratorISD_E
FN:352,_ZNKSt23_Rb_tree_const_iteratorISt4pairIKNSt7__cxx1112basic_stringIcSt11char_traitsIcESaIcEEEPN4Poco20AbstractInstantiatorINS8_7ChannelEEEEE13_M_const_castEv
FN:352,_ZNKSt23_Rb_tree_const_iteratorISt4pairIKNSt7__cxx1112basic_stringIcSt11char_traitsIcESaIcEEEPN4Poco20AbstractInstantiatorINS8_9FormatterEEEEE13_M_const_castEv
FN:360,_ZNKSt23_Rb_tree_const_iteratorISt4pairIKNSt7__cxx1112basic_stringIcSt11char_traitsIcESaIcEEEPN4Poco20AbstractInstantiatorINS8_9FormatterEEEEEptEv
FN:360,_ZNKSt23_Rb_tree_const_iteratorISt4pairIKNSt7__cxx1112basic_stringIcSt11char_traitsIcESaIcEEEPN4Poco20AbstractInstantiatorINS8_7ChannelEEEEEptEv
FN:394,_ZNKSt23_Rb_tree_const_iteratorISt4pairIKNSt7__cxx1112basic_stringIcSt11char_traitsIcESaIcEEEPN4Poco20AbstractInstantiatorINS8_9FormatterEEEEEeqERKSE_
FN:394,_ZNKSt23_Rb_tree_const_iteratorISt4pairIKNSt7__cxx1112basic_stringIcSt11char_traitsIcESaIcEEEPN4Poco20AbstractInstantiatorINS8_7ChannelEEEEEeqERKSE_
FN:398,_ZNKSt23_Rb_tree_const_iteratorISt4pairIKNSt7__cxx1112basic_stringIcSt11char_traitsIcESaIcEEEPN4Poco20AbstractInstantiatorINS8_7ChannelEEEEEneERKSE_
FN:398,_ZNKSt23_Rb_tree_const_iteratorISt4pairIKNSt7__cxx1112basic_stringIcSt11char_traitsIcESaIcEEEPN4Poco20AbstractInstantiatorINS8_9FormatterEEEEEneERKSE_
FN:574,_ZNSt8_Rb_treeINSt7__cxx1112basic_stringIcSt11char_traitsIcESaIcEEESt4pairIKS5_PN4Poco20AbstractInstantiatorINS8_7ChannelEEEESt10_Select1stISD_ESt4lessIS5_ESaISD_EE21_M_get_Node_allocatorEv
FN:574,_ZNSt8_Rb_treeINSt7__cxx1112basic_stringIcSt11char_traitsIcESaIcEEESt4pairIKS5_PN4Poco20AbstractInstantiatorINS8_9FormatterEEEESt10_Select1stISD_ESt4lessIS5_ESaISD_EE21_M_get_Node_allocatorEv
FN:587,_ZNSt8_Rb_treeINSt7__cxx1112basic_stringIcSt11char_traitsIcESaIcEEESt4pairIKS5_PN4Poco20AbstractInstantiatorINS8_7ChannelEEEESt10_Select1stISD_ESt4lessIS5_ESaISD_EE11_M_get_nodeEv
FN:587,_ZNSt8_Rb_treeINSt7__cxx1112basic_stringIcSt11char_traitsIcESaIcEEESt4pairIKS5_PN4Poco20AbstractInstantiatorINS8_9FormatterEEEESt10_Select1stISD_ESt4lessIS5_ESaISD_EE11_M_get_nodeEv
FN:591,_ZNSt8_Rb_treeINSt7__cxx1112basic_stringIcSt11char_traitsIcESaIcEEESt4pairIKS5_PN4Poco20AbstractInstantiatorINS8_9FormatterEEEESt10_Select1stISD_ESt4lessIS5_ESaISD_EE11_M_put_nodeEPSt13_Rb_tree_nodeISD_E
FN:591,_ZNSt8_Rb_treeINSt7__cxx1112basic_stringIcSt11char_traitsIcESaIcEEESt4pairIKS5_PN4Poco20AbstractInstantiatorINS8_7ChannelEEEESt10_Select1stISD_ESt4lessIS5_ESaISD_EE11_M_put_nodeEPSt13_Rb_tree_nodeISD_E
FN:621,_ZNSt8_Rb_treeINSt7__cxx1112basic_stringIcSt11char_traitsIcESaIcEEESt4pairIKS5_PN4Poco20AbstractInstantiatorINS8_7ChannelEEEESt10_Select1stISD_ESt4lessIS5_ESaISD_EE17_M_construct_nodeIJRKSt21piecewise_construct_tSt5tupleIJRS7_EESO_IJEEEEEvPSt13_Rb_tree_nodeISD_EDpOT_
FN:621,_ZNSt8_Rb_treeINSt7__cxx1112basic_stringIcSt11char_traitsIcESaIcEEESt4pairIKS5_PN4Poco20AbstractInstantiatorINS8_9FormatterEEEESt10_Select1stISD_ESt4lessIS5_ESaISD_EE17_M_construct_nodeIJRKSt21piecewise_construct_tSt5tupleIJRS7_EESO_IJEEEEEvPSt13_Rb_tree_nodeISD_EDpOT_
FN:640,_ZNSt8_Rb_treeINSt7__cxx1112basic_stringIcSt11char_traitsIcESaIcEEESt4pairIKS5_PN4Poco20AbstractInstantiatorINS8_9FormatterEEEESt10_Select1stISD_ESt4lessIS5_ESaISD_EE14_M_create_nodeIJRKSt21piecewise_construct_tSt5tupleIJRS7_EESO_IJEEEEEPSt13_Rb_tree_nodeISD_EDpOT_
FN:640,_ZNSt8_Rb_treeINSt7__cxx1112basic_stringIcSt11char_traitsIcESaIcEEESt4pairIKS5_PN4Poco20AbstractInstantiatorINS8_7ChannelEEEESt10_Select1stISD_ESt4lessIS5_ESaISD_EE14_M_create_nodeIJRKSt21piecewise_construct_tSt5tupleIJRS7_EESO_IJEEEEEPSt13_Rb_tree_nodeISD_EDpOT_
FN:648,_ZNSt8_Rb_treeINSt7__cxx1112basic_stringIcSt11char_traitsIcESaIcEEESt4pairIKS5_PN4Poco20AbstractInstantiatorINS8_9FormatterEEEESt10_Select1stISD_ESt4lessIS5_ESaISD_EE15_M_destroy_nodeEPSt13_Rb_tree_nodeISD_E
FN:648,_ZNSt8_Rb_treeINSt7__cxx1112basic_stringIcSt11char_traitsIcESaIcEEESt4pairIKS5_PN4Poco20AbstractInstantiatorINS8_7ChannelEEEESt10_Select1stISD_ESt4lessIS5_ESaISD_EE15_M_destroy_nodeEPSt13_Rb_tree_nodeISD_E
FN:656,_ZNSt8_Rb_treeINSt7__cxx1112basic_stringIcSt11char_traitsIcESaIcEEESt4pairIKS5_PN4Poco20AbstractInstantiatorINS8_7ChannelEEEESt10_Select1stISD_ESt4lessIS5_ESaISD_EE12_M_drop_nodeEPSt13_Rb_tree_nodeISD_E
FN:656,_ZNSt8_Rb_treeINSt7__cxx1112basic_stringIcSt11char_traitsIcESaIcEEESt4pairIKS5_PN4Poco20AbstractInstantiatorINS8_9FormatterEEEESt10_Select1stISD_ESt4lessIS5_ESaISD_EE12_M_drop_nodeEPSt13_Rb_tree_nodeISD_E
FN:677,_ZNSt8_Rb_treeINSt7__cxx1112basic_stringIcSt11char_traitsIcESaIcEEESt4pairIKS5_PN4Poco20AbstractInstantiatorINS8_9FormatterEEEESt10_Select1stISD_ESt4lessIS5_ESaISD_EE13_Rb_tree_implISH_Lb1EED2Ev
FN:677,_ZNSt8_Rb_treeINSt7__cxx1112basic_stringIcSt11char_traitsIcESaIcEEESt4pairIKS5_PN4Poco20AbstractInstantiatorINS8_7ChannelEEEESt10_Select1stISD_ESt4lessIS5_ESaISD_EE13_Rb_tree_implISH_Lb1EED2Ev
FN:688,_ZNSt8_Rb_treeINSt7__cxx1112basic_stringIcSt11char_traitsIcESaIcEEESt4pairIKS5_PN4Poco20AbstractInstantiatorINS8_9FormatterEEEESt10_Select1stISD_ESt4lessIS5_ESaISD_EE13_Rb_tree_implISH_Lb1EEC2Ev
FN:688,_ZNSt8_Rb_treeINSt7__cxx1112basic_stringIcSt11char_traitsIcESaIcEEESt4pairIKS5_PN4Poco20AbstractInstantiatorINS8_7ChannelEEEESt10_Select1stISD_ESt4lessIS5_ESaISD_EE13_Rb_tree_implISH_Lb1EEC2Ev
FN:720,_ZNSt8_Rb_treeINSt7__cxx1112basic_stringIcSt11char_traitsIcESaIcEEESt4pairIKS5_PN4Poco20AbstractInstantiatorINS8_7ChannelEEEESt10_Select1stISD_ESt4lessIS5_ESaISD_EE11_M_leftmostEv
FN:720,_ZNSt8_Rb_treeINSt7__cxx1112basic_stringIcSt11char_traitsIcESaIcEEESt4pairIKS5_PN4Poco20AbstractInstantiatorINS8_9FormatterEEEESt10_Select1stISD_ESt4lessIS5_ESaISD_EE11_M_leftmostEv
FN:728,_ZNSt8_Rb_treeINSt7__cxx1112basic_stringIcSt11char_traitsIcESaIcEEESt4pairIKS5_PN4Poco20AbstractInstantiatorINS8_7ChannelEEEESt10_Select1stISD_ESt4lessIS5_ESaISD_EE12_M_rightmostEv
FN:728,_ZNSt8_Rb_treeINSt7__cxx1112basic_stringIcSt11char_traitsIcESaIcEEESt4pairIKS5_PN4Poco20AbstractInstantiatorINS8_9FormatterEEEESt10_Select1stISD_ESt4lessIS5_ESaISD_EE12_M_rightmostEv
FN:736,_ZNSt8_Rb_treeINSt7__cxx1112basic_stringIcSt11char_traitsIcESaIcEEESt4pairIKS5_PN4Poco20AbstractInstantiatorINS8_7ChannelEEEESt10_Select1stISD_ESt4lessIS5_ESaISD_EE8_M_beginEv
FN:736,_ZNSt8_Rb_treeINSt7__cxx1112basic_stringIcSt11char_traitsIcESaIcEEESt4pairIKS5_PN4Poco20AbstractInstantiatorINS8_9FormatterEEEESt10_Select1stISD_ESt4lessIS5_ESaISD_EE8_M_beginEv
FN:740,_ZNKSt8_Rb_treeINSt7__cxx1112basic_stringIcSt11char_traitsIcESaIcEEESt4pairIKS5_PN4Poco20AbstractInstantiatorINS8_7ChannelEEEESt10_Select1stISD_ESt4lessIS5_ESaISD_EE8_M_beginEv
FN:740,_ZNKSt8_Rb_treeINSt7__cxx1112basic_stringIcSt11char_traitsIcESaIcEEESt4pairIKS5_PN4Poco20AbstractInstantiatorINS8_9FormatterEEEESt10_Select1stISD_ESt4lessIS5_ESaISD_EE8_M_beginEv
FN:747,_ZNSt8_Rb_treeINSt7__cxx1112basic_stringIcSt11char_traitsIcESaIcEEESt4pairIKS5_PN4Poco20AbstractInstantiatorINS8_7ChannelEEEESt10_Select1stISD_ESt4lessIS5_ESaISD_EE6_M_endEv
FN:747,_ZNSt8_Rb_treeINSt7__cxx1112basic_stringIcSt11char_traitsIcESaIcEEESt4pairIKS5_PN4Poco20AbstractInstantiatorINS8_9FormatterEEEESt10_Select1stISD_ESt4lessIS5_ESaISD_EE6_M_endEv
FN:751,_ZNKSt8_Rb_treeINSt7__cxx1112basic_stringIcSt11char_traitsIcESaIcEEESt4pairIKS5_PN4Poco20AbstractInstantiatorINS8_7ChannelEEEESt10_Select1stISD_ESt4lessIS5_ESaISD_EE6_M_endEv
FN:751,_ZNKSt8_Rb_treeINSt7__cxx1112basic_stringIcSt11char_traitsIcESaIcEEESt4pairIKS5_PN4Poco20AbstractInstantiatorINS8_9FormatterEEEESt10_Select1stISD_ESt4lessIS5_ESaISD_EE6_M_endEv
FN:755,_ZNSt8_Rb_treeINSt7__cxx1112basic_stringIcSt11char_traitsIcESaIcEEESt4pairIKS5_PN4Poco20AbstractInstantiatorINS8_9FormatterEEEESt10_Select1stISD_ESt4lessIS5_ESaISD_EE8_S_valueEPKSt13_Rb_tree_nodeISD_E
FN:755,_ZNSt8_Rb_treeINSt7__cxx1112basic_stringIcSt11char_traitsIcESaIcEEESt4pairIKS5_PN4Poco20AbstractInstantiatorINS8_7ChannelEEEESt10_Select1stISD_ESt4lessIS5_ESaISD_EE8_S_valueEPKSt13_Rb_tree_nodeISD_E
FN:759,_ZNSt8_Rb_treeINSt7__cxx1112basic_stringIcSt11char_traitsIcESaIcEEESt4pairIKS5_PN4Poco20AbstractInstantiatorINS8_9FormatterEEEESt10_Select1stISD_ESt4lessIS5_ESaISD_EE6_S_keyEPKSt13_Rb_tree_nodeISD_E
FN:759,_ZNSt8_Rb_treeINSt7__cxx1112basic_stringIcSt11char_traitsIcESaIcEEESt4pairIKS5_PN4Poco20AbstractInstantiatorINS8_7ChannelEEEESt10_Select1stISD_ESt4lessIS5_ESaISD_EE6_S_keyEPKSt13_Rb_tree_nodeISD_E
FN:763,_ZNSt8_Rb_treeINSt7__cxx1112basic_stringIcSt11char_traitsIcESaIcEEESt4pairIKS5_PN4Poco20AbstractInstantiatorINS8_9FormatterEEEESt10_Select1stISD_ESt4lessIS5_ESaISD_EE7_S_leftEPSt18_Rb_tree_node_base
FN:763,_ZNSt8_Rb_treeINSt7__cxx1112basic_stringIcSt11char_traitsIcESaIcEEESt4pairIKS5_PN4Poco20AbstractInstantiatorINS8_7ChannelEEEESt10_Select1stISD_ESt4lessIS5_ESaISD_EE7_S_leftEPSt18_Rb_tree_node_base
FN:767,_ZNSt8_Rb_treeINSt7__cxx1112basic_stringIcSt11char_traitsIcESaIcEEESt4pairIKS5_PN4Poco20AbstractInstantiatorINS8_9FormatterEEEESt10_Select1stISD_ESt4lessIS5_ESaISD_EE7_S_leftEPKSt18_Rb_tree_node_base
FN:767,_ZNSt8_Rb_treeINSt7__cxx1112basic_stringIcSt11char_traitsIcESaIcEEESt4pairIKS5_PN4Poco20AbstractInstantiatorINS8_7ChannelEEEESt10_Select1stISD_ESt4lessIS5_ESaISD_EE7_S_leftEPKSt18_Rb_tree_node_base
FN:771,_ZNSt8_Rb_treeINSt7__cxx1112basic_stringIcSt11char_traitsIcESaIcEEESt4pairIKS5_PN4Poco20AbstractInstantiatorINS8_7ChannelEEEESt10_Select1stISD_ESt4lessIS5_ESaISD_EE8_S_rightEPSt18_Rb_tree_node_base
FN:771,_ZNSt8_Rb_treeINSt7__cxx1112basic_stringIcSt11char_traitsIcESaIcEEESt4pairIKS5_PN4Poco20AbstractInstantiatorINS8_9FormatterEEEESt10_Select1stISD_ESt4lessIS5_ESaISD_EE8_S_rightEPSt18_Rb_tree_node_base
FN:775,_ZNSt8_Rb_treeINSt7__cxx1112basic_stringIcSt11char_traitsIcESaIcEEESt4pairIKS5_PN4Poco20AbstractInstantiatorINS8_9FormatterEEEESt10_Select1stISD_ESt4lessIS5_ESaISD_EE8_S_rightEPKSt18_Rb_tree_node_base
FN:775,_ZNSt8_Rb_treeINSt7__cxx1112basic_stringIcSt11char_traitsIcESaIcEEESt4pairIKS5_PN4Poco20AbstractInstantiatorINS8_7ChannelEEEESt10_Select1stISD_ESt4lessIS5_ESaISD_EE8_S_rightEPKSt18_Rb_tree_node_base
FN:779,_ZNSt8_Rb_treeINSt7__cxx1112basic_stringIcSt11char_traitsIcESaIcEEESt4pairIKS5_PN4Poco20AbstractInstantiatorINS8_7ChannelEEEESt10_Select1stISD_ESt4lessIS5_ESaISD_EE8_S_valueEPKSt18_Rb_tree_node_base
FN:779,_ZNSt8_Rb_treeINSt7__cxx1112basic_stringIcSt11char_traitsIcESaIcEEESt4pairIKS5_PN4Poco20AbstractInstantiatorINS8_9FormatterEEEESt10_Select1stISD_ESt4lessIS5_ESaISD_EE8_S_valueEPKSt18_Rb_tree_node_base
FN:783,_ZNSt8_Rb_treeINSt7__cxx1112basic_stringIcSt11char_traitsIcESaIcEEESt4pairIKS5_PN4Poco20AbstractInstantiatorINS8_9FormatterEEEESt10_Select1stISD_ESt4lessIS5_ESaISD_EE6_S_keyEPKSt18_Rb_tree_node_base
FN:783,_ZNSt8_Rb_treeINSt7__cxx1112basic_stringIcSt11char_traitsIcESaIcEEESt4pairIKS5_PN4Poco20AbstractInstantiatorINS8_7ChannelEEEESt10_Select1stISD_ESt4lessIS5_ESaISD_EE6_S_keyEPKSt18_Rb_tree_node_base
FN:913,_ZNSt8_Rb_treeINSt7__cxx1112basic_stringIcSt11char_traitsIcESaIcEEESt4pairIKS5_PN4Poco20AbstractInstantiatorINS8_9FormatterEEEESt10_Select1stISD_ESt4lessIS5_ESaISD_EEC2Ev
FN:913,_ZNSt8_Rb_treeINSt7__cxx1112basic_stringIcSt11char_traitsIcESaIcEEESt4pairIKS5_PN4Poco20AbstractInstantiatorINS8_7ChannelEEEESt10_Select1stISD_ESt4lessIS5_ESaISD_EEC2Ev
FN:948,_ZNSt8_Rb_treeINSt7__cxx1112basic_stringIcSt11char_traitsIcESaIcEEESt4pairIKS5_PN4Poco20AbstractInstantiatorINS8_7ChannelEEEESt10_Select1stISD_ESt4lessIS5_ESaISD_EED2Ev
FN:948,_ZNSt8_Rb_treeINSt7__cxx1112basic_stringIcSt11char_traitsIcESaIcEEESt4pairIKS5_PN4Poco20AbstractInstantiatorINS8_9FormatterEEEESt10_Select1stISD_ESt4lessIS5_ESaISD_EED2Ev
FN:956,_ZNKSt8_Rb_treeINSt7__cxx1112basic_stringIcSt11char_traitsIcESaIcEEESt4pairIKS5_PN4Poco20AbstractInstantiatorINS8_7ChannelEEEESt10_Select1stISD_ESt4lessIS5_ESaISD_EE8key_compEv
FN:956,_ZNKSt8_Rb_treeINSt7__cxx1112basic_stringIcSt11char_traitsIcESaIcEEESt4pairIKS5_PN4Poco20AbstractInstantiatorINS8_9FormatterEEEESt10_Select1stISD_ESt4lessIS5_ESaISD_EE8key_compEv
FN:960,_ZNSt8_Rb_treeINSt7__cxx1112basic_stringIcSt11char_traitsIcESaIcEEESt4pairIKS5_PN4Poco20AbstractInstantiatorINS8_7ChannelEEEESt10_Select1stISD_ESt4lessIS5_ESaISD_EE5beginEv
FN:960,_ZNSt8_Rb_treeINSt7__cxx1112basic_stringIcSt11char_traitsIcESaIcEEESt4pairIKS5_PN4Poco20AbstractInstantiatorINS8_9FormatterEEEESt10_Select1stISD_ESt4lessIS5_ESaISD_EE5beginEv
FN:968,_ZNSt8_Rb_treeINSt7__cxx1112basic_stringIcSt11char_traitsIcESaIcEEESt4pairIKS5_PN4Poco20AbstractInstantiatorINS8_9FormatterEEEESt10_Select1stISD_ESt4lessIS5_ESaISD_EE3endEv
FN:968,_ZNSt8_Rb_treeINSt7__cxx1112basic_stringIcSt11char_traitsIcESaIcEEESt4pairIKS5_PN4Poco20AbstractInstantiatorINS8_7ChannelEEEESt10_Select1stISD_ESt4lessIS5_ESaISD_EE3endEv
FN:972,_ZNKSt8_Rb_treeINSt7__cxx1112basic_stringIcSt11char_traitsIcESaIcEEESt4pairIKS5_PN4Poco20AbstractInstantiatorINS8_7ChannelEEEESt10_Select1stISD_ESt4lessIS5_ESaISD_EE3endEv
FN:972,_ZNKSt8_Rb_treeINSt7__cxx1112basic_stringIcSt11char_traitsIcESaIcEEESt4pairIKS5_PN4Poco20AbstractInstantiatorINS8_9FormatterEEEESt10_Select1stISD_ESt4lessIS5_ESaISD_EE3endEv
FN:996,_ZNKSt8_Rb_treeINSt7__cxx1112basic_stringIcSt11char_traitsIcESaIcEEESt4pairIKS5_PN4Poco20AbstractInstantiatorINS8_7ChannelEEEESt10_Select1stISD_ESt4lessIS5_ESaISD_EE4sizeEv
FN:996,_ZNKSt8_Rb_treeINSt7__cxx1112basic_stringIcSt11char_traitsIcESaIcEEESt4pairIKS5_PN4Poco20AbstractInstantiatorINS8_9FormatterEEEESt10_Select1stISD_ESt4lessIS5_ESaISD_EE4sizeEv
FN:1186,_ZNSt8_Rb_treeINSt7__cxx1112basic_stringIcSt11char_traitsIcESaIcEEESt4pairIKS5_PN4Poco20AbstractInstantiatorINS8_9FormatterEEEESt10_Select1stISD_ESt4lessIS5_ESaISD_EE11lower_boundERS7_
FN:1186,_ZNSt8_Rb_treeINSt7__cxx1112basic_stringIcSt11char_traitsIcESaIcEEESt4pairIKS5_PN4Poco20AbstractInstantiatorINS8_7ChannelEEEESt10_Select1stISD_ESt4lessIS5_ESaISD_EE11lower_boundERS7_
FN:1850,_ZNSt8_Rb_treeINSt7__cxx1112basic_stringIcSt11char_traitsIcESaIcEEESt4pairIKS5_PN4Poco20AbstractInstantiatorINS8_9FormatterEEEESt10_Select1stISD_ESt4lessIS5_ESaISD_EE8_M_eraseEPSt13_Rb_tree_nodeISD_E
FN:1850,_ZNSt8_Rb_treeINSt7__cxx1112basic_stringIcSt11char_traitsIcESaIcEEESt4pairIKS5_PN4Poco20AbstractInstantiatorINS8_7ChannelEEEESt10_Select1stISD_ESt4lessIS5_ESaISD_EE8_M_eraseEPSt13_Rb_tree_nodeISD_E
FN:1867,_ZNSt8_Rb_treeINSt7__cxx1112basic_stringIcSt11char_traitsIcESaIcEEESt4pairIKS5_PN4Poco20AbstractInstantiatorINS8_9FormatterEEEESt10_Select1stISD_ESt4lessIS5_ESaISD_EE14_M_lower_boundEPSt13_Rb_tree_nodeISD_EPSt18_Rb_tree_node_baseRS7_
FN:1867,_ZNSt8_Rb_treeINSt7__cxx1112basic_stringIcSt11char_traitsIcESaIcEEESt4pairIKS5_PN4Poco20AbstractInstantiatorINS8_7ChannelEEEESt10_Select1stISD_ESt4lessIS5_ESaISD_EE14_M_lower_boundEPSt13_Rb_tree_nodeISD_EPSt18_Rb_tree_node_baseRS7_
FN:1883,_ZNKSt8_Rb_treeINSt7__cxx1112basic_stringIcSt11char_traitsIcESaIcEEESt4pairIKS5_PN4Poco20AbstractInstantiatorINS8_9FormatterEEEESt10_Select1stISD_ESt4lessIS5_ESaISD_EE14_M_lower_boundEPKSt13_Rb_tree_nodeISD_EPKSt18_Rb_tree_node_baseRS7_
FN:1883,_ZNKSt8_Rb_treeINSt7__cxx1112basic_stringIcSt11char_traitsIcESaIcEEESt4pairIKS5_PN4Poco20AbstractInstantiatorINS8_7ChannelEEEESt10_Select1stISD_ESt4lessIS5_ESaISD_EE14_M_lower_boundEPKSt13_Rb_tree_nodeISD_EPKSt18_Rb_tree_node_baseRS7_
FN:2028,_ZNSt8_Rb_treeINSt7__cxx1112basic_stringIcSt11char_traitsIcESaIcEEESt4pairIKS5_PN4Poco20AbstractInstantiatorINS8_7ChannelEEEESt10_Select1stISD_ESt4lessIS5_ESaISD_EE24_M_get_insert_unique_posERS7_
FN:2028,_ZNSt8_Rb_treeINSt7__cxx1112basic_stringIcSt11char_traitsIcESaIcEEESt4pairIKS5_PN4Poco20AbstractInstantiatorINS8_9FormatterEEEESt10_Select1stISD_ESt4lessIS5_ESaISD_EE24_M_get_insert_unique_posERS7_
FN:2130,_ZNSt8_Rb_treeINSt7__cxx1112basic_stringIcSt11char_traitsIcESaIcEEESt4pairIKS5_PN4Poco20AbstractInstantiatorINS8_7ChannelEEEESt10_Select1stISD_ESt4lessIS5_ESaISD_EE29_M_get_insert_hint_unique_posESt23_Rb_tree_const_iteratorISD_ERS7_
FN:2130,_ZNSt8_Rb_treeINSt7__cxx1112basic_stringIcSt11char_traitsIcESaIcEEESt4pairIKS5_PN4Poco20AbstractInstantiatorINS8_9FormatterEEEESt10_Select1stISD_ESt4lessIS5_ESaISD_EE29_M_get_insert_hint_unique_posESt23_Rb_tree_const_iteratorISD_ERS7_
FN:2297,_ZNSt8_Rb_treeINSt7__cxx1112basic_stringIcSt11char_traitsIcESaIcEEESt4pairIKS5_PN4Poco20AbstractInstantiatorINS8_7ChannelEEEESt10_Select1stISD_ESt4lessIS5_ESaISD_EE14_M_insert_nodeEPSt18_Rb_tree_node_baseSL_PSt13_Rb_tree_nodeISD_E
FN:2297,_ZNSt8_Rb_treeINSt7__cxx1112basic_stringIcSt11char_traitsIcESaIcEEESt4pairIKS5_PN4Poco20AbstractInstantiatorINS8_9FormatterEEEESt10_Select1stISD_ESt4lessIS5_ESaISD_EE14_M_insert_nodeEPSt18_Rb_tree_node_baseSL_PSt13_Rb_tree_nodeISD_E
FN:2395,_ZNSt8_Rb_treeINSt7__cxx1112basic_stringIcSt11char_traitsIcESaIcEEESt4pairIKS5_PN4Poco20AbstractInstantiatorINS8_9FormatterEEEESt10_Select1stISD_ESt4lessIS5_ESaISD_EE22_M_emplace_hint_uniqueIJRKSt21piecewise_construct_tSt5tupleIJRS7_EESO_IJEEEEESt17_Rb_tree_iteratorISD_ESt23_Rb_tree_const_iteratorISD_EDpOT_
FN:2395,_ZNSt8_Rb_treeINSt7__cxx1112basic_stringIcSt11char_traitsIcESaIcEEESt4pairIKS5_PN4Poco20AbstractInstantiatorINS8_7ChannelEEEESt10_Select1stISD_ESt4lessIS5_ESaISD_EE22_M_emplace_hint_uniqueIJRKSt21piecewise_construct_tSt5tupleIJRS7_EESO_IJEEEEESt17_Rb_tree_iteratorISD_ESt23_Rb_tree_const_iteratorISD_EDpOT_
FN:2520,_ZNSt8_Rb_treeINSt7__cxx1112basic_stringIcSt11char_traitsIcESaIcEEESt4pairIKS5_PN4Poco20AbstractInstantiatorINS8_9FormatterEEEESt10_Select1stISD_ESt4lessIS5_ESaISD_EE4findERS7_
FN:2520,_ZNSt8_Rb_treeINSt7__cxx1112basic_stringIcSt11char_traitsIcESaIcEEESt4pairIKS5_PN4Poco20AbstractInstantiatorINS8_7ChannelEEEESt10_Select1stISD_ESt4lessIS5_ESaISD_EE4findERS7_
FN:2533,_ZNKSt8_Rb_treeINSt7__cxx1112basic_stringIcSt11char_traitsIcESaIcEEESt4pairIKS5_PN4Poco20AbstractInstantiatorINS8_7ChannelEEEESt10_Select1stISD_ESt4lessIS5_ESaISD_EE4findERS7_
FN:2533,_ZNKSt8_Rb_treeINSt7__cxx1112basic_stringIcSt11char_traitsIcESaIcEEESt4pairIKS5_PN4Poco20AbstractInstantiatorINS8_9FormatterEEEESt10_Select1stISD_ESt4lessIS5_ESaISD_EE4findERS7_
FNDA:0,_ZNSt20_Rb_tree_key_compareISt4lessINSt7__cxx1112basic_stringIcSt11char_traitsIcESaIcEEEEEC2Ev
FNDA:0,_ZNSt15_Rb_tree_headerC2Ev
FNDA:0,_ZNSt15_Rb_tree_header8_M_resetEv
FNDA:0,_ZNSt13_Rb_tree_nodeISt4pairIKNSt7__cxx1112basic_stringIcSt11char_traitsIcESaIcEEEPN4Poco20AbstractInstantiatorINS8_9FormatterEEEEE9_M_valptrEv
FNDA:0,_ZNSt13_Rb_tree_nodeISt4pairIKNSt7__cxx1112basic_stringIcSt11char_traitsIcESaIcEEEPN4Poco20AbstractInstantiatorINS8_7ChannelEEEEE9_M_valptrEv
FNDA:0,_ZNKSt13_Rb_tree_nodeISt4pairIKNSt7__cxx1112basic_stringIcSt11char_traitsIcESaIcEEEPN4Poco20AbstractInstantiatorINS8_9FormatterEEEEE9_M_valptrEv
FNDA:0,_ZNKSt13_Rb_tree_nodeISt4pairIKNSt7__cxx1112basic_stringIcSt11char_traitsIcESaIcEEEPN4Poco20AbstractInstantiatorINS8_7ChannelEEEEE9_M_valptrEv
FNDA:0,_ZNSt17_Rb_tree_iteratorISt4pairIKNSt7__cxx1112basic_stringIcSt11char_traitsIcESaIcEEEPN4Poco20AbstractInstantiatorINS8_9FormatterEEEEEC2EPSt18_Rb_tree_node_base
FNDA:0,_ZNSt17_Rb_tree_iteratorISt4pairIKNSt7__cxx1112basic_stringIcSt11char_traitsIcESaIcEEEPN4Poco20AbstractInstantiatorINS8_7ChannelEEEEEC2EPSt18_Rb_tree_node_base
FNDA:0,_ZNKSt17_Rb_tree_iteratorISt4pairIKNSt7__cxx1112basic_stringIcSt11char_traitsIcESaIcEEEPN4Poco20AbstractInstantiatorINS8_9FormatterEEEEEdeEv
FNDA:0,_ZNKSt17_Rb_tree_iteratorISt4pairIKNSt7__cxx1112basic_stringIcSt11char_traitsIcESaIcEEEPN4Poco20AbstractInstantiatorINS8_7ChannelEEEEEdeEv
FNDA:0,_ZNSt17_Rb_tree_iteratorISt4pairIKNSt7__cxx1112basic_stringIcSt11char_traitsIcESaIcEEEPN4Poco20AbstractInstantiatorINS8_9FormatterEEEEEppEv
FNDA:0,_ZNSt17_Rb_tree_iteratorISt4pairIKNSt7__cxx1112basic_stringIcSt11char_traitsIcESaIcEEEPN4Poco20AbstractInstantiatorINS8_7ChannelEEEEEppEv
FNDA:0,_ZNSt17_Rb_tree_iteratorISt4pairIKNSt7__cxx1112basic_stringIcSt11char_traitsIcESaIcEEEPN4Poco20AbstractInstantiatorINS8_9FormatterEEEEEmmEv
FNDA:0,_ZNSt17_Rb_tree_iteratorISt4pairIKNSt7__cxx1112basic_stringIcSt11char_traitsIcESaIcEEEPN4Poco20AbstractInstantiatorINS8_7ChannelEEEEEmmEv
FNDA:0,_ZNKSt17_Rb_tree_iteratorISt4pairIKNSt7__cxx1112basic_stringIcSt11char_traitsIcESaIcEEEPN4Poco20AbstractInstantiatorINS8_9FormatterEEEEEeqERKSE_
FNDA:0,_ZNKSt17_Rb_tree_iteratorISt4pairIKNSt7__cxx1112basic_stringIcSt11char_traitsIcESaIcEEEPN4Poco20AbstractInstantiatorINS8_7ChannelEEEEEeqERKSE_
FNDA:0,_ZNKSt17_Rb_tree_iteratorISt4pairIKNSt7__cxx1112basic_stringIcSt11char_traitsIcESaIcEEEPN4Poco20AbstractInstantiatorINS8_9FormatterEEEEEneERKSE_
FNDA:0,_ZNKSt17_Rb_tree_iteratorISt4pairIKNSt7__cxx1112basic_stringIcSt11char_traitsIcESaIcEEEPN4Poco20AbstractInstantiatorINS8_7ChannelEEEEEneERKSE_
FNDA:0,_ZNSt23_Rb_tree_const_iteratorISt4pairIKNSt7__cxx1112basic_stringIcSt11char_traitsIcESaIcEEEPN4Poco20AbstractInstantiatorINS8_9FormatterEEEEEC2EPKSt18_Rb_tree_node_base
FNDA:0,_ZNSt23_Rb_tree_const_iteratorISt4pairIKNSt7__cxx1112basic_stringIcSt11char_traitsIcESaIcEEEPN4Poco20AbstractInstantiatorINS8_7ChannelEEEEEC2EPKSt18_Rb_tree_node_base
FNDA:0,_ZNSt23_Rb_tree_const_iteratorISt4pairIKNSt7__cxx1112basic_stringIcSt11char_traitsIcESaIcEEEPN4Poco20AbstractInstantiatorINS8_9FormatterEEEEEC2ERKSt17_Rb_tree_iteratorISD_E
FNDA:0,_ZNSt23_Rb_tree_const_iteratorISt4pairIKNSt7__cxx1112basic_stringIcSt11char_traitsIcESaIcEEEPN4Poco20AbstractInstantiatorINS8_7ChannelEEEEEC2ERKSt17_Rb_tree_iteratorISD_E
FNDA:0,_ZNKSt23_Rb_tree_const_iteratorISt4pairIKNSt7__cxx1112basic_stringIcSt11char_traitsIcESaIcEEEPN4Poco20AbstractInstantiatorINS8_9FormatterEEEEE13_M_const_castEv
FNDA:0,_ZNKSt23_Rb_tree_const_iteratorISt4pairIKNSt7__cxx1112basic_stringIcSt11char_traitsIcESaIcEEEPN4Poco20AbstractInstantiatorINS8_7ChannelEEEEE13_M_const_castEv
FNDA:0,_ZNKSt23_Rb_tree_const_iteratorISt4pairIKNSt7__cxx1112basic_stringIcSt11char_traitsIcESaIcEEEPN4Poco20AbstractInstantiatorINS8_9FormatterEEEEEptEv
FNDA:0,_ZNKSt23_Rb_tree_const_iteratorISt4pairIKNSt7__cxx1112basic_stringIcSt11char_traitsIcESaIcEEEPN4Poco20AbstractInstantiatorINS8_7ChannelEEEEEptEv
FNDA:0,_ZNKSt23_Rb_tree_const_iteratorISt4pairIKNSt7__cxx1112basic_stringIcSt11char_traitsIcESaIcEEEPN4Poco20AbstractInstantiatorINS8_9FormatterEEEEEeqERKSE_
FNDA:0,_ZNKSt23_Rb_tree_const_iteratorISt4pairIKNSt7__cxx1112basic_stringIcSt11char_traitsIcESaIcEEEPN4Poco20AbstractInstantiatorINS8_7ChannelEEEEEeqERKSE_
FNDA:0,_ZNKSt23_Rb_tree_const_iteratorISt4pairIKNSt7__cxx1112basic_stringIcSt11char_traitsIcESaIcEEEPN4Poco20AbstractInstantiatorINS8_9FormatterEEEEEneERKSE_
FNDA:0,_ZNKSt23_Rb_tree_const_iteratorISt4pairIKNSt7__cxx1112basic_stringIcSt11char_traitsIcESaIcEEEPN4Poco20AbstractInstantiatorINS8_7ChannelEEEEEneERKSE_
FNDA:0,_ZNSt8_Rb_treeINSt7__cxx1112basic_stringIcSt11char_traitsIcESaIcEEESt4pairIKS5_PN4Poco20AbstractInstantiatorINS8_9FormatterEEEESt10_Select1stISD_ESt4lessIS5_ESaISD_EE21_M_get_Node_allocatorEv
FNDA:0,_ZNSt8_Rb_treeINSt7__cxx1112basic_stringIcSt11char_traitsIcESaIcEEESt4pairIKS5_PN4Poco20AbstractInstantiatorINS8_7ChannelEEEESt10_Select1stISD_ESt4lessIS5_ESaISD_EE21_M_get_Node_allocatorEv
FNDA:0,_ZNSt8_Rb_treeINSt7__cxx1112basic_stringIcSt11char_traitsIcESaIcEEESt4pairIKS5_PN4Poco20AbstractInstantiatorINS8_9FormatterEEEESt10_Select1stISD_ESt4lessIS5_ESaISD_EE11_M_get_nodeEv
FNDA:0,_ZNSt8_Rb_treeINSt7__cxx1112basic_stringIcSt11char_traitsIcESaIcEEESt4pairIKS5_PN4Poco20AbstractInstantiatorINS8_7ChannelEEEESt10_Select1stISD_ESt4lessIS5_ESaISD_EE11_M_get_nodeEv
FNDA:0,_ZNSt8_Rb_treeINSt7__cxx1112basic_stringIcSt11char_traitsIcESaIcEEESt4pairIKS5_PN4Poco20AbstractInstantiatorINS8_9FormatterEEEESt10_Select1stISD_ESt4lessIS5_ESaISD_EE11_M_put_nodeEPSt13_Rb_tree_nodeISD_E
FNDA:0,_ZNSt8_Rb_treeINSt7__cxx1112basic_stringIcSt11char_traitsIcESaIcEEESt4pairIKS5_PN4Poco20AbstractInstantiatorINS8_7ChannelEEEESt10_Select1stISD_ESt4lessIS5_ESaISD_EE11_M_put_nodeEPSt13_Rb_tree_nodeISD_E
FNDA:0,_ZNSt8_Rb_treeINSt7__cxx1112basic_stringIcSt11char_traitsIcESaIcEEESt4pairIKS5_PN4Poco20AbstractInstantiatorINS8_9FormatterEEEESt10_Select1stISD_ESt4lessIS5_ESaISD_EE17_M_construct_nodeIJRKSt21piecewise_construct_tSt5tupleIJRS7_EESO_IJEEEEEvPSt13_Rb_tree_nodeISD_EDpOT_
FNDA:0,_ZNSt8_Rb_treeINSt7__cxx1112basic_stringIcSt11char_traitsIcESaIcEEESt4pairIKS5_PN4Poco20AbstractInstantiatorINS8_7ChannelEEEESt10_Select1stISD_ESt4lessIS5_ESaISD_EE17_M_construct_nodeIJRKSt21piecewise_construct_tSt5tupleIJRS7_EESO_IJEEEEEvPSt13_Rb_tree_nodeISD_EDpOT_
FNDA:0,_ZNSt8_Rb_treeINSt7__cxx1112basic_stringIcSt11char_traitsIcESaIcEEESt4pairIKS5_PN4Poco20AbstractInstantiatorINS8_9FormatterEEEESt10_Select1stISD_ESt4lessIS5_ESaISD_EE14_M_create_nodeIJRKSt21piecewise_construct_tSt5tupleIJRS7_EESO_IJEEEEEPSt13_Rb_tree_nodeISD_EDpOT_
FNDA:0,_ZNSt8_Rb_treeINSt7__cxx1112basic_stringIcSt11char_traitsIcESaIcEEESt4pairIKS5_PN4Poco20AbstractInstantiatorINS8_7ChannelEEEESt10_Select1stISD_ESt4lessIS5_ESaISD_EE14_M_create_nodeIJRKSt21piecewise_construct_tSt5tupleIJRS7_EESO_IJEEEEEPSt13_Rb_tree_nodeISD_EDpOT_
FNDA:0,_ZNSt8_Rb_treeINSt7__cxx1112basic_stringIcSt11char_traitsIcESaIcEEESt4pairIKS5_PN4Poco20AbstractInstantiatorINS8_9FormatterEEEESt10_Select1stISD_ESt4lessIS5_ESaISD_EE15_M_destroy_nodeEPSt13_Rb_tree_nodeISD_E
FNDA:0,_ZNSt8_Rb_treeINSt7__cxx1112basic_stringIcSt11char_traitsIcESaIcEEESt4pairIKS5_PN4Poco20AbstractInstantiatorINS8_7ChannelEEEESt10_Select1stISD_ESt4lessIS5_ESaISD_EE15_M_destroy_nodeEPSt13_Rb_tree_nodeISD_E
FNDA:0,_ZNSt8_Rb_treeINSt7__cxx1112basic_stringIcSt11char_traitsIcESaIcEEESt4pairIKS5_PN4Poco20AbstractInstantiatorINS8_9FormatterEEEESt10_Select1stISD_ESt4lessIS5_ESaISD_EE12_M_drop_nodeEPSt13_Rb_tree_nodeISD_E
FNDA:0,_ZNSt8_Rb_treeINSt7__cxx1112basic_stringIcSt11char_traitsIcESaIcEEESt4pairIKS5_PN4Poco20AbstractInstantiatorINS8_7ChannelEEEESt10_Select1stISD_ESt4lessIS5_ESaISD_EE12_M_drop_nodeEPSt13_Rb_tree_nodeISD_E
FNDA:0,_ZNSt8_Rb_treeINSt7__cxx1112basic_stringIcSt11char_traitsIcESaIcEEESt4pairIKS5_PN4Poco20AbstractInstantiatorINS8_9FormatterEEEESt10_Select1stISD_ESt4lessIS5_ESaISD_EE13_Rb_tree_implISH_Lb1EED2Ev
FNDA:0,_ZNSt8_Rb_treeINSt7__cxx1112basic_stringIcSt11char_traitsIcESaIcEEESt4pairIKS5_PN4Poco20AbstractInstantiatorINS8_7ChannelEEEESt10_Select1stISD_ESt4lessIS5_ESaISD_EE13_Rb_tree_implISH_Lb1EED2Ev
FNDA:0,_ZNSt8_Rb_treeINSt7__cxx1112basic_stringIcSt11char_traitsIcESaIcEEESt4pairIKS5_PN4Poco20AbstractInstantiatorINS8_9FormatterEEEESt10_Select1stISD_ESt4lessIS5_ESaISD_EE13_Rb_tree_implISH_Lb1EEC2Ev
FNDA:0,_ZNSt8_Rb_treeINSt7__cxx1112basic_stringIcSt11char_traitsIcESaIcEEESt4pairIKS5_PN4Poco20AbstractInstantiatorINS8_7ChannelEEEESt10_Select1stISD_ESt4lessIS5_ESaISD_EE13_Rb_tree_implISH_Lb1EEC2Ev
FNDA:0,_ZNSt8_Rb_treeINSt7__cxx1112basic_stringIcSt11char_traitsIcESaIcEEESt4pairIKS5_PN4Poco20AbstractInstantiatorINS8_9FormatterEEEESt10_Select1stISD_ESt4lessIS5_ESaISD_EE11_M_leftmostEv
FNDA:0,_ZNSt8_Rb_treeINSt7__cxx1112basic_stringIcSt11char_traitsIcESaIcEEESt4pairIKS5_PN4Poco20AbstractInstantiatorINS8_7ChannelEEEESt10_Select1stISD_ESt4lessIS5_ESaISD_EE11_M_leftmostEv
FNDA:0,_ZNSt8_Rb_treeINSt7__cxx1112basic_stringIcSt11char_traitsIcESaIcEEESt4pairIKS5_PN4Poco20AbstractInstantiatorINS8_9FormatterEEEESt10_Select1stISD_ESt4lessIS5_ESaISD_EE12_M_rightmostEv
FNDA:0,_ZNSt8_Rb_treeINSt7__cxx1112basic_stringIcSt11char_traitsIcESaIcEEESt4pairIKS5_PN4Poco20AbstractInstantiatorINS8_7ChannelEEEESt10_Select1stISD_ESt4lessIS5_ESaISD_EE12_M_rightmostEv
FNDA:0,_ZNSt8_Rb_treeINSt7__cxx1112basic_stringIcSt11char_traitsIcESaIcEEESt4pairIKS5_PN4Poco20AbstractInstantiatorINS8_9FormatterEEEESt10_Select1stISD_ESt4lessIS5_ESaISD_EE8_M_beginEv
FNDA:0,_ZNSt8_Rb_treeINSt7__cxx1112basic_stringIcSt11char_traitsIcESaIcEEESt4pairIKS5_PN4Poco20AbstractInstantiatorINS8_7ChannelEEEESt10_Select1stISD_ESt4lessIS5_ESaISD_EE8_M_beginEv
FNDA:0,_ZNKSt8_Rb_treeINSt7__cxx1112basic_stringIcSt11char_traitsIcESaIcEEESt4pairIKS5_PN4Poco20AbstractInstantiatorINS8_9FormatterEEEESt10_Select1stISD_ESt4lessIS5_ESaISD_EE8_M_beginEv
FNDA:0,_ZNKSt8_Rb_treeINSt7__cxx1112basic_stringIcSt11char_traitsIcESaIcEEESt4pairIKS5_PN4Poco20AbstractInstantiatorINS8_7ChannelEEEESt10_Select1stISD_ESt4lessIS5_ESaISD_EE8_M_beginEv
FNDA:0,_ZNSt8_Rb_treeINSt7__cxx1112basic_stringIcSt11char_traitsIcESaIcEEESt4pairIKS5_PN4Poco20AbstractInstantiatorINS8_9FormatterEEEESt10_Select1stISD_ESt4lessIS5_ESaISD_EE6_M_endEv
FNDA:0,_ZNSt8_Rb_treeINSt7__cxx1112basic_stringIcSt11char_traitsIcESaIcEEESt4pairIKS5_PN4Poco20AbstractInstantiatorINS8_7ChannelEEEESt10_Select1stISD_ESt4lessIS5_ESaISD_EE6_M_endEv
FNDA:0,_ZNKSt8_Rb_treeINSt7__cxx1112basic_stringIcSt11char_traitsIcESaIcEEESt4pairIKS5_PN4Poco20AbstractInstantiatorINS8_9FormatterEEEESt10_Select1stISD_ESt4lessIS5_ESaISD_EE6_M_endEv
FNDA:0,_ZNKSt8_Rb_treeINSt7__cxx1112basic_stringIcSt11char_traitsIcESaIcEEESt4pairIKS5_PN4Poco20AbstractInstantiatorINS8_7ChannelEEEESt10_Select1stISD_ESt4lessIS5_ESaISD_EE6_M_endEv
FNDA:0,_ZNSt8_Rb_treeINSt7__cxx1112basic_stringIcSt11char_traitsIcESaIcEEESt4pairIKS5_PN4Poco20AbstractInstantiatorINS8_9FormatterEEEESt10_Select1stISD_ESt4lessIS5_ESaISD_EE8_S_valueEPKSt13_Rb_tree_nodeISD_E
FNDA:0,_ZNSt8_Rb_treeINSt7__cxx1112basic_stringIcSt11char_traitsIcESaIcEEESt4pairIKS5_PN4Poco20AbstractInstantiatorINS8_7ChannelEEEESt10_Select1stISD_ESt4lessIS5_ESaISD_EE8_S_valueEPKSt13_Rb_tree_nodeISD_E
FNDA:0,_ZNSt8_Rb_treeINSt7__cxx1112basic_stringIcSt11char_traitsIcESaIcEEESt4pairIKS5_PN4Poco20AbstractInstantiatorINS8_9FormatterEEEESt10_Select1stISD_ESt4lessIS5_ESaISD_EE6_S_keyEPKSt13_Rb_tree_nodeISD_E
FNDA:0,_ZNSt8_Rb_treeINSt7__cxx1112basic_stringIcSt11char_traitsIcESaIcEEESt4pairIKS5_PN4Poco20AbstractInstantiatorINS8_7ChannelEEEESt10_Select1stISD_ESt4lessIS5_ESaISD_EE6_S_keyEPKSt13_Rb_tree_nodeISD_E
FNDA:0,_ZNSt8_Rb_treeINSt7__cxx1112basic_stringIcSt11char_traitsIcESaIcEEESt4pairIKS5_PN4Poco20AbstractInstantiatorINS8_9FormatterEEEESt10_Select1stISD_ESt4lessIS5_ESaISD_EE7_S_leftEPSt18_Rb_tree_node_base
FNDA:0,_ZNSt8_Rb_treeINSt7__cxx1112basic_stringIcSt11char_traitsIcESaIcEEESt4pairIKS5_PN4Poco20AbstractInstantiatorINS8_7ChannelEEEESt10_Select1stISD_ESt4lessIS5_ESaISD_EE7_S_leftEPSt18_Rb_tree_node_base
FNDA:0,_ZNSt8_Rb_treeINSt7__cxx1112basic_stringIcSt11char_traitsIcESaIcEEESt4pairIKS5_PN4Poco20AbstractInstantiatorINS8_9FormatterEEEESt10_Select1stISD_ESt4lessIS5_ESaISD_EE7_S_leftEPKSt18_Rb_tree_node_base
FNDA:0,_ZNSt8_Rb_treeINSt7__cxx1112basic_stringIcSt11char_traitsIcESaIcEEESt4pairIKS5_PN4Poco20AbstractInstantiatorINS8_7ChannelEEEESt10_Select1stISD_ESt4lessIS5_ESaISD_EE7_S_leftEPKSt18_Rb_tree_node_base
FNDA:0,_ZNSt8_Rb_treeINSt7__cxx1112basic_stringIcSt11char_traitsIcESaIcEEESt4pairIKS5_PN4Poco20AbstractInstantiatorINS8_9FormatterEEEESt10_Select1stISD_ESt4lessIS5_ESaISD_EE8_S_rightEPSt18_Rb_tree_node_base
FNDA:0,_ZNSt8_Rb_treeINSt7__cxx1112basic_stringIcSt11char_traitsIcESaIcEEESt4pairIKS5_PN4Poco20AbstractInstantiatorINS8_7ChannelEEEESt10_Select1stISD_ESt4lessIS5_ESaISD_EE8_S_rightEPSt18_Rb_tree_node_base
FNDA:0,_ZNSt8_Rb_treeINSt7__cxx1112basic_stringIcSt11char_traitsIcESaIcEEESt4pairIKS5_PN4Poco20AbstractInstantiatorINS8_9FormatterEEEESt10_Select1stISD_ESt4lessIS5_ESaISD_EE8_S_rightEPKSt18_Rb_tree_node_base
FNDA:0,_ZNSt8_Rb_treeINSt7__cxx1112basic_stringIcSt11char_traitsIcESaIcEEESt4pairIKS5_PN4Poco20AbstractInstantiatorINS8_7ChannelEEEESt10_Select1stISD_ESt4lessIS5_ESaISD_EE8_S_rightEPKSt18_Rb_tree_node_base
FNDA:0,_ZNSt8_Rb_treeINSt7__cxx1112basic_stringIcSt11char_traitsIcESaIcEEESt4pairIKS5_PN4Poco20AbstractInstantiatorINS8_9FormatterEEEESt10_Select1stISD_ESt4lessIS5_ESaISD_EE8_S_valueEPKSt18_Rb_tree_node_base
FNDA:0,_ZNSt8_Rb_treeINSt7__cxx1112basic_stringIcSt11char_traitsIcESaIcEEESt4pairIKS5_PN4Poco20AbstractInstantiatorINS8_7ChannelEEEESt10_Select1stISD_ESt4lessIS5_ESaISD_EE8_S_valueEPKSt18_Rb_tree_node_base
FNDA:0,_ZNSt8_Rb_treeINSt7__cxx1112basic_stringIcSt11char_traitsIcESaIcEEESt4pairIKS5_PN4Poco20AbstractInstantiatorINS8_9FormatterEEEESt10_Select1stISD_ESt4lessIS5_ESaISD_EE6_S_keyEPKSt18_Rb_tree_node_base
FNDA:0,_ZNSt8_Rb_treeINSt7__cxx1112basic_stringIcSt11char_traitsIcESaIcEEESt4pairIKS5_PN4Poco20AbstractInstantiatorINS8_7ChannelEEEESt10_Select1stISD_ESt4lessIS5_ESaISD_EE6_S_keyEPKSt18_Rb_tree_node_base
FNDA:0,_ZNSt8_Rb_treeINSt7__cxx1112basic_stringIcSt11char_traitsIcESaIcEEESt4pairIKS5_PN4Poco20AbstractInstantiatorINS8_9FormatterEEEESt10_Select1stISD_ESt4lessIS5_ESaISD_EEC2Ev
FNDA:0,_ZNSt8_Rb_treeINSt7__cxx1112basic_stringIcSt11char_traitsIcESaIcEEESt4pairIKS5_PN4Poco20AbstractInstantiatorINS8_7ChannelEEEESt10_Select1stISD_ESt4lessIS5_ESaISD_EEC2Ev
FNDA:0,_ZNSt8_Rb_treeINSt7__cxx1112basic_stringIcSt11char_traitsIcESaIcEEESt4pairIKS5_PN4Poco20AbstractInstantiatorINS8_9FormatterEEEESt10_Select1stISD_ESt4lessIS5_ESaISD_EED2Ev
FNDA:0,_ZNSt8_Rb_treeINSt7__cxx1112basic_stringIcSt11char_traitsIcESaIcEEESt4pairIKS5_PN4Poco20AbstractInstantiatorINS8_7ChannelEEEESt10_Select1stISD_ESt4lessIS5_ESaISD_EED2Ev
FNDA:0,_ZNKSt8_Rb_treeINSt7__cxx1112basic_stringIcSt11char_traitsIcESaIcEEESt4pairIKS5_PN4Poco20AbstractInstantiatorINS8_9FormatterEEEESt10_Select1stISD_ESt4lessIS5_ESaISD_EE8key_compEv
FNDA:0,_ZNKSt8_Rb_treeINSt7__cxx1112basic_stringIcSt11char_traitsIcESaIcEEESt4pairIKS5_PN4Poco20AbstractInstantiatorINS8_7ChannelEEEESt10_Select1stISD_ESt4lessIS5_ESaISD_EE8key_compEv
FNDA:0,_ZNSt8_Rb_treeINSt7__cxx1112basic_stringIcSt11char_traitsIcESaIcEEESt4pairIKS5_PN4Poco20AbstractInstantiatorINS8_9FormatterEEEESt10_Select1stISD_ESt4lessIS5_ESaISD_EE5beginEv
FNDA:0,_ZNSt8_Rb_treeINSt7__cxx1112basic_stringIcSt11char_traitsIcESaIcEEESt4pairIKS5_PN4Poco20AbstractInstantiatorINS8_7ChannelEEEESt10_Select1stISD_ESt4lessIS5_ESaISD_EE5beginEv
FNDA:0,_ZNSt8_Rb_treeINSt7__cxx1112basic_stringIcSt11char_traitsIcESaIcEEESt4pairIKS5_PN4Poco20AbstractInstantiatorINS8_9FormatterEEEESt10_Select1stISD_ESt4lessIS5_ESaISD_EE3endEv
FNDA:0,_ZNSt8_Rb_treeINSt7__cxx1112basic_stringIcSt11char_traitsIcESaIcEEESt4pairIKS5_PN4Poco20AbstractInstantiatorINS8_7ChannelEEEESt10_Select1stISD_ESt4lessIS5_ESaISD_EE3endEv
FNDA:0,_ZNKSt8_Rb_treeINSt7__cxx1112basic_stringIcSt11char_traitsIcESaIcEEESt4pairIKS5_PN4Poco20AbstractInstantiatorINS8_9FormatterEEEESt10_Select1stISD_ESt4lessIS5_ESaISD_EE3endEv
FNDA:0,_ZNKSt8_Rb_treeINSt7__cxx1112basic_stringIcSt11char_traitsIcESaIcEEESt4pairIKS5_PN4Poco20AbstractInstantiatorINS8_7ChannelEEEESt10_Select1stISD_ESt4lessIS5_ESaISD_EE3endEv
FNDA:0,_ZNKSt8_Rb_treeINSt7__cxx1112basic_stringIcSt11char_traitsIcESaIcEEESt4pairIKS5_PN4Poco20AbstractInstantiatorINS8_9FormatterEEEESt10_Select1stISD_ESt4lessIS5_ESaISD_EE4sizeEv
FNDA:0,_ZNKSt8_Rb_treeINSt7__cxx1112basic_stringIcSt11char_traitsIcESaIcEEESt4pairIKS5_PN4Poco20AbstractInstantiatorINS8_7ChannelEEEESt10_Select1stISD_ESt4lessIS5_ESaISD_EE4sizeEv
FNDA:0,_ZNSt8_Rb_treeINSt7__cxx1112basic_stringIcSt11char_traitsIcESaIcEEESt4pairIKS5_PN4Poco20AbstractInstantiatorINS8_9FormatterEEEESt10_Select1stISD_ESt4lessIS5_ESaISD_EE11lower_boundERS7_
FNDA:0,_ZNSt8_Rb_treeINSt7__cxx1112basic_stringIcSt11char_traitsIcESaIcEEESt4pairIKS5_PN4Poco20AbstractInstantiatorINS8_7ChannelEEEESt10_Select1stISD_ESt4lessIS5_ESaISD_EE11lower_boundERS7_
FNDA:0,_ZNSt8_Rb_treeINSt7__cxx1112basic_stringIcSt11char_traitsIcESaIcEEESt4pairIKS5_PN4Poco20AbstractInstantiatorINS8_9FormatterEEEESt10_Select1stISD_ESt4lessIS5_ESaISD_EE8_M_eraseEPSt13_Rb_tree_nodeISD_E
FNDA:0,_ZNSt8_Rb_treeINSt7__cxx1112basic_stringIcSt11char_traitsIcESaIcEEESt4pairIKS5_PN4Poco20AbstractInstantiatorINS8_7ChannelEEEESt10_Select1stISD_ESt4lessIS5_ESaISD_EE8_M_eraseEPSt13_Rb_tree_nodeISD_E
FNDA:0,_ZNSt8_Rb_treeINSt7__cxx1112basic_stringIcSt11char_traitsIcESaIcEEESt4pairIKS5_PN4Poco20AbstractInstantiatorINS8_9FormatterEEEESt10_Select1stISD_ESt4lessIS5_ESaISD_EE14_M_lower_boundEPSt13_Rb_tree_nodeISD_EPSt18_Rb_tree_node_baseRS7_
FNDA:0,_ZNSt8_Rb_treeINSt7__cxx1112basic_stringIcSt11char_traitsIcESaIcEEESt4pairIKS5_PN4Poco20AbstractInstantiatorINS8_7ChannelEEEESt10_Select1stISD_ESt4lessIS5_ESaISD_EE14_M_lower_boundEPSt13_Rb_tree_nodeISD_EPSt18_Rb_tree_node_baseRS7_
FNDA:0,_ZNKSt8_Rb_treeINSt7__cxx1112basic_stringIcSt11char_traitsIcESaIcEEESt4pairIKS5_PN4Poco20AbstractInstantiatorINS8_9FormatterEEEESt10_Select1stISD_ESt4lessIS5_ESaISD_EE14_M_lower_boundEPKSt13_Rb_tree_nodeISD_EPKSt18_Rb_tree_node_baseRS7_
FNDA:0,_ZNKSt8_Rb_treeINSt7__cxx1112basic_stringIcSt11char_traitsIcESaIcEEESt4pairIKS5_PN4Poco20AbstractInstantiatorINS8_7ChannelEEEESt10_Select1stISD_ESt4lessIS5_ESaISD_EE14_M_lower_boundEPKSt13_Rb_tree_nodeISD_EPKSt18_Rb_tree_node_baseRS7_
FNDA:0,_ZNSt8_Rb_treeINSt7__cxx1112basic_stringIcSt11char_traitsIcESaIcEEESt4pairIKS5_PN4Poco20AbstractInstantiatorINS8_9FormatterEEEESt10_Select1stISD_ESt4lessIS5_ESaISD_EE24_M_get_insert_unique_posERS7_
FNDA:0,_ZNSt8_Rb_treeINSt7__cxx1112basic_stringIcSt11char_traitsIcESaIcEEESt4pairIKS5_PN4Poco20AbstractInstantiatorINS8_7ChannelEEEESt10_Select1stISD_ESt4lessIS5_ESaISD_EE24_M_get_insert_unique_posERS7_
FNDA:0,_ZNSt8_Rb_treeINSt7__cxx1112basic_stringIcSt11char_traitsIcESaIcEEESt4pairIKS5_PN4Poco20AbstractInstantiatorINS8_9FormatterEEEESt10_Select1stISD_ESt4lessIS5_ESaISD_EE29_M_get_insert_hint_unique_posESt23_Rb_tree_const_iteratorISD_ERS7_
FNDA:0,_ZNSt8_Rb_treeINSt7__cxx1112basic_stringIcSt11char_traitsIcESaIcEEESt4pairIKS5_PN4Poco20AbstractInstantiatorINS8_7ChannelEEEESt10_Select1stISD_ESt4lessIS5_ESaISD_EE29_M_get_insert_hint_unique_posESt23_Rb_tree_const_iteratorISD_ERS7_
FNDA:0,_ZNSt8_Rb_treeINSt7__cxx1112basic_stringIcSt11char_traitsIcESaIcEEESt4pairIKS5_PN4Poco20AbstractInstantiatorINS8_9FormatterEEEESt10_Select1stISD_ESt4lessIS5_ESaISD_EE14_M_insert_nodeEPSt18_Rb_tree_node_baseSL_PSt13_Rb_tree_nodeISD_E
FNDA:0,_ZNSt8_Rb_treeINSt7__cxx1112basic_stringIcSt11char_traitsIcESaIcEEESt4pairIKS5_PN4Poco20AbstractInstantiatorINS8_7ChannelEEEESt10_Select1stISD_ESt4lessIS5_ESaISD_EE14_M_insert_nodeEPSt18_Rb_tree_node_baseSL_PSt13_Rb_tree_nodeISD_E
FNDA:0,_ZNSt8_Rb_treeINSt7__cxx1112basic_stringIcSt11char_traitsIcESaIcEEESt4pairIKS5_PN4Poco20AbstractInstantiatorINS8_9FormatterEEEESt10_Select1stISD_ESt4lessIS5_ESaISD_EE22_M_emplace_hint_uniqueIJRKSt21piecewise_construct_tSt5tupleIJRS7_EESO_IJEEEEESt17_Rb_tree_iteratorISD_ESt23_Rb_tree_const_iteratorISD_EDpOT_
FNDA:0,_ZNSt8_Rb_treeINSt7__cxx1112basic_stringIcSt11char_traitsIcESaIcEEESt4pairIKS5_PN4Poco20AbstractInstantiatorINS8_7ChannelEEEESt10_Select1stISD_ESt4lessIS5_ESaISD_EE22_M_emplace_hint_uniqueIJRKSt21piecewise_construct_tSt5tupleIJRS7_EESO_IJEEEEESt17_Rb_tree_iteratorISD_ESt23_Rb_tree_const_iteratorISD_EDpOT_
FNDA:0,_ZNSt8_Rb_treeINSt7__cxx1112basic_stringIcSt11char_traitsIcESaIcEEESt4pairIKS5_PN4Poco20AbstractInstantiatorINS8_9FormatterEEEESt10_Select1stISD_ESt4lessIS5_ESaISD_EE4findERS7_
FNDA:0,_ZNSt8_Rb_treeINSt7__cxx1112basic_stringIcSt11char_traitsIcESaIcEEESt4pairIKS5_PN4Poco20AbstractInstantiatorINS8_7ChannelEEEESt10_Select1stISD_ESt4lessIS5_ESaISD_EE4findERS7_
FNDA:0,_ZNKSt8_Rb_treeINSt7__cxx1112basic_stringIcSt11char_traitsIcESaIcEEESt4pairIKS5_PN4Poco20AbstractInstantiatorINS8_9FormatterEEEESt10_Select1stISD_ESt4lessIS5_ESaISD_EE4findERS7_
FNDA:0,_ZNKSt8_Rb_treeINSt7__cxx1112basic_stringIcSt11char_traitsIcESaIcEEESt4pairIKS5_PN4Poco20AbstractInstantiatorINS8_7ChannelEEEESt10_Select1stISD_ESt4lessIS5_ESaISD_EE4findERS7_
FNF:111
FNH:0
DA:146,0
DA:150,0
DA:173,0
DA:174,0
DA:175,0
DA:176,0
DA:177,0
DA:206,0
DA:208,0
DA:209,0
DA:210,0
DA:211,0
DA:212,0
DA:234,0
DA:235,0
DA:238,0
DA:239,0
DA:273,0
DA:274,0
DA:277,0
DA:278,0
DA:285,0
DA:287,0
DA:288,0
DA:300,0
DA:302,0
DA:303,0
DA:315,0
DA:316,0
DA:319,0
DA:320,0
DA:345,0
DA:346,0
DA:348,0
DA:349,0
DA:352,0
DA:353,0
DA:360,0
DA:361,0
DA:394,0
DA:395,0
DA:398,0
DA:399,0
DA:574,0
DA:575,0
DA:587,0
DA:588,0
DA:591,0
DA:592,0
DA:621,0
DA:625,0
DA:626,0
DA:630,0
DA:633,0
DA:634,0
DA:636,0
DA:640,0
DA:642,0
DA:643,0
DA:644,0
DA:648,0
DA:650,0
DA:652,0
DA:656,0
DA:658,0
DA:659,0
DA:660,0
DA:677,0
DA:688,0
DA:720,0
DA:721,0
DA:728,0
DA:729,0
DA:736,0
DA:737,0
DA:740,0
DA:743,0
DA:747,0
DA:748,0
DA:751,0
DA:752,0
DA:755,0
DA:756,0
DA:759,0
DA:760,0
DA:763,0
DA:764,0
DA:767,0
DA:768,0
DA:771,0
DA:772,0
DA:775,0
DA:776,0
DA:779,0
DA:780,0
DA:783,0
DA:784,0
DA:913,0
DA:948,0
DA:949,0
DA:956,0
DA:957,0
DA:960,0
DA:961,0
DA:968,0
DA:969,0
DA:972,0
DA:973,0
DA:996,0
DA:997,0
DA:1186,0
DA:1187,0
DA:1850,0
DA:1854,0
DA:1856,0
DA:1857,0
DA:1858,0
DA:1859,0
DA:1861,0
DA:1867,0
DA:1871,0
DA:1872,0
DA:1873,0
DA:1875,0
DA:1876,0
DA:1883,0
DA:1887,0
DA:1888,0
DA:1889,0
DA:1891,0
DA:1892,0
DA:2028,0
DA:2032,0
DA:2033,0
DA:2034,0
DA:2035,0
DA:2037,0
DA:2038,0
DA:2039,0
DA:2041,0
DA:2042,0
DA:2044,0
DA:2045,0
DA:2047,0
DA:2049,0
DA:2050,0
DA:2051,0
DA:2130,0
DA:2134,0
DA:2138,0
DA:2140,0
DA:2141,0
DA:2142,0
DA:2144,0
DA:2146,0
DA:2149,0
DA:2150,0
DA:2151,0
DA:2152,0
DA:2154,0
DA:2155,0
DA:2157,0
DA:2160,0
DA:2162,0
DA:2165,0
DA:2166,0
DA:2167,0
DA:2168,0
DA:2170,0
DA:2171,0
DA:2173,0
DA:2176,0
DA:2180,0
DA:2297,0
DA:2300,0
DA:2301,0
DA:2304,0
DA:2306,0
DA:2307,0
DA:2395,0
DA:2398,0
DA:2402,0
DA:2404,0
DA:2405,0
DA:2407,0
DA:2408,0
DA:2410,0
DA:2412,0
DA:2413,0
DA:2520,0
DA:2523,0
DA:2524,0
DA:2525,0
DA:2526,0
DA:2533,0
DA:2536,0
DA:2537,0
DA:2538,0
DA:2539,0
LF:199
LH:0
end_of_record
SF:/usr/include/c++/7/bits/unique_ptr.h
FN:72,_ZNKSt14default_deleteIN4Poco20AbstractInstantiatorINS0_7ChannelEEEEclEPS3_
FN:72,_ZNKSt14default_deleteIN4Poco20AbstractInstantiatorINS0_9FormatterEEEEclEPS3_
FN:140,_ZNSt15__uniq_ptr_implIN4Poco20AbstractInstantiatorINS0_7ChannelEEESt14default_deleteIS3_EEC2EPS3_
FN:140,_ZNSt15__uniq_ptr_implIN4Poco20AbstractInstantiatorINS0_9FormatterEEESt14default_deleteIS3_EEC2EPS3_
FN:146,_ZNSt15__uniq_ptr_implIN4Poco20AbstractInstantiatorINS0_7ChannelEEESt14default_deleteIS3_EE6_M_ptrEv
FN:146,_ZNSt15__uniq_ptr_implIN4Poco20AbstractInstantiatorINS0_9FormatterEEESt14default_deleteIS3_EE6_M_ptrEv
FN:147,_ZNKSt15__uniq_ptr_implIN4Poco20AbstractInstantiatorINS0_7ChannelEEESt14default_deleteIS3_EE6_M_ptrEv
FN:147,_ZNKSt15__uniq_ptr_implIN4Poco20AbstractInstantiatorINS0_9FormatterEEESt14default_deleteIS3_EE6_M_ptrEv
FN:148,_ZNSt15__uniq_ptr_implIN4Poco20AbstractInstantiatorINS0_9FormatterEEESt14default_deleteIS3_EE10_M_deleterEv
FN:148,_ZNSt15__uniq_ptr_implIN4Poco20AbstractInstantiatorINS0_7ChannelEEESt14default_deleteIS3_EE10_M_deleterEv
FN:201,_ZNSt10unique_ptrIN4Poco20AbstractInstantiatorINS0_9FormatterEEESt14default_deleteIS3_EEC2IS5_vEEPS3_
FN:201,_ZNSt10unique_ptrIN4Poco20AbstractInstantiatorINS0_7ChannelEEESt14default_deleteIS3_EEC2IS5_vEEPS3_
FN:264,_ZNSt10unique_ptrIN4Poco20AbstractInstantiatorINS0_9FormatterEEESt14default_deleteIS3_EED2Ev
FN:264,_ZNSt10unique_ptrIN4Poco20AbstractInstantiatorINS0_7ChannelEEESt14default_deleteIS3_EED2Ev
FN:336,_ZNKSt10unique_ptrIN4Poco20AbstractInstantiatorINS0_9FormatterEEESt14default_deleteIS3_EE3getEv
FN:336,_ZNKSt10unique_ptrIN4Poco20AbstractInstantiatorINS0_7ChannelEEESt14default_deleteIS3_EE3getEv
FN:341,_ZNSt10unique_ptrIN4Poco20AbstractInstantiatorINS0_7ChannelEEESt14default_deleteIS3_EE11get_deleterEv
FN:341,_ZNSt10unique_ptrIN4Poco20AbstractInstantiatorINS0_9FormatterEEESt14default_deleteIS3_EE11get_deleterEv
FN:357,_ZNSt10unique_ptrIN4Poco20AbstractInstantiatorINS0_9FormatterEEESt14default_deleteIS3_EE7releaseEv
FN:357,_ZNSt10unique_ptrIN4Poco20AbstractInstantiatorINS0_7ChannelEEESt14default_deleteIS3_EE7releaseEv
FNDA:0,_ZNKSt14default_deleteIN4Poco20AbstractInstantiatorINS0_9FormatterEEEEclEPS3_
FNDA:0,_ZNKSt14default_deleteIN4Poco20AbstractInstantiatorINS0_7ChannelEEEEclEPS3_
FNDA:0,_ZNSt15__uniq_ptr_implIN4Poco20AbstractInstantiatorINS0_9FormatterEEESt14default_deleteIS3_EEC2EPS3_
FNDA:0,_ZNSt15__uniq_ptr_implIN4Poco20AbstractInstantiatorINS0_7ChannelEEESt14default_deleteIS3_EEC2EPS3_
FNDA:0,_ZNSt15__uniq_ptr_implIN4Poco20AbstractInstantiatorINS0_9FormatterEEESt14default_deleteIS3_EE6_M_ptrEv
FNDA:0,_ZNSt15__uniq_ptr_implIN4Poco20AbstractInstantiatorINS0_7ChannelEEESt14default_deleteIS3_EE6_M_ptrEv
FNDA:0,_ZNKSt15__uniq_ptr_implIN4Poco20AbstractInstantiatorINS0_9FormatterEEESt14default_deleteIS3_EE6_M_ptrEv
FNDA:0,_ZNKSt15__uniq_ptr_implIN4Poco20AbstractInstantiatorINS0_7ChannelEEESt14default_deleteIS3_EE6_M_ptrEv
FNDA:0,_ZNSt15__uniq_ptr_implIN4Poco20AbstractInstantiatorINS0_9FormatterEEESt14default_deleteIS3_EE10_M_deleterEv
FNDA:0,_ZNSt15__uniq_ptr_implIN4Poco20AbstractInstantiatorINS0_7ChannelEEESt14default_deleteIS3_EE10_M_deleterEv
FNDA:0,_ZNSt10unique_ptrIN4Poco20AbstractInstantiatorINS0_9FormatterEEESt14default_deleteIS3_EEC2IS5_vEEPS3_
FNDA:0,_ZNSt10unique_ptrIN4Poco20AbstractInstantiatorINS0_7ChannelEEESt14default_deleteIS3_EEC2IS5_vEEPS3_
FNDA:0,_ZNSt10unique_ptrIN4Poco20AbstractInstantiatorINS0_9FormatterEEESt14default_deleteIS3_EED2Ev
FNDA:0,_ZNSt10unique_ptrIN4Poco20AbstractInstantiatorINS0_7ChannelEEESt14default_deleteIS3_EED2Ev
FNDA:0,_ZNKSt10unique_ptrIN4Poco20AbstractInstantiatorINS0_9FormatterEEESt14default_deleteIS3_EE3getEv
FNDA:0,_ZNKSt10unique_ptrIN4Poco20AbstractInstantiatorINS0_7ChannelEEESt14default_deleteIS3_EE3getEv
FNDA:0,_ZNSt10unique_ptrIN4Poco20AbstractInstantiatorINS0_9FormatterEEESt14default_deleteIS3_EE11get_deleterEv
FNDA:0,_ZNSt10unique_ptrIN4Poco20AbstractInstantiatorINS0_7ChannelEEESt14default_deleteIS3_EE11get_deleterEv
FNDA:0,_ZNSt10unique_ptrIN4Poco20AbstractInstantiatorINS0_9FormatterEEESt14default_deleteIS3_EE7releaseEv
FNDA:0,_ZNSt10unique_ptrIN4Poco20AbstractInstantiatorINS0_7ChannelEEESt14default_deleteIS3_EE7releaseEv
FNF:20
FNH:0
DA:72,0
DA:78,0
DA:79,0
DA:140,0
DA:146,0
DA:147,0
DA:148,0
DA:201,0
DA:202,0
DA:203,0
DA:264,0
DA:266,0
DA:267,0
DA:268,0
DA:269,0
DA:270,0
DA:336,0
DA:337,0
DA:341,0
DA:342,0
DA:357,0
DA:359,0
DA:360,0
DA:361,0
LF:24
LH:0
end_of_record
SF:/usr/include/c++/7/ext/aligned_buffer.h
FN:62,_ZN9__gnu_cxx16__aligned_membufISt4pairIKNSt7__cxx1112basic_stringIcSt11char_traitsIcESaIcEEEPN4Poco20AbstractInstantiatorINS9_7ChannelEEEEE7_M_addrEv
FN:62,_ZN9__gnu_cxx16__aligned_membufISt4pairIKNSt7__cxx1112basic_stringIcSt11char_traitsIcESaIcEEEPN4Poco20AbstractInstantiatorINS9_9FormatterEEEEE7_M_addrEv
FN:66,_ZNK9__gnu_cxx16__aligned_membufISt4pairIKNSt7__cxx1112basic_stringIcSt11char_traitsIcESaIcEEEPN4Poco20AbstractInstantiatorINS9_9FormatterEEEEE7_M_addrEv
FN:66,_ZNK9__gnu_cxx16__aligned_membufISt4pairIKNSt7__cxx1112basic_stringIcSt11char_traitsIcESaIcEEEPN4Poco20AbstractInstantiatorINS9_7ChannelEEEEE7_M_addrEv
FN:70,_ZN9__gnu_cxx16__aligned_membufISt4pairIKNSt7__cxx1112basic_stringIcSt11char_traitsIcESaIcEEEPN4Poco20AbstractInstantiatorINS9_7ChannelEEEEE6_M_ptrEv
FN:70,_ZN9__gnu_cxx16__aligned_membufISt4pairIKNSt7__cxx1112basic_stringIcSt11char_traitsIcESaIcEEEPN4Poco20AbstractInstantiatorINS9_9FormatterEEEEE6_M_ptrEv
FN:74,_ZNK9__gnu_cxx16__aligned_membufISt4pairIKNSt7__cxx1112basic_stringIcSt11char_traitsIcESaIcEEEPN4Poco20AbstractInstantiatorINS9_7ChannelEEEEE6_M_ptrEv
FN:74,_ZNK9__gnu_cxx16__aligned_membufISt4pairIKNSt7__cxx1112basic_stringIcSt11char_traitsIcESaIcEEEPN4Poco20AbstractInstantiatorINS9_9FormatterEEEEE6_M_ptrEv
FNDA:0,_ZN9__gnu_cxx16__aligned_membufISt4pairIKNSt7__cxx1112basic_stringIcSt11char_traitsIcESaIcEEEPN4Poco20AbstractInstantiatorINS9_9FormatterEEEEE7_M_addrEv
FNDA:0,_ZN9__gnu_cxx16__aligned_membufISt4pairIKNSt7__cxx1112basic_stringIcSt11char_traitsIcESaIcEEEPN4Poco20AbstractInstantiatorINS9_7ChannelEEEEE7_M_addrEv
FNDA:0,_ZNK9__gnu_cxx16__aligned_membufISt4pairIKNSt7__cxx1112basic_stringIcSt11char_traitsIcESaIcEEEPN4Poco20AbstractInstantiatorINS9_9FormatterEEEEE7_M_addrEv
FNDA:0,_ZNK9__gnu_cxx16__aligned_membufISt4pairIKNSt7__cxx1112basic_stringIcSt11char_traitsIcESaIcEEEPN4Poco20AbstractInstantiatorINS9_7ChannelEEEEE7_M_addrEv
FNDA:0,_ZN9__gnu_cxx16__aligned_membufISt4pairIKNSt7__cxx1112basic_stringIcSt11char_traitsIcESaIcEEEPN4Poco20AbstractInstantiatorINS9_9FormatterEEEEE6_M_ptrEv
FNDA:0,_ZN9__gnu_cxx16__aligned_membufISt4pairIKNSt7__cxx1112basic_stringIcSt11char_traitsIcESaIcEEEPN4Poco20AbstractInstantiatorINS9_7ChannelEEEEE6_M_ptrEv
FNDA:0,_ZNK9__gnu_cxx16__aligned_membufISt4pairIKNSt7__cxx1112basic_stringIcSt11char_traitsIcESaIcEEEPN4Poco20AbstractInstantiatorINS9_9FormatterEEEEE6_M_ptrEv
FNDA:0,_ZNK9__gnu_cxx16__aligned_membufISt4pairIKNSt7__cxx1112basic_stringIcSt11char_traitsIcESaIcEEEPN4Poco20AbstractInstantiatorINS9_7ChannelEEEEE6_M_ptrEv
FNF:8
FNH:0
DA:62,0
DA:63,0
DA:66,0
DA:67,0
DA:70,0
DA:71,0
DA:74,0
DA:75,0
LF:8
LH:0
end_of_record
SF:/usr/include/c++/7/ext/new_allocator.h
FN:79,_ZN9__gnu_cxx13new_allocatorISt13_Rb_tree_nodeISt4pairIKNSt7__cxx1112basic_stringIcSt11char_traitsIcESaIcEEEPN4Poco20AbstractInstantiatorINSA_9FormatterEEEEEEC2Ev
FN:79,_ZN9__gnu_cxx13new_allocatorISt13_Rb_tree_nodeISt4pairIKNSt7__cxx1112basic_stringIcSt11char_traitsIcESaIcEEEPN4Poco20AbstractInstantiatorINSA_7ChannelEEEEEEC2Ev
FN:86,_ZN9__gnu_cxx13new_allocatorISt13_Rb_tree_nodeISt4pairIKNSt7__cxx1112basic_stringIcSt11char_traitsIcESaIcEEEPN4Poco20AbstractInstantiatorINSA_9FormatterEEEEEED2Ev
FN:86,_ZN9__gnu_cxx13new_allocatorISt13_Rb_tree_nodeISt4pairIKNSt7__cxx1112basic_stringIcSt11char_traitsIcESaIcEEEPN4Poco20AbstractInstantiatorINSA_7ChannelEEEEEED2Ev
FN:99,_ZN9__gnu_cxx13new_allocatorISt13_Rb_tree_nodeISt4pairIKNSt7__cxx1112basic_stringIcSt11char_traitsIcESaIcEEEPN4Poco20AbstractInstantiatorINSA_7ChannelEEEEEE8allocateEmPKv
FN:99,_ZN9__gnu_cxx13new_allocatorISt13_Rb_tree_nodeISt4pairIKNSt7__cxx1112basic_stringIcSt11char_traitsIcESaIcEEEPN4Poco20AbstractInstantiatorINSA_9FormatterEEEEEE8allocateEmPKv
FN:116,_ZN9__gnu_cxx13new_allocatorISt13_Rb_tree_nodeISt4pairIKNSt7__cxx1112basic_stringIcSt11char_traitsIcESaIcEEEPN4Poco20AbstractInstantiatorINSA_9FormatterEEEEEE10deallocateEPSG_m
FN:116,_ZN9__gnu_cxx13new_allocatorISt13_Rb_tree_nodeISt4pairIKNSt7__cxx1112basic_stringIcSt11char_traitsIcESaIcEEEPN4Poco20AbstractInstantiatorINSA_7ChannelEEEEEE10deallocateEPSG_m
FN:129,_ZNK9__gnu_cxx13new_allocatorISt13_Rb_tree_nodeISt4pairIKNSt7__cxx1112basic_stringIcSt11char_traitsIcESaIcEEEPN4Poco20AbstractInstantiatorINSA_7ChannelEEEEEE8max_sizeEv
FN:129,_ZNK9__gnu_cxx13new_allocatorISt13_Rb_tree_nodeISt4pairIKNSt7__cxx1112basic_stringIcSt11char_traitsIcESaIcEEEPN4Poco20AbstractInstantiatorINSA_9FormatterEEEEEE8max_sizeEv
FN:135,_ZN9__gnu_cxx13new_allocatorISt13_Rb_tree_nodeISt4pairIKNSt7__cxx1112basic_stringIcSt11char_traitsIcESaIcEEEPN4Poco20AbstractInstantiatorINSA_7ChannelEEEEEE9constructISF_JRKSt21piecewise_construct_tSt5tupleIJRS9_EESM_IJEEEEEvPT_DpOT0_
FN:135,_ZN9__gnu_cxx13new_allocatorISt13_Rb_tree_nodeISt4pairIKNSt7__cxx1112basic_stringIcSt11char_traitsIcESaIcEEEPN4Poco20AbstractInstantiatorINSA_9FormatterEEEEEE9constructISF_JRKSt21piecewise_construct_tSt5tupleIJRS9_EESM_IJEEEEEvPT_DpOT0_
FN:140,_ZN9__gnu_cxx13new_allocatorISt13_Rb_tree_nodeISt4pairIKNSt7__cxx1112basic_stringIcSt11char_traitsIcESaIcEEEPN4Poco20AbstractInstantiatorINSA_9FormatterEEEEEE7destroyISF_EEvPT_
FN:140,_ZN9__gnu_cxx13new_allocatorISt13_Rb_tree_nodeISt4pairIKNSt7__cxx1112basic_stringIcSt11char_traitsIcESaIcEEEPN4Poco20AbstractInstantiatorINSA_7ChannelEEEEEE7destroyISF_EEvPT_
FNDA:0,_ZN9__gnu_cxx13new_allocatorISt13_Rb_tree_nodeISt4pairIKNSt7__cxx1112basic_stringIcSt11char_traitsIcESaIcEEEPN4Poco20AbstractInstantiatorINSA_9FormatterEEEEEEC2Ev
FNDA:0,_ZN9__gnu_cxx13new_allocatorISt13_Rb_tree_nodeISt4pairIKNSt7__cxx1112basic_stringIcSt11char_traitsIcESaIcEEEPN4Poco20AbstractInstantiatorINSA_7ChannelEEEEEEC2Ev
FNDA:0,_ZN9__gnu_cxx13new_allocatorISt13_Rb_tree_nodeISt4pairIKNSt7__cxx1112basic_stringIcSt11char_traitsIcESaIcEEEPN4Poco20AbstractInstantiatorINSA_9FormatterEEEEEED2Ev
FNDA:0,_ZN9__gnu_cxx13new_allocatorISt13_Rb_tree_nodeISt4pairIKNSt7__cxx1112basic_stringIcSt11char_traitsIcESaIcEEEPN4Poco20AbstractInstantiatorINSA_7ChannelEEEEEED2Ev
FNDA:0,_ZN9__gnu_cxx13new_allocatorISt13_Rb_tree_nodeISt4pairIKNSt7__cxx1112basic_stringIcSt11char_traitsIcESaIcEEEPN4Poco20AbstractInstantiatorINSA_9FormatterEEEEEE8allocateEmPKv
FNDA:0,_ZN9__gnu_cxx13new_allocatorISt13_Rb_tree_nodeISt4pairIKNSt7__cxx1112basic_stringIcSt11char_traitsIcESaIcEEEPN4Poco20AbstractInstantiatorINSA_7ChannelEEEEEE8allocateEmPKv
FNDA:0,_ZN9__gnu_cxx13new_allocatorISt13_Rb_tree_nodeISt4pairIKNSt7__cxx1112basic_stringIcSt11char_traitsIcESaIcEEEPN4Poco20AbstractInstantiatorINSA_9FormatterEEEEEE10deallocateEPSG_m
FNDA:0,_ZN9__gnu_cxx13new_allocatorISt13_Rb_tree_nodeISt4pairIKNSt7__cxx1112basic_stringIcSt11char_traitsIcESaIcEEEPN4Poco20AbstractInstantiatorINSA_7ChannelEEEEEE10deallocateEPSG_m
FNDA:0,_ZNK9__gnu_cxx13new_allocatorISt13_Rb_tree_nodeISt4pairIKNSt7__cxx1112basic_stringIcSt11char_traitsIcESaIcEEEPN4Poco20AbstractInstantiatorINSA_9FormatterEEEEEE8max_sizeEv
FNDA:0,_ZNK9__gnu_cxx13new_allocatorISt13_Rb_tree_nodeISt4pairIKNSt7__cxx1112basic_stringIcSt11char_traitsIcESaIcEEEPN4Poco20AbstractInstantiatorINSA_7ChannelEEEEEE8max_sizeEv
FNDA:0,_ZN9__gnu_cxx13new_allocatorISt13_Rb_tree_nodeISt4pairIKNSt7__cxx1112basic_stringIcSt11char_traitsIcESaIcEEEPN4Poco20AbstractInstantiatorINSA_9FormatterEEEEEE9constructISF_JRKSt21piecewise_construct_tSt5tupleIJRS9_EESM_IJEEEEEvPT_DpOT0_
FNDA:0,_ZN9__gnu_cxx13new_allocatorISt13_Rb_tree_nodeISt4pairIKNSt7__cxx1112basic_stringIcSt11char_traitsIcESaIcEEEPN4Poco20AbstractInstantiatorINSA_7ChannelEEEEEE9constructISF_JRKSt21piecewise_construct_tSt5tupleIJRS9_EESM_IJEEEEEvPT_DpOT0_
FNDA:0,_ZN9__gnu_cxx13new_allocatorISt13_Rb_tree_nodeISt4pairIKNSt7__cxx1112basic_stringIcSt11char_traitsIcESaIcEEEPN4Poco20AbstractInstantiatorINSA_9FormatterEEEEEE7destroyISF_EEvPT_
FNDA:0,_ZN9__gnu_cxx13new_allocatorISt13_Rb_tree_nodeISt4pairIKNSt7__cxx1112basic_stringIcSt11char_traitsIcESaIcEEEPN4Poco20AbstractInstantiatorINSA_7ChannelEEEEEE7destroyISF_EEvPT_
FNF:14
FNH:0
DA:79,0
DA:86,0
DA:99,0
DA:101,0
DA:102,0
DA:111,0
DA:116,0
DA:125,0
DA:126,0
DA:129,0
DA:130,0
DA:135,0
DA:136,0
DA:140,0
LF:14
LH:0
end_of_record
SF:/usr/include/c++/7/iostream
DA:74,1
LF:1
LH:1
end_of_record
SF:/usr/include/c++/7/new
FN:168,_ZnwmPv
FN:174,_ZdlPvS_
FNDA:0,_ZnwmPv
FNDA:0,_ZdlPvS_
FNF:2
FNH:0
DA:168,0
DA:169,0
DA:174,0
LF:3
LH:0
end_of_record
SF:/usr/include/c++/7/tuple
FN:76,_ZNSt10_Head_baseILm1ESt14default_deleteIN4Poco20AbstractInstantiatorINS1_7ChannelEEEELb1EEC2Ev
FN:76,_ZNSt10_Head_baseILm1ESt14default_deleteIN4Poco20AbstractInstantiatorINS1_9FormatterEEEELb1EEC2Ev
FN:113,_ZNSt10_Head_baseILm1ESt14default_deleteIN4Poco20AbstractInstantiatorINS1_9FormatterEEEELb1EE7_M_headERS6_
FN:113,_ZNSt10_Head_baseILm1ESt14default_deleteIN4Poco20AbstractInstantiatorINS1_7ChannelEEEELb1EE7_M_headERS6_
FN:122,_ZNSt10_Head_baseILm0EPN4Poco20AbstractInstantiatorINS0_9FormatterEEELb0EEC2Ev
FN:122,_ZNSt10_Head_baseILm0EPN4Poco20AbstractInstantiatorINS0_7ChannelEEELb0EEC2Ev
FN:125,_ZNSt10_Head_baseILm0ERKNSt7__cxx1112basic_stringIcSt11char_traitsIcESaIcEEELb0EEC2ES7_
FN:160,_ZNSt10_Head_baseILm0EPN4Poco20AbstractInstantiatorINS0_7ChannelEEELb0EE7_M_headERS5_
FN:160,_ZNSt10_Head_baseILm0EPN4Poco20AbstractInstantiatorINS0_9FormatterEEELb0EE7_M_headERS5_
FN:160,_ZNSt10_Head_baseILm0ERKNSt7__cxx1112basic_stringIcSt11char_traitsIcESaIcEEELb0EE7_M_headERS8_
FN:163,_ZNSt10_Head_baseILm0EPN4Poco20AbstractInstantiatorINS0_7ChannelEEELb0EE7_M_headERKS5_
FN:163,_ZNSt10_Head_baseILm0EPN4Poco20AbstractInstantiatorINS0_9FormatterEEELb0EE7_M_headERKS5_
FN:195,_ZNSt11_Tuple_implILm0EJPN4Poco20AbstractInstantiatorINS0_9FormatterEEESt14default_deleteIS3_EEE7_M_headERS7_
FN:195,_ZNSt11_Tuple_implILm0EJPN4Poco20AbstractInstantiatorINS0_7ChannelEEESt14default_deleteIS3_EEE7_M_headERS7_
FN:198,_ZNSt11_Tuple_implILm0EJPN4Poco20AbstractInstantiatorINS0_9FormatterEEESt14default_deleteIS3_EEE7_M_headERKS7_
FN:198,_ZNSt11_Tuple_implILm0EJPN4Poco20AbstractInstantiatorINS0_7ChannelEEESt14default_deleteIS3_EEE7_M_headERKS7_
FN:206,_ZNSt11_Tuple_implILm0EJPN4Poco20AbstractInstantiatorINS0_9FormatterEEESt14default_deleteIS3_EEEC2Ev
FN:206,_ZNSt11_Tuple_implILm0EJPN4Poco20AbstractInstantiatorINS0_7ChannelEEESt14default_deleteIS3_EEEC2Ev
FN:351,_ZNSt11_Tuple_implILm1EJSt14default_deleteIN4Poco20AbstractInstantiatorINS1_7ChannelEEEEEE7_M_headERS6_
FN:351,_ZNSt11_Tuple_implILm0EJRKNSt7__cxx1112basic_stringIcSt11char_traitsIcESaIcEEEEE7_M_headERS8_
FN:351,_ZNSt11_Tuple_implILm1EJSt14default_deleteIN4Poco20AbstractInstantiatorINS1_9FormatterEEEEEE7_M_headERS6_
FN:356,_ZNSt11_Tuple_implILm1EJSt14default_deleteIN4Poco20AbstractInstantiatorINS1_9FormatterEEEEEEC2Ev
FN:356,_ZNSt11_Tuple_implILm1EJSt14default_deleteIN4Poco20AbstractInstantiatorINS1_7ChannelEEEEEEC2Ev
FN:360,_ZNSt11_Tuple_implILm0EJRKNSt7__cxx1112basic_stringIcSt11char_traitsIcESaIcEEEEEC2ES7_
FN:371,_ZNSt11_Tuple_implILm0EJRKNSt7__cxx1112basic_stringIcSt11char_traitsIcESaIcEEEEEC2EOS8_
FN:608,_ZNSt5tupleIJRKNSt7__cxx1112basic_stringIcSt11char_traitsIcESaIcEEEEEC2IvLb1EEES7_
FN:662,_ZNSt5tupleIJRKNSt7__cxx1112basic_stringIcSt11char_traitsIcESaIcEEEEEC2EOS8_
FN:919,_ZNSt5tupleIJPN4Poco20AbstractInstantiatorINS0_7ChannelEEESt14default_deleteIS3_EEEC2IS4_S6_Lb1EEEv
FN:919,_ZNSt5tupleIJPN4Poco20AbstractInstantiatorINS0_9FormatterEEESt14default_deleteIS3_EEEC2IS4_S6_Lb1EEEv
FN:1303,_ZSt12__get_helperILm1ESt14default_deleteIN4Poco20AbstractInstantiatorINS1_7ChannelEEEEJEERT0_RSt11_Tuple_implIXT_EJS6_DpT1_EE
FN:1303,_ZSt12__get_helperILm0EPN4Poco20AbstractInstantiatorINS0_9FormatterEEEJSt14default_deleteIS3_EEERT0_RSt11_Tuple_implIXT_EJS7_DpT1_EE
FN:1303,_ZSt12__get_helperILm1ESt14default_deleteIN4Poco20AbstractInstantiatorINS1_9FormatterEEEEJEERT0_RSt11_Tuple_implIXT_EJS6_DpT1_EE
FN:1303,_ZSt12__get_helperILm0ERKNSt7__cxx1112basic_stringIcSt11char_traitsIcESaIcEEEJEERT0_RSt11_Tuple_implIXT_EJS8_DpT1_EE
FN:1303,_ZSt12__get_helperILm0EPN4Poco20AbstractInstantiatorINS0_7ChannelEEEJSt14default_deleteIS3_EEERT0_RSt11_Tuple_implIXT_EJS7_DpT1_EE
FN:1308,_ZSt12__get_helperILm0EPN4Poco20AbstractInstantiatorINS0_7ChannelEEEJSt14default_deleteIS3_EEERKT0_RKSt11_Tuple_implIXT_EJS7_DpT1_EE
FN:1308,_ZSt12__get_helperILm0EPN4Poco20AbstractInstantiatorINS0_9FormatterEEEJSt14default_deleteIS3_EEERKT0_RKSt11_Tuple_implIXT_EJS7_DpT1_EE
FN:1314,_ZSt3getILm1EJPN4Poco20AbstractInstantiatorINS0_9FormatterEEESt14default_deleteIS3_EEERNSt13tuple_elementIXT_ESt5tupleIJDpT0_EEE4typeERSB_
FN:1314,_ZSt3getILm0EJPN4Poco20AbstractInstantiatorINS0_7ChannelEEESt14default_deleteIS3_EEERNSt13tuple_elementIXT_ESt5tupleIJDpT0_EEE4typeERSB_
FN:1314,_ZSt3getILm0EJRKNSt7__cxx1112basic_stringIcSt11char_traitsIcESaIcEEEEERNSt13tuple_elementIXT_ESt5tupleIJDpT0_EEE4typeERSC_
FN:1314,_ZSt3getILm0EJPN4Poco20AbstractInstantiatorINS0_9FormatterEEESt14default_deleteIS3_EEERNSt13tuple_elementIXT_ESt5tupleIJDpT0_EEE4typeERSB_
FN:1314,_ZSt3getILm1EJPN4Poco20AbstractInstantiatorINS0_7ChannelEEESt14default_deleteIS3_EEERNSt13tuple_elementIXT_ESt5tupleIJDpT0_EEE4typeERSB_
FN:1320,_ZSt3getILm0EJPN4Poco20AbstractInstantiatorINS0_7ChannelEEESt14default_deleteIS3_EEERKNSt13tuple_elementIXT_ESt5tupleIJDpT0_EEE4typeERKSB_
FN:1320,_ZSt3getILm0EJPN4Poco20AbstractInstantiatorINS0_9FormatterEEESt14default_deleteIS3_EEERKNSt13tuple_elementIXT_ESt5tupleIJDpT0_EEE4typeERKSB_
FN:1636,_ZNSt4pairIKNSt7__cxx1112basic_stringIcSt11char_traitsIcESaIcEEEPN4Poco20AbstractInstantiatorINS7_9FormatterEEEEC2IJRS6_EJEEESt21piecewise_construct_tSt5tupleIJDpT_EESG_IJDpT0_EE
FN:1636,_ZNSt4pairIKNSt7__cxx1112basic_stringIcSt11char_traitsIcESaIcEEEPN4Poco20AbstractInstantiatorINS7_7ChannelEEEEC2IJRS6_EJEEESt21piecewise_construct_tSt5tupleIJDpT_EESG_IJDpT0_EE
FN:1648,_ZNSt4pairIKNSt7__cxx1112basic_stringIcSt11char_traitsIcESaIcEEEPN4Poco20AbstractInstantiatorINS7_7ChannelEEEEC2IJRS6_EJLm0EEJEJEEERSt5tupleIJDpT_EERSF_IJDpT1_EESt12_Index_tupleIJXspT0_EEESO_IJXspT2_EEE
FN:1648,_ZNSt4pairIKNSt7__cxx1112basic_stringIcSt11char_traitsIcESaIcEEEPN4Poco20AbstractInstantiatorINS7_9FormatterEEEEC2IJRS6_EJLm0EEJEJEEERSt5tupleIJDpT_EERSF_IJDpT1_EESt12_Index_tupleIJXspT0_EEESO_IJXspT2_EEE
FNDA:0,_ZNSt10_Head_baseILm1ESt14default_deleteIN4Poco20AbstractInstantiatorINS1_9FormatterEEEELb1EEC2Ev
FNDA:0,_ZNSt10_Head_baseILm1ESt14default_deleteIN4Poco20AbstractInstantiatorINS1_7ChannelEEEELb1EEC2Ev
FNDA:0,_ZNSt10_Head_baseILm1ESt14default_deleteIN4Poco20AbstractInstantiatorINS1_9FormatterEEEELb1EE7_M_headERS6_
FNDA:0,_ZNSt10_Head_baseILm1ESt14default_deleteIN4Poco20AbstractInstantiatorINS1_7ChannelEEEELb1EE7_M_headERS6_
FNDA:0,_ZNSt10_Head_baseILm0EPN4Poco20AbstractInstantiatorINS0_9FormatterEEELb0EEC2Ev
FNDA:0,_ZNSt10_Head_baseILm0EPN4Poco20AbstractInstantiatorINS0_7ChannelEEELb0EEC2Ev
FNDA:0,_ZNSt10_Head_baseILm0ERKNSt7__cxx1112basic_stringIcSt11char_traitsIcESaIcEEELb0EEC2ES7_
FNDA:0,_ZNSt10_Head_baseILm0ERKNSt7__cxx1112basic_stringIcSt11char_traitsIcESaIcEEELb0EE7_M_headERS8_
FNDA:0,_ZNSt10_Head_baseILm0EPN4Poco20AbstractInstantiatorINS0_9FormatterEEELb0EE7_M_headERS5_
FNDA:0,_ZNSt10_Head_baseILm0EPN4Poco20AbstractInstantiatorINS0_7ChannelEEELb0EE7_M_headERS5_
FNDA:0,_ZNSt10_Head_baseILm0EPN4Poco20AbstractInstantiatorINS0_9FormatterEEELb0EE7_M_headERKS5_
FNDA:0,_ZNSt10_Head_baseILm0EPN4Poco20AbstractInstantiatorINS0_7ChannelEEELb0EE7_M_headERKS5_
FNDA:0,_ZNSt11_Tuple_implILm0EJPN4Poco20AbstractInstantiatorINS0_9FormatterEEESt14default_deleteIS3_EEE7_M_headERS7_
FNDA:0,_ZNSt11_Tuple_implILm0EJPN4Poco20AbstractInstantiatorINS0_7ChannelEEESt14default_deleteIS3_EEE7_M_headERS7_
FNDA:0,_ZNSt11_Tuple_implILm0EJPN4Poco20AbstractInstantiatorINS0_9FormatterEEESt14default_deleteIS3_EEE7_M_headERKS7_
FNDA:0,_ZNSt11_Tuple_implILm0EJPN4Poco20AbstractInstantiatorINS0_7ChannelEEESt14default_deleteIS3_EEE7_M_headERKS7_
FNDA:0,_ZNSt11_Tuple_implILm0EJPN4Poco20AbstractInstantiatorINS0_9FormatterEEESt14default_deleteIS3_EEEC2Ev
FNDA:0,_ZNSt11_Tuple_implILm0EJPN4Poco20AbstractInstantiatorINS0_7ChannelEEESt14default_deleteIS3_EEEC2Ev
FNDA:0,_ZNSt11_Tuple_implILm0EJRKNSt7__cxx1112basic_stringIcSt11char_traitsIcESaIcEEEEE7_M_headERS8_
FNDA:0,_ZNSt11_Tuple_implILm1EJSt14default_deleteIN4Poco20AbstractInstantiatorINS1_9FormatterEEEEEE7_M_headERS6_
FNDA:0,_ZNSt11_Tuple_implILm1EJSt14default_deleteIN4Poco20AbstractInstantiatorINS1_7ChannelEEEEEE7_M_headERS6_
FNDA:0,_ZNSt11_Tuple_implILm1EJSt14default_deleteIN4Poco20AbstractInstantiatorINS1_9FormatterEEEEEEC2Ev
FNDA:0,_ZNSt11_Tuple_implILm1EJSt14default_deleteIN4Poco20AbstractInstantiatorINS1_7ChannelEEEEEEC2Ev
FNDA:0,_ZNSt11_Tuple_implILm0EJRKNSt7__cxx1112basic_stringIcSt11char_traitsIcESaIcEEEEEC2ES7_
FNDA:0,_ZNSt11_Tuple_implILm0EJRKNSt7__cxx1112basic_stringIcSt11char_traitsIcESaIcEEEEEC2EOS8_
FNDA:0,_ZNSt5tupleIJRKNSt7__cxx1112basic_stringIcSt11char_traitsIcESaIcEEEEEC2IvLb1EEES7_
FNDA:0,_ZNSt5tupleIJRKNSt7__cxx1112basic_stringIcSt11char_traitsIcESaIcEEEEEC2EOS8_
FNDA:0,_ZNSt5tupleIJPN4Poco20AbstractInstantiatorINS0_9FormatterEEESt14default_deleteIS3_EEEC2IS4_S6_Lb1EEEv
FNDA:0,_ZNSt5tupleIJPN4Poco20AbstractInstantiatorINS0_7ChannelEEESt14default_deleteIS3_EEEC2IS4_S6_Lb1EEEv
FNDA:0,_ZSt12__get_helperILm0ERKNSt7__cxx1112basic_stringIcSt11char_traitsIcESaIcEEEJEERT0_RSt11_Tuple_implIXT_EJS8_DpT1_EE
FNDA:0,_ZSt12__get_helperILm1ESt14default_deleteIN4Poco20AbstractInstantiatorINS1_9FormatterEEEEJEERT0_RSt11_Tuple_implIXT_EJS6_DpT1_EE
FNDA:0,_ZSt12__get_helperILm1ESt14default_deleteIN4Poco20AbstractInstantiatorINS1_7ChannelEEEEJEERT0_RSt11_Tuple_implIXT_EJS6_DpT1_EE
FNDA:0,_ZSt12__get_helperILm0EPN4Poco20AbstractInstantiatorINS0_9FormatterEEEJSt14default_deleteIS3_EEERT0_RSt11_Tuple_implIXT_EJS7_DpT1_EE
FNDA:0,_ZSt12__get_helperILm0EPN4Poco20AbstractInstantiatorINS0_7ChannelEEEJSt14default_deleteIS3_EEERT0_RSt11_Tuple_implIXT_EJS7_DpT1_EE
FNDA:0,_ZSt12__get_helperILm0EPN4Poco20AbstractInstantiatorINS0_9FormatterEEEJSt14default_deleteIS3_EEERKT0_RKSt11_Tuple_implIXT_EJS7_DpT1_EE
FNDA:0,_ZSt12__get_helperILm0EPN4Poco20AbstractInstantiatorINS0_7ChannelEEEJSt14default_deleteIS3_EEERKT0_RKSt11_Tuple_implIXT_EJS7_DpT1_EE
FNDA:0,_ZSt3getILm0EJRKNSt7__cxx1112basic_stringIcSt11char_traitsIcESaIcEEEEERNSt13tuple_elementIXT_ESt5tupleIJDpT0_EEE4typeERSC_
FNDA:0,_ZSt3getILm1EJPN4Poco20AbstractInstantiatorINS0_9FormatterEEESt14default_deleteIS3_EEERNSt13tuple_elementIXT_ESt5tupleIJDpT0_EEE4typeERSB_
FNDA:0,_ZSt3getILm1EJPN4Poco20AbstractInstantiatorINS0_7ChannelEEESt14default_deleteIS3_EEERNSt13tuple_elementIXT_ESt5tupleIJDpT0_EEE4typeERSB_
FNDA:0,_ZSt3getILm0EJPN4Poco20AbstractInstantiatorINS0_9FormatterEEESt14default_deleteIS3_EEERNSt13tuple_elementIXT_ESt5tupleIJDpT0_EEE4typeERSB_
FNDA:0,_ZSt3getILm0EJPN4Poco20AbstractInstantiatorINS0_7ChannelEEESt14default_deleteIS3_EEERNSt13tuple_elementIXT_ESt5tupleIJDpT0_EEE4typeERSB_
FNDA:0,_ZSt3getILm0EJPN4Poco20AbstractInstantiatorINS0_9FormatterEEESt14default_deleteIS3_EEERKNSt13tuple_elementIXT_ESt5tupleIJDpT0_EEE4typeERKSB_
FNDA:0,_ZSt3getILm0EJPN4Poco20AbstractInstantiatorINS0_7ChannelEEESt14default_deleteIS3_EEERKNSt13tuple_elementIXT_ESt5tupleIJDpT0_EEE4typeERKSB_
FNDA:0,_ZNSt4pairIKNSt7__cxx1112basic_stringIcSt11char_traitsIcESaIcEEEPN4Poco20AbstractInstantiatorINS7_9FormatterEEEEC2IJRS6_EJEEESt21piecewise_construct_tSt5tupleIJDpT_EESG_IJDpT0_EE
FNDA:0,_ZNSt4pairIKNSt7__cxx1112basic_stringIcSt11char_traitsIcESaIcEEEPN4Poco20AbstractInstantiatorINS7_7ChannelEEEEC2IJRS6_EJEEESt21piecewise_construct_tSt5tupleIJDpT_EESG_IJDpT0_EE
FNDA:0,_ZNSt4pairIKNSt7__cxx1112basic_stringIcSt11char_traitsIcESaIcEEEPN4Poco20AbstractInstantiatorINS7_9FormatterEEEEC2IJRS6_EJLm0EEJEJEEERSt5tupleIJDpT_EERSF_IJDpT1_EESt12_Index_tupleIJXspT0_EEESO_IJXspT2_EEE
FNDA:0,_ZNSt4pairIKNSt7__cxx1112basic_stringIcSt11char_traitsIcESaIcEEEPN4Poco20AbstractInstantiatorINS7_7ChannelEEEEC2IJRS6_EJLm0EEJEJEEERSt5tupleIJDpT_EERSF_IJDpT1_EESt12_Index_tupleIJXspT0_EEESO_IJXspT2_EEE
FNF:47
FNH:0
DA:76,0
DA:77,0
DA:113,0
DA:122,0
DA:123,0
DA:125,0
DA:126,0
DA:160,0
DA:163,0
DA:195,0
DA:198,0
DA:206,0
DA:207,0
DA:351,0
DA:356,0
DA:357,0
DA:360,0
DA:361,0
DA:371,0
DA:373,0
DA:608,0
DA:609,0
DA:662,0
DA:919,0
DA:920,0
DA:1303,0
DA:1304,0
DA:1308,0
DA:1309,0
DA:1314,0
DA:1315,0
DA:1320,0
DA:1321,0
DA:1636,0
DA:1641,0
DA:1642,0
DA:1648,0
DA:1651,0
DA:1652,0
DA:1653,0
LF:40
LH:0
end_of_record
TN:
SF:/home/vera/poco/Foundation/include/Poco/Ascii.h
FN:127,_ZN4Poco5Ascii10propertiesEi
FN:136,_ZN4Poco5Ascii7isAsciiEi
FN:142,_ZN4Poco5Ascii13hasPropertiesEii
FN:196,_ZN4Poco5Ascii7isUpperEi
FN:208,_ZN4Poco5Ascii7toLowerEi
FNDA:0,_ZN4Poco5Ascii10propertiesEi
FNDA:0,_ZN4Poco5Ascii7isAsciiEi
FNDA:0,_ZN4Poco5Ascii13hasPropertiesEii
FNDA:0,_ZN4Poco5Ascii7isUpperEi
FNDA:0,_ZN4Poco5Ascii7toLowerEi
FNF:5
FNH:0
DA:127,0
DA:129,0
DA:130,0
DA:132,0
DA:136,0
DA:138,0
DA:142,0
DA:144,0
DA:196,0
DA:198,0
DA:208,0
DA:210,0
DA:211,0
DA:213,0
LF:14
LH:0
end_of_record
SF:/home/vera/poco/Foundation/include/Poco/NumberFormatter.h
FN:583,_ZN4Poco15NumberFormatter9formatHexB5cxx11Ejib
FNDA:0,_ZN4Poco15NumberFormatter9formatHexB5cxx11Ejib
FNF:1
FNH:0
DA:583,0
DA:585,0
DA:586,0
DA:587,0
LF:4
LH:0
end_of_record
SF:/home/vera/poco/Foundation/include/Poco/NumericString.h
FN:312,_ZN4Poco4Impl3PtrC2EPcm
FN:322,_ZN4Poco4Impl3PtrppEi
FN:335,_ZN4Poco4Impl3PtrmmEi
FN:354,_ZNK4Poco4Impl3PtrcvPcEv
FN:359,_ZNK4Poco4Impl3Ptr4spanEv
FN:365,_ZN4Poco4Impl3Ptr11checkBoundsEPc
FN:457,_ZN4Poco9uIntToStrIjEEbT_tPcRmbicc
FN:545,_ZN4Poco9uIntToStrIjEEbT_tRNSt7__cxx1112basic_stringIcSt11char_traitsIcESaIcEEEbicc
FNDA:0,_ZN4Poco4Impl3PtrC2EPcm
FNDA:0,_ZN4Poco4Impl3PtrppEi
FNDA:0,_ZN4Poco4Impl3PtrmmEi
FNDA:0,_ZNK4Poco4Impl3PtrcvPcEv
FNDA:0,_ZNK4Poco4Impl3Ptr4spanEv
FNDA:0,_ZN4Poco4Impl3Ptr11checkBoundsEPc
FNDA:0,_ZN4Poco9uIntToStrIjEEbT_tPcRmbicc
FNDA:0,_ZN4Poco9uIntToStrIjEEbT_tRNSt7__cxx1112basic_stringIcSt11char_traitsIcESaIcEEEbicc
FNF:8
FNH:0
DA:312,0
DA:314,0
DA:322,0
DA:324,0
DA:325,0
DA:326,0
DA:335,0
DA:337,0
DA:338,0
DA:339,0
DA:354,0
DA:356,0
DA:359,0
DA:361,0
DA:365,0
DA:367,0
DA:368,0
DA:457,0
DA:473,0
DA:475,0
DA:476,0
DA:479,0
DA:480,0
DA:482,0
DA:484,0
DA:485,0
DA:486,0
DA:487,0
DA:489,0
DA:490,0
DA:494,0
DA:496,0
DA:497,0
DA:498,0
DA:501,0
DA:502,0
DA:504,0
DA:505,0
DA:508,0
DA:510,0
DA:513,0
DA:514,0
DA:515,0
DA:516,0
DA:518,0
DA:520,0
DA:522,0
DA:523,0
DA:524,0
DA:527,0
DA:545,0
DA:549,0
DA:550,0
DA:551,0
DA:552,0
DA:553,0
LF:56
LH:0
end_of_record
SF:/home/vera/poco/Foundation/include/Poco/String.h
FN:156,_ZN4Poco14toLowerInPlaceINSt7__cxx1112basic_stringIcSt11char_traitsIcESaIcEEEEERT_S8_
FNDA:21,_ZN4Poco14toLowerInPlaceINSt7__cxx1112basic_stringIcSt11char_traitsIcESaIcEEEEERT_S8_
FNF:1
FNH:1
DA:156,21
DA:159,21
DA:160,21
DA:162,186
DA:163,21
LF:5
LH:5
end_of_record
SF:/home/vera/poco/Foundation/src/URI.cpp
FN:33,_ZN4Poco3URIC2Ev
FN:39,_ZN4Poco3URIC2ERKNSt7__cxx1112basic_stringIcSt11char_traitsIcESaIcEEE
FN:46,_ZN4Poco3URIC2EPKc
FN:53,_ZN4Poco3URIC2ERKNSt7__cxx1112basic_stringIcSt11char_traitsIcESaIcEEES8_
FN:64,_ZN4Poco3URIC2ERKNSt7__cxx1112basic_stringIcSt11char_traitsIcESaIcEEES8_S8_
FN:77,_ZN4Poco3URIC2ERKNSt7__cxx1112basic_stringIcSt11char_traitsIcESaIcEEES8_S8_S8_
FN:89,_ZN4Poco3URIC2ERKNSt7__cxx1112basic_stringIcSt11char_traitsIcESaIcEEES8_S8_S8_S8_
FN:102,_ZN4Poco3URIC2ERKS0_
FN:114,_ZN4Poco3URIC2EOS0_
FN:126,_ZN4Poco3URIC2ERKS0_RKNSt7__cxx1112basic_stringIcSt11char_traitsIcESaIcEEE
FN:139,_ZN4Poco3URIC2ERKNS_4PathE
FN:149,_ZN4Poco3URID2Ev
FN:154,_ZN4Poco3URIaSERKS0_
FN:170,_ZN4Poco3URIaSEOS0_
FN:184,_ZN4Poco3URIaSERKNSt7__cxx1112basic_stringIcSt11char_traitsIcESaIcEEE
FN:192,_ZN4Poco3URIaSEPKc
FN:200,_ZN4Poco3URI4swapERS0_
FN:212,_ZN4Poco3URI5clearEv
FN:224,_ZNK4Poco3URI8toStringB5cxx11Ev
FN:266,_ZN4Poco3URI9setSchemeERKNSt7__cxx1112basic_stringIcSt11char_traitsIcESaIcEEE
FN:273,_ZN4Poco3URI11setUserInfoERKNSt7__cxx1112basic_stringIcSt11char_traitsIcESaIcEEE
FN:280,_ZN4Poco3URI7setHostERKNSt7__cxx1112basic_stringIcSt11char_traitsIcESaIcEEE
FN:286,_ZNK4Poco3URI7getPortEv
FN:295,_ZN4Poco3URI7setPortEt
FN:301,_ZNK4Poco3URI12getAuthorityB5cxx11Ev
FN:325,_ZN4Poco3URI12setAuthorityERKNSt7__cxx1112basic_stringIcSt11char_traitsIcESaIcEEE
FN:336,_ZN4Poco3URI7setPathERKNSt7__cxx1112basic_stringIcSt11char_traitsIcESaIcEEE
FN:343,_ZN4Poco3URI11setRawQueryERKNSt7__cxx1112basic_stringIcSt11char_traitsIcESaIcEEE
FN:349,_ZN4Poco3URI8setQueryERKNSt7__cxx1112basic_stringIcSt11char_traitsIcESaIcEEE
FN:356,_ZN4Poco3URI17addQueryParameterERKNSt7__cxx1112basic_stringIcSt11char_traitsIcESaIcEEES8_
FN:365,_ZNK4Poco3URI8getQueryB5cxx11Ev
FN:373,_ZNK4Poco3URI18getQueryParametersB5cxx11Ev
FN:413,_ZN4Poco3URI18setQueryParametersERKSt6vectorISt4pairINSt7__cxx1112basic_stringIcSt11char_traitsIcESaIcEEES8_ESaIS9_EE
FN:423,_ZN4Poco3URI11setFragmentERKNSt7__cxx1112basic_stringIcSt11char_traitsIcESaIcEEE
FN:430,_ZN4Poco3URI10setPathEtcERKNSt7__cxx1112basic_stringIcSt11char_traitsIcESaIcEEE
FN:441,_ZNK4Poco3URI10getPathEtcB5cxx11Ev
FN:459,_ZNK4Poco3URI15getPathAndQueryB5cxx11Ev
FN:472,_ZN4Poco3URI7resolveERKNSt7__cxx1112basic_stringIcSt11char_traitsIcESaIcEEE
FN:479,_ZN4Poco3URI7resolveERKS0_
FN:528,_ZNK4Poco3URI10isRelativeEv
FN:534,_ZNK4Poco3URI5emptyEv
FN:540,_ZNK4Poco3URIeqERKS0_
FN:546,_ZNK4Poco3URIeqERKNSt7__cxx1112basic_stringIcSt11char_traitsIcESaIcEEE
FN:553,_ZNK4Poco3URIneERKS0_
FN:559,_ZNK4Poco3URIneERKNSt7__cxx1112basic_stringIcSt11char_traitsIcESaIcEEE
FN:566,_ZNK4Poco3URI6equalsERKS0_
FN:578,_ZN4Poco3URI9normalizeEv
FN:584,_ZN4Poco3URI17removeDotSegmentsEb
FN:618,_ZN4Poco3URI15getPathSegmentsERSt6vectorINSt7__cxx1112basic_stringIcSt11char_traitsIcESaIcEEESaIS7_EE
FN:624,_ZN4Poco3URI15getPathSegmentsERKNSt7__cxx1112basic_stringIcSt11char_traitsIcESaIcEEERSt6vectorIS6_SaIS6_EE
FN:647,_ZN4Poco3URI6encodeERKNSt7__cxx1112basic_stringIcSt11char_traitsIcESaIcEEES8_RS6_
FN:669,_ZN4Poco3URI6decodeERKNSt7__cxx1112basic_stringIcSt11char_traitsIcESaIcEEERS6_b
FN:707,_ZNK4Poco3URI15isWellKnownPortEv
FN:713,_ZNK4Poco3URI16getWellKnownPortEv
FN:756,_ZN4Poco3URI5parseERKNSt7__cxx1112basic_stringIcSt11char_traitsIcESaIcEEE
FN:792,_ZN4Poco3URI14parseAuthorityERN9__gnu_cxx17__normal_iteratorIPKcNSt7__cxx1112basic_stringIcSt11char_traitsIcESaIcEEEEERKSB_
FN:813,_ZN4Poco3URI16parseHostAndPortERN9__gnu_cxx17__normal_iteratorIPKcNSt7__cxx1112basic_stringIcSt11char_traitsIcESaIcEEEEERKSB_
FN:850,_ZN4Poco3URI9parsePathERN9__gnu_cxx17__normal_iteratorIPKcNSt7__cxx1112basic_stringIcSt11char_traitsIcESaIcEEEEERKSB_
FN:858,_ZN4Poco3URI12parsePathEtcERN9__gnu_cxx17__normal_iteratorIPKcNSt7__cxx1112basic_stringIcSt11char_traitsIcESaIcEEEEERKSB_
FN:876,_ZN4Poco3URI10parseQueryERN9__gnu_cxx17__normal_iteratorIPKcNSt7__cxx1112basic_stringIcSt11char_traitsIcESaIcEEEEERKSB_
FN:883,_ZN4Poco3URI13parseFragmentERN9__gnu_cxx17__normal_iteratorIPKcNSt7__cxx1112basic_stringIcSt11char_traitsIcESaIcEEEEERKSB_
FN:891,_ZN4Poco3URI9mergePathERKNSt7__cxx1112basic_stringIcSt11char_traitsIcESaIcEEE
FN:927,_ZN4Poco3URI9buildPathERKSt6vectorINSt7__cxx1112basic_stringIcSt11char_traitsIcESaIcEEESaIS7_EEbb
FN:949,_Z41__static_initialization_and_destruction_0ii
FN:949,_GLOBAL__sub_I_URI.cpp
FNDA:0,_ZN4Poco3URIC2Ev
FNDA:15,_ZN4Poco3URIC2ERKNSt7__cxx1112basic_stringIcSt11char_traitsIcESaIcEEE
FNDA:0,_ZN4Poco3URIC2EPKc
FNDA:0,_ZN4Poco3URIC2ERKNSt7__cxx1112basic_stringIcSt11char_traitsIcESaIcEEES8_
FNDA:0,_ZN4Poco3URIC2ERKNSt7__cxx1112basic_stringIcSt11char_traitsIcESaIcEEES8_S8_
FNDA:0,_ZN4Poco3URIC2ERKNSt7__cxx1112basic_stringIcSt11char_traitsIcESaIcEEES8_S8_S8_
FNDA:0,_ZN4Poco3URIC2ERKNSt7__cxx1112basic_stringIcSt11char_traitsIcESaIcEEES8_S8_S8_S8_
FNDA:0,_ZN4Poco3URIC2ERKS0_
FNDA:0,_ZN4Poco3URIC2EOS0_
FNDA:0,_ZN4Poco3URIC2ERKS0_RKNSt7__cxx1112basic_stringIcSt11char_traitsIcESaIcEEE
FNDA:0,_ZN4Poco3URIC2ERKNS_4PathE
FNDA:15,_ZN4Poco3URID2Ev
FNDA:0,_ZN4Poco3URIaSERKS0_
FNDA:0,_ZN4Poco3URIaSEOS0_
FNDA:0,_ZN4Poco3URIaSERKNSt7__cxx1112basic_stringIcSt11char_traitsIcESaIcEEE
FNDA:0,_ZN4Poco3URIaSEPKc
FNDA:0,_ZN4Poco3URI4swapERS0_
FNDA:0,_ZN4Poco3URI5clearEv
FNDA:0,_ZNK4Poco3URI8toStringB5cxx11Ev
FNDA:12,_ZN4Poco3URI9setSchemeERKNSt7__cxx1112basic_stringIcSt11char_traitsIcESaIcEEE
FNDA:0,_ZN4Poco3URI11setUserInfoERKNSt7__cxx1112basic_stringIcSt11char_traitsIcESaIcEEE
FNDA:0,_ZN4Poco3URI7setHostERKNSt7__cxx1112basic_stringIcSt11char_traitsIcESaIcEEE
FNDA:0,_ZNK4Poco3URI7getPortEv
FNDA:0,_ZN4Poco3URI7setPortEt
FNDA:0,_ZNK4Poco3URI12getAuthorityB5cxx11Ev
FNDA:0,_ZN4Poco3URI12setAuthorityERKNSt7__cxx1112basic_stringIcSt11char_traitsIcESaIcEEE
FNDA:0,_ZN4Poco3URI7setPathERKNSt7__cxx1112basic_stringIcSt11char_traitsIcESaIcEEE
FNDA:0,_ZN4Poco3URI11setRawQueryERKNSt7__cxx1112basic_stringIcSt11char_traitsIcESaIcEEE
FNDA:0,_ZN4Poco3URI8setQueryERKNSt7__cxx1112basic_stringIcSt11char_traitsIcESaIcEEE
FNDA:0,_ZN4Poco3URI17addQueryParameterERKNSt7__cxx1112basic_stringIcSt11char_traitsIcESaIcEEES8_
FNDA:0,_ZNK4Poco3URI8getQueryB5cxx11Ev
FNDA:0,_ZNK4Poco3URI18getQueryParametersB5cxx11Ev
FNDA:0,_ZN4Poco3URI18setQueryParametersERKSt6vectorISt4pairINSt7__cxx1112basic_stringIcSt11char_traitsIcESaIcEEES8_ESaIS9_EE
FNDA:0,_ZN4Poco3URI11setFragmentERKNSt7__cxx1112basic_stringIcSt11char_traitsIcESaIcEEE
FNDA:0,_ZN4Poco3URI10setPathEtcERKNSt7__cxx1112basic_stringIcSt11char_traitsIcESaIcEEE
FNDA:0,_ZNK4Poco3URI10getPathEtcB5cxx11Ev
FNDA:0,_ZNK4Poco3URI15getPathAndQueryB5cxx11Ev
FNDA:0,_ZN4Poco3URI7resolveERKNSt7__cxx1112basic_stringIcSt11char_traitsIcESaIcEEE
FNDA:0,_ZN4Poco3URI7resolveERKS0_
FNDA:0,_ZNK4Poco3URI10isRelativeEv
FNDA:0,_ZNK4Poco3URI5emptyEv
FNDA:0,_ZNK4Poco3URIeqERKS0_
FNDA:0,_ZNK4Poco3URIeqERKNSt7__cxx1112basic_stringIcSt11char_traitsIcESaIcEEE
FNDA:0,_ZNK4Poco3URIneERKS0_
FNDA:0,_ZNK4Poco3URIneERKNSt7__cxx1112basic_stringIcSt11char_traitsIcESaIcEEE
FNDA:0,_ZNK4Poco3URI6equalsERKS0_
FNDA:0,_ZN4Poco3URI9normalizeEv
FNDA:0,_ZN4Poco3URI17removeDotSegmentsEb
FNDA:0,_ZN4Poco3URI15getPathSegmentsERSt6vectorINSt7__cxx1112basic_stringIcSt11char_traitsIcESaIcEEESaIS7_EE
FNDA:0,_ZN4Poco3URI15getPathSegmentsERKNSt7__cxx1112basic_stringIcSt11char_traitsIcESaIcEEERSt6vectorIS6_SaIS6_EE
FNDA:0,_ZN4Poco3URI6encodeERKNSt7__cxx1112basic_stringIcSt11char_traitsIcESaIcEEES8_RS6_
FNDA:13,_ZN4Poco3URI6decodeERKNSt7__cxx1112basic_stringIcSt11char_traitsIcESaIcEEERS6_b
FNDA:0,_ZNK4Poco3URI15isWellKnownPortEv
FNDA:0,_ZNK4Poco3URI16getWellKnownPortEv
FNDA:15,_ZN4Poco3URI5parseERKNSt7__cxx1112basic_stringIcSt11char_traitsIcESaIcEEE
FNDA:10,_ZN4Poco3URI14parseAuthorityERN9__gnu_cxx17__normal_iteratorIPKcNSt7__cxx1112basic_stringIcSt11char_traitsIcESaIcEEEEERKSB_
FNDA:10,_ZN4Poco3URI16parseHostAndPortERN9__gnu_cxx17__normal_iteratorIPKcNSt7__cxx1112basic_stringIcSt11char_traitsIcESaIcEEEEERKSB_
FNDA:12,_ZN4Poco3URI9parsePathERN9__gnu_cxx17__normal_iteratorIPKcNSt7__cxx1112basic_stringIcSt11char_traitsIcESaIcEEEEERKSB_
FNDA:15,_ZN4Poco3URI12parsePathEtcERN9__gnu_cxx17__normal_iteratorIPKcNSt7__cxx1112basic_stringIcSt11char_traitsIcESaIcEEEEERKSB_
FNDA:3,_ZN4Poco3URI10parseQueryERN9__gnu_cxx17__normal_iteratorIPKcNSt7__cxx1112basic_stringIcSt11char_traitsIcESaIcEEEEERKSB_
FNDA:1,_ZN4Poco3URI13parseFragmentERN9__gnu_cxx17__normal_iteratorIPKcNSt7__cxx1112basic_stringIcSt11char_traitsIcESaIcEEEEERKSB_
FNDA:0,_ZN4Poco3URI9mergePathERKNSt7__cxx1112basic_stringIcSt11char_traitsIcESaIcEEE
FNDA:0,_ZN4Poco3URI9buildPathERKSt6vectorINSt7__cxx1112basic_stringIcSt11char_traitsIcESaIcEEESaIS7_EEbb
FNDA:1,_GLOBAL__sub_I_URI.cpp
FNDA:1,_Z41__static_initialization_and_destruction_0ii
FNF:65
FNH:13
DA:26,1
DA:27,1
DA:28,1
DA:29,1
DA:30,1
DA:33,0
DA:34,0
DA:36,0
DA:39,15
DA:40,15
DA:42,15
DA:43,15
DA:46,0
DA:47,0
DA:49,0
DA:50,0
DA:53,0
DA:55,0
DA:57,0
DA:58,0
DA:59,0
DA:60,0
DA:61,0
DA:64,0
DA:65,0
DA:67,0
DA:68,0
DA:69,0
DA:70,0
DA:71,0
DA:72,0
DA:73,0
DA:74,0
DA:77,0
DA:80,0
DA:82,0
DA:83,0
DA:84,0
DA:85,0
DA:86,0
DA:89,0
DA:93,0
DA:95,0
DA:96,0
DA:97,0
DA:98,0
DA:99,0
DA:102,0
DA:106,0
DA:109,0
DA:111,0
DA:114,0
DA:115,0
DA:116,0
DA:117,0
DA:118,0
DA:119,0
DA:120,0
DA:121,0
DA:123,0
DA:126,0
DA:130,0
DA:133,0
DA:135,0
DA:136,0
DA:139,0
DA:141,0
DA:143,0
DA:144,0
DA:145,0
DA:146,0
DA:149,15
DA:151,15
DA:154,0
DA:156,0
DA:158,0
DA:159,0
DA:160,0
DA:161,0
DA:162,0
DA:163,0
DA:164,0
DA:166,0
DA:170,0
DA:172,0
DA:173,0
DA:174,0
DA:175,0
DA:176,0
DA:177,0
DA:178,0
DA:180,0
DA:184,0
DA:186,0
DA:187,0
DA:188,0
DA:192,0
DA:194,0
DA:195,0
DA:196,0
DA:200,0
DA:202,0
DA:203,0
DA:204,0
DA:205,0
DA:206,0
DA:207,0
DA:208,0
DA:209,0
DA:212,0
DA:214,0
DA:215,0
DA:216,0
DA:217,0
DA:218,0
DA:219,0
DA:220,0
DA:221,0
DA:224,0
DA:226,0
DA:227,0
DA:229,0
DA:233,0
DA:234,0
DA:235,0
DA:236,0
DA:238,0
DA:239,0
DA:241,0
DA:243,0
DA:244,0
DA:245,0
DA:247,0
DA:249,0
DA:252,0
DA:254,0
DA:255,0
DA:257,0
DA:259,0
DA:260,0
DA:262,0
DA:266,12
DA:268,12
DA:269,12
DA:270,12
DA:273,0
DA:275,0
DA:276,0
DA:277,0
DA:280,0
DA:282,0
DA:283,0
DA:286,0
DA:288,0
DA:289,0
DA:291,0
DA:295,0
DA:297,0
DA:298,0
DA:301,0
DA:303,0
DA:304,0
DA:306,0
DA:307,0
DA:309,0
DA:311,0
DA:312,0
DA:313,0
DA:315,0
DA:316,0
DA:318,0
DA:319,0
DA:321,0
DA:325,0
DA:327,0
DA:328,0
DA:329,0
DA:330,0
DA:331,0
DA:332,0
DA:333,0
DA:336,0
DA:338,0
DA:339,0
DA:340,0
DA:343,0
DA:345,0
DA:346,0
DA:349,0
DA:351,0
DA:352,0
DA:353,0
DA:356,0
DA:358,0
DA:359,0
DA:360,0
DA:361,0
DA:362,0
DA:365,0
DA:367,0
DA:368,0
DA:369,0
DA:373,0
DA:375,0
DA:376,0
DA:377,0
DA:378,0
DA:380,0
DA:381,0
DA:382,0
DA:384,0
DA:385,0
DA:387,0
DA:388,0
DA:390,0
DA:392,0
DA:393,0
DA:395,0
DA:396,0
DA:398,0
DA:399,0
DA:402,0
DA:403,0
DA:404,0
DA:405,0
DA:406,0
DA:407,0
DA:409,0
DA:413,0
DA:415,0
DA:416,0
DA:418,0
DA:420,0
DA:423,0
DA:425,0
DA:426,0
DA:427,0
DA:430,0
DA:432,0
DA:433,0
DA:434,0
DA:435,0
DA:436,0
DA:437,0
DA:438,0
DA:441,0
DA:443,0
DA:444,0
DA:445,0
DA:447,0
DA:448,0
DA:450,0
DA:452,0
DA:453,0
DA:455,0
DA:459,0
DA:461,0
DA:462,0
DA:463,0
DA:465,0
DA:466,0
DA:468,0
DA:472,0
DA:474,0
DA:475,0
DA:476,0
DA:479,0
DA:481,0
DA:483,0
DA:484,0
DA:485,0
DA:486,0
DA:487,0
DA:488,0
DA:489,0
DA:493,0
DA:495,0
DA:496,0
DA:497,0
DA:498,0
DA:499,0
DA:500,0
DA:504,0
DA:506,0
DA:507,0
DA:511,0
DA:513,0
DA:514,0
DA:518,0
DA:520,0
DA:524,0
DA:525,0
DA:528,0
DA:530,0
DA:534,0
DA:536,0
DA:540,0
DA:542,0
DA:546,0
DA:548,0
DA:549,0
DA:553,0
DA:555,0
DA:559,0
DA:561,0
DA:562,0
DA:566,0
DA:568,0
DA:569,0
DA:570,0
DA:571,0
DA:572,0
DA:573,0
DA:574,0
DA:578,0
DA:580,0
DA:581,0
DA:584,0
DA:586,0
DA:588,0
DA:589,0
DA:590,0
DA:591,0
DA:592,0
DA:593,0
DA:595,0
DA:597,0
DA:599,0
DA:600,0
DA:602,0
DA:604,0
DA:606,0
DA:609,0
DA:611,0
DA:614,0
DA:618,0
DA:620,0
DA:621,0
DA:624,0
DA:626,0
DA:627,0
DA:628,0
DA:629,0
DA:631,0
DA:633,0
DA:635,0
DA:636,0
DA:639,0
DA:640,0
DA:642,0
DA:643,0
DA:644,0
DA:647,0
DA:649,0
DA:651,0
DA:652,0
DA:653,0
DA:654,0
DA:655,0
DA:657,0
DA:659,0
DA:661,0
DA:662,0
DA:664,0
DA:666,0
DA:669,13
DA:671,13
DA:672,13
DA:673,13
DA:674,529
DA:676,258
DA:677,258
DA:679,258
DA:680,258
DA:682,25
DA:683,25
DA:684,25
DA:685,25
DA:686,25
DA:687,16
DA:688,9
DA:689,0
DA:690,9
DA:691,9
DA:692,0
DA:693,25
DA:694,25
DA:695,12
DA:696,13
DA:697,0
DA:698,13
DA:699,13
DA:700,0
DA:702,258
DA:704,13
DA:707,0
DA:709,0
DA:713,0
DA:715,0
DA:716,0
DA:717,0
DA:718,0
DA:719,0
DA:720,0
DA:721,0
DA:722,0
DA:723,0
DA:724,0
DA:725,0
DA:726,0
DA:727,0
DA:728,0
DA:729,0
DA:730,0
DA:731,0
DA:732,0
DA:733,0
DA:734,0
DA:735,0
DA:736,0
DA:737,0
DA:738,0
DA:739,0
DA:740,0
DA:741,0
DA:742,0
DA:743,0
DA:744,0
DA:745,0
DA:746,0
DA:747,0
DA:748,0
DA:749,0
DA:750,0
DA:752,0
DA:756,15
DA:758,15
DA:759,15
DA:760,15
DA:761,15
DA:763,24
DA:764,48
DA:765,12
DA:767,12
DA:768,12
DA:769,12
DA:770,12
DA:772,11
DA:773,11
DA:775,10
DA:776,10
DA:778,1
DA:780,12
DA:784,0
DA:785,0
DA:788,3
DA:792,10
DA:794,20
DA:795,20
DA:796,338
DA:798,164
DA:800,3
DA:801,3
DA:803,161
DA:804,164
DA:806,10
DA:807,10
DA:808,10
DA:809,10
DA:810,10
DA:813,10
DA:815,10
DA:816,18
DA:817,9
DA:820,3
DA:821,61
DA:822,3
DA:823,3
DA:827,77
DA:829,9
DA:831,3
DA:832,6
DA:833,10
DA:834,3
DA:836,2
DA:837,2
DA:838,2
DA:840,0
DA:842,1
DA:844,6
DA:845,9
DA:846,9
DA:850,12
DA:852,24
DA:853,319
DA:854,12
DA:855,12
DA:858,15
DA:860,15
DA:861,12
DA:862,12
DA:863,12
DA:865,3
DA:866,3
DA:868,12
DA:870,1
DA:871,1
DA:876,3
DA:878,3
DA:879,12
DA:880,3
DA:883,1
DA:885,2
DA:886,2
DA:887,1
DA:888,1
DA:891,0
DA:893,0
DA:894,0
DA:895,0
DA:896,0
DA:898,0
DA:899,0
DA:900,0
DA:901,0
DA:902,0
DA:904,0
DA:905,0
DA:906,0
DA:907,0
DA:908,0
DA:910,0
DA:912,0
DA:913,0
DA:914,0
DA:916,0
DA:918,0
DA:919,0
DA:921,0
DA:923,0
DA:924,0
DA:927,0
DA:929,0
DA:930,0
DA:931,0
DA:933,0
DA:935,0
DA:936,0
DA:937,0
DA:938,0
DA:939,0
DA:941,0
DA:942,0
DA:944,0
DA:945,0
DA:946,0
DA:949,3
LF:557
LH:120
end_of_record
SF:/usr/include/c++/7/bits/alloc_traits.h
FN:435,_ZNSt16allocator_traitsISaISt4pairINSt7__cxx1112basic_stringIcSt11char_traitsIcESaIcEEES6_EEE8allocateERS8_m
FN:435,_ZNSt16allocator_traitsISaINSt7__cxx1112basic_stringIcSt11char_traitsIcESaIcEEEEE8allocateERS6_m
FN:461,_ZNSt16allocator_traitsISaISt4pairINSt7__cxx1112basic_stringIcSt11char_traitsIcESaIcEEES6_EEE10deallocateERS8_PS7_m
FN:461,_ZNSt16allocator_traitsISaINSt7__cxx1112basic_stringIcSt11char_traitsIcESaIcEEEEE10deallocateERS6_PS5_m
FN:474,_ZNSt16allocator_traitsISaINSt7__cxx1112basic_stringIcSt11char_traitsIcESaIcEEEEE9constructIS5_JRKS5_EEEvRS6_PT_DpOT0_
FN:474,_ZNSt16allocator_traitsISaISt4pairINSt7__cxx1112basic_stringIcSt11char_traitsIcESaIcEEES6_EEE9constructIS7_JS7_EEEvRS8_PT_DpOT0_
FN:486,_ZNSt16allocator_traitsISaINSt7__cxx1112basic_stringIcSt11char_traitsIcESaIcEEEEE7destroyIS5_EEvRS6_PT_
FN:486,_ZNSt16allocator_traitsISaISt4pairINSt7__cxx1112basic_stringIcSt11char_traitsIcESaIcEEES6_EEE7destroyIS7_EEvRS8_PT_
FN:495,_ZNSt16allocator_traitsISaINSt7__cxx1112basic_stringIcSt11char_traitsIcESaIcEEEEE8max_sizeERKS6_
FN:495,_ZNSt16allocator_traitsISaISt4pairINSt7__cxx1112basic_stringIcSt11char_traitsIcESaIcEEES6_EEE8max_sizeERKS8_
FNDA:0,_ZNSt16allocator_traitsISaISt4pairINSt7__cxx1112basic_stringIcSt11char_traitsIcESaIcEEES6_EEE8allocateERS8_m
FNDA:0,_ZNSt16allocator_traitsISaINSt7__cxx1112basic_stringIcSt11char_traitsIcESaIcEEEEE8allocateERS6_m
FNDA:0,_ZNSt16allocator_traitsISaINSt7__cxx1112basic_stringIcSt11char_traitsIcESaIcEEEEE10deallocateERS6_PS5_m
FNDA:0,_ZNSt16allocator_traitsISaISt4pairINSt7__cxx1112basic_stringIcSt11char_traitsIcESaIcEEES6_EEE10deallocateERS8_PS7_m
FNDA:0,_ZNSt16allocator_traitsISaISt4pairINSt7__cxx1112basic_stringIcSt11char_traitsIcESaIcEEES6_EEE9constructIS7_JS7_EEEvRS8_PT_DpOT0_
FNDA:0,_ZNSt16allocator_traitsISaINSt7__cxx1112basic_stringIcSt11char_traitsIcESaIcEEEEE9constructIS5_JRKS5_EEEvRS6_PT_DpOT0_
FNDA:0,_ZNSt16allocator_traitsISaISt4pairINSt7__cxx1112basic_stringIcSt11char_traitsIcESaIcEEES6_EEE7destroyIS7_EEvRS8_PT_
FNDA:0,_ZNSt16allocator_traitsISaINSt7__cxx1112basic_stringIcSt11char_traitsIcESaIcEEEEE7destroyIS5_EEvRS6_PT_
FNDA:0,_ZNSt16allocator_traitsISaISt4pairINSt7__cxx1112basic_stringIcSt11char_traitsIcESaIcEEES6_EEE8max_sizeERKS8_
FNDA:0,_ZNSt16allocator_traitsISaINSt7__cxx1112basic_stringIcSt11char_traitsIcESaIcEEEEE8max_sizeERKS6_
FNF:10
FNH:0
DA:435,0
DA:436,0
DA:461,0
DA:462,0
DA:474,0
DA:475,0
DA:486,0
DA:487,0
DA:495,0
DA:496,0
LF:10
LH:0
end_of_record
SF:/usr/include/c++/7/bits/allocator.h
FN:131,_ZNSaINSt7__cxx1112basic_stringIcSt11char_traitsIcESaIcEEEEC2Ev
FN:131,_ZNSaISt4pairINSt7__cxx1112basic_stringIcSt11char_traitsIcESaIcEEES5_EEC2Ev
FN:139,_ZNSaINSt7__cxx1112basic_stringIcSt11char_traitsIcESaIcEEEED2Ev
FN:139,_ZNSaISt4pairINSt7__cxx1112basic_stringIcSt11char_traitsIcESaIcEEES5_EED2Ev
FNDA:0,_ZNSaINSt7__cxx1112basic_stringIcSt11char_traitsIcESaIcEEEEC2Ev
FNDA:0,_ZNSaISt4pairINSt7__cxx1112basic_stringIcSt11char_traitsIcESaIcEEES5_EEC2Ev
FNDA:0,_ZNSaINSt7__cxx1112basic_stringIcSt11char_traitsIcESaIcEEEED2Ev
FNDA:0,_ZNSaISt4pairINSt7__cxx1112basic_stringIcSt11char_traitsIcESaIcEEES5_EED2Ev
FNF:4
FNH:0
DA:131,0
DA:139,0
LF:2
LH:0
end_of_record
SF:/usr/include/c++/7/bits/basic_string.h
FN:6017,_ZSteqIcEN9__gnu_cxx11__enable_ifIXsrSt9__is_charIT_E7__valueEbE6__typeERKNSt7__cxx1112basic_stringIS3_St11char_traitsIS3_ESaIS3_EEESE_
FN:6043,_ZSteqIcSt11char_traitsIcESaIcEEbRKNSt7__cxx1112basic_stringIT_T0_T1_EEPKS5_
FN:6081,_ZStneIcSt11char_traitsIcESaIcEEbRKNSt7__cxx1112basic_stringIT_T0_T1_EEPKS5_
FN:6246,_ZSt4swapIcSt11char_traitsIcESaIcEEvRNSt7__cxx1112basic_stringIT_T0_T1_EES9_
FNDA:0,_ZSteqIcEN9__gnu_cxx11__enable_ifIXsrSt9__is_charIT_E7__valueEbE6__typeERKNSt7__cxx1112basic_stringIS3_St11char_traitsIS3_ESaIS3_EEESE_
FNDA:0,_ZSteqIcSt11char_traitsIcESaIcEEbRKNSt7__cxx1112basic_stringIT_T0_T1_EEPKS5_
FNDA:0,_ZStneIcSt11char_traitsIcESaIcEEbRKNSt7__cxx1112basic_stringIT_T0_T1_EEPKS5_
FNDA:0,_ZSt4swapIcSt11char_traitsIcESaIcEEvRNSt7__cxx1112basic_stringIT_T0_T1_EES9_
FNF:4
FNH:0
DA:6017,0
DA:6019,0
DA:6020,0
DA:6021,0
DA:6043,0
DA:6045,0
DA:6081,0
DA:6083,0
DA:6246,0
DA:6249,0
LF:10
LH:0
end_of_record
SF:/usr/include/c++/7/bits/char_traits.h
FN:300,_ZNSt11char_traitsIcE7compareEPKcS2_m
FNDA:0,_ZNSt11char_traitsIcE7compareEPKcS2_m
FNF:1
FNH:0
DA:300,0
DA:308,0
DA:309,0
DA:310,0
LF:4
LH:0
end_of_record
SF:/usr/include/c++/7/bits/move.h
FN:47,_ZSt11__addressofISt4pairINSt7__cxx1112basic_stringIcSt11char_traitsIcESaIcEEES6_EEPT_RS8_
FN:47,_ZSt11__addressofINSt7__cxx1112basic_stringIcSt11char_traitsIcESaIcEEEEPT_RS6_
FN:73,_ZSt7forwardIRKNSt7__cxx1112basic_stringIcSt11char_traitsIcESaIcEEEEOT_RNSt16remove_referenceIS8_E4typeE
FN:73,_ZSt7forwardINSt7__cxx1112basic_stringIcSt11char_traitsIcESaIcEEEEOT_RNSt16remove_referenceIS6_E4typeE
FN:73,_ZSt7forwardIRNSt7__cxx1112basic_stringIcSt11char_traitsIcESaIcEEEEOT_RNSt16remove_referenceIS7_E4typeE
FN:73,_ZSt7forwardISt4pairINSt7__cxx1112basic_stringIcSt11char_traitsIcESaIcEEES6_EEOT_RNSt16remove_referenceIS8_E4typeE
FN:98,_ZSt4moveIRtEONSt16remove_referenceIT_E4typeEOS2_
FN:98,_ZSt4moveIRSt4pairINSt7__cxx1112basic_stringIcSt11char_traitsIcESaIcEEES6_EEONSt16remove_referenceIT_E4typeEOSA_
FN:98,_ZSt4moveIRNSt7__cxx1112basic_stringIcSt11char_traitsIcESaIcEEEEONSt16remove_referenceIT_E4typeEOS8_
FN:187,_ZSt4swapItENSt9enable_ifIXsrSt6__and_IJSt6__not_ISt15__is_tuple_likeIT_EESt21is_move_constructibleIS4_ESt18is_move_assignableIS4_EEE5valueEvE4typeERS4_SE_
FNDA:0,_ZSt11__addressofINSt7__cxx1112basic_stringIcSt11char_traitsIcESaIcEEEEPT_RS6_
FNDA:0,_ZSt11__addressofISt4pairINSt7__cxx1112basic_stringIcSt11char_traitsIcESaIcEEES6_EEPT_RS8_
FNDA:0,_ZSt7forwardINSt7__cxx1112basic_stringIcSt11char_traitsIcESaIcEEEEOT_RNSt16remove_referenceIS6_E4typeE
FNDA:0,_ZSt7forwardIRKNSt7__cxx1112basic_stringIcSt11char_traitsIcESaIcEEEEOT_RNSt16remove_referenceIS8_E4typeE
FNDA:0,_ZSt7forwardISt4pairINSt7__cxx1112basic_stringIcSt11char_traitsIcESaIcEEES6_EEOT_RNSt16remove_referenceIS8_E4typeE
FNDA:0,_ZSt7forwardIRNSt7__cxx1112basic_stringIcSt11char_traitsIcESaIcEEEEOT_RNSt16remove_referenceIS7_E4typeE
FNDA:0,_ZSt4moveIRSt4pairINSt7__cxx1112basic_stringIcSt11char_traitsIcESaIcEEES6_EEONSt16remove_referenceIT_E4typeEOSA_
FNDA:36,_ZSt4moveIRtEONSt16remove_referenceIT_E4typeEOS2_
FNDA:0,_ZSt4moveIRNSt7__cxx1112basic_stringIcSt11char_traitsIcESaIcEEEEONSt16remove_referenceIT_E4typeEOS8_
FNDA:12,_ZSt4swapItENSt9enable_ifIXsrSt6__and_IJSt6__not_ISt15__is_tuple_likeIT_EESt21is_move_constructibleIS4_ESt18is_move_assignableIS4_EEE5valueEvE4typeERS4_SE_
FNF:10
FNH:2
DA:47,0
DA:48,0
DA:73,0
DA:74,0
DA:98,36
DA:99,36
DA:187,12
DA:198,12
DA:199,12
DA:200,12
DA:201,12
LF:11
LH:7
end_of_record
SF:/usr/include/c++/7/bits/stl_algobase.h
FN:219,_ZSt3maxImERKT_S2_S2_
FNDA:0,_ZSt3maxImERKT_S2_S2_
FNF:1
FNH:0
DA:219,0
DA:224,0
DA:225,0
DA:226,0
LF:4
LH:0
end_of_record
SF:/usr/include/c++/7/bits/stl_construct.h
FN:74,_ZSt10_ConstructISt4pairINSt7__cxx1112basic_stringIcSt11char_traitsIcESaIcEEES6_EJS7_EEvPT_DpOT0_
FN:74,_ZSt10_ConstructINSt7__cxx1112basic_stringIcSt11char_traitsIcESaIcEEEJS5_EEvPT_DpOT0_
FN:97,_ZSt8_DestroyISt4pairINSt7__cxx1112basic_stringIcSt11char_traitsIcESaIcEEES6_EEvPT_
FN:97,_ZSt8_DestroyINSt7__cxx1112basic_stringIcSt11char_traitsIcESaIcEEEEvPT_
FN:105,_ZNSt12_Destroy_auxILb0EE9__destroyIPSt4pairINSt7__cxx1112basic_stringIcSt11char_traitsIcESaIcEEES8_EEEvT_SB_
FN:105,_ZNSt12_Destroy_auxILb0EE9__destroyIPNSt7__cxx1112basic_stringIcSt11char_traitsIcESaIcEEEEEvT_S9_
FN:127,_ZSt8_DestroyIPSt4pairINSt7__cxx1112basic_stringIcSt11char_traitsIcESaIcEEES6_EEvT_S9_
FN:127,_ZSt8_DestroyIPNSt7__cxx1112basic_stringIcSt11char_traitsIcESaIcEEEEvT_S7_
FN:203,_ZSt8_DestroyIPNSt7__cxx1112basic_stringIcSt11char_traitsIcESaIcEEES5_EvT_S7_RSaIT0_E
FN:203,_ZSt8_DestroyIPSt4pairINSt7__cxx1112basic_stringIcSt11char_traitsIcESaIcEEES6_ES7_EvT_S9_RSaIT0_E
FNDA:0,_ZSt10_ConstructISt4pairINSt7__cxx1112basic_stringIcSt11char_traitsIcESaIcEEES6_EJS7_EEvPT_DpOT0_
FNDA:0,_ZSt10_ConstructINSt7__cxx1112basic_stringIcSt11char_traitsIcESaIcEEEJS5_EEvPT_DpOT0_
FNDA:0,_ZSt8_DestroyINSt7__cxx1112basic_stringIcSt11char_traitsIcESaIcEEEEvPT_
FNDA:0,_ZSt8_DestroyISt4pairINSt7__cxx1112basic_stringIcSt11char_traitsIcESaIcEEES6_EEvPT_
FNDA:0,_ZNSt12_Destroy_auxILb0EE9__destroyIPNSt7__cxx1112basic_stringIcSt11char_traitsIcESaIcEEEEEvT_S9_
FNDA:0,_ZNSt12_Destroy_auxILb0EE9__destroyIPSt4pairINSt7__cxx1112basic_stringIcSt11char_traitsIcESaIcEEES8_EEEvT_SB_
FNDA:0,_ZSt8_DestroyIPNSt7__cxx1112basic_stringIcSt11char_traitsIcESaIcEEEEvT_S7_
FNDA:0,_ZSt8_DestroyIPSt4pairINSt7__cxx1112basic_stringIcSt11char_traitsIcESaIcEEES6_EEvT_S9_
FNDA:0,_ZSt8_DestroyIPNSt7__cxx1112basic_stringIcSt11char_traitsIcESaIcEEES5_EvT_S7_RSaIT0_E
FNDA:0,_ZSt8_DestroyIPSt4pairINSt7__cxx1112basic_stringIcSt11char_traitsIcESaIcEEES6_ES7_EvT_S9_RSaIT0_E
FNF:10
FNH:0
DA:74,0
DA:75,0
DA:97,0
DA:98,0
DA:105,0
DA:107,0
DA:108,0
DA:109,0
DA:127,0
DA:137,0
DA:138,0
DA:203,0
DA:206,0
DA:207,0
LF:14
LH:0
end_of_record
SF:/usr/include/c++/7/bits/stl_iterator.h
FN:169,_ZNKSt16reverse_iteratorIN9__gnu_cxx17__normal_iteratorIPKcNSt7__cxx1112basic_stringIcSt11char_traitsIcESaIcEEEEEEdeEv
FN:169,_ZNKSt16reverse_iteratorIN9__gnu_cxx17__normal_iteratorIPcNSt7__cxx1112basic_stringIcSt11char_traitsIcESaIcEEEEEEdeEv
FN:782,_ZN9__gnu_cxx17__normal_iteratorIPSt4pairINSt7__cxx1112basic_stringIcSt11char_traitsIcESaIcEEES7_ESt6vectorIS8_SaIS8_EEEC2ERKS9_
FN:782,_ZN9__gnu_cxx17__normal_iteratorIPKcNSt7__cxx1112basic_stringIcSt11char_traitsIcESaIcEEEEC2ERKS2_
FN:782,_ZN9__gnu_cxx17__normal_iteratorIPNSt7__cxx1112basic_stringIcSt11char_traitsIcESaIcEEESt6vectorIS6_SaIS6_EEEC2ERKS7_
FN:782,_ZN9__gnu_cxx17__normal_iteratorIPKNSt7__cxx1112basic_stringIcSt11char_traitsIcESaIcEEESt6vectorIS6_SaIS6_EEEC2ERKS8_
FN:782,_ZN9__gnu_cxx17__normal_iteratorIPKSt4pairINSt7__cxx1112basic_stringIcSt11char_traitsIcESaIcEEES7_ESt6vectorIS8_SaIS8_EEEC2ERKSA_
FN:787,_ZN9__gnu_cxx17__normal_iteratorIPKcNSt7__cxx1112basic_stringIcSt11char_traitsIcESaIcEEEEC2IPcEERKNS0_IT_NS_11__enable_ifIXsrSt10__are_sameISC_SB_E7__valueES8_E6__typeEEE
FN:795,_ZNK9__gnu_cxx17__normal_iteratorIPKNSt7__cxx1112basic_stringIcSt11char_traitsIcESaIcEEESt6vectorIS6_SaIS6_EEEdeEv
FN:795,_ZNK9__gnu_cxx17__normal_iteratorIPKSt4pairINSt7__cxx1112basic_stringIcSt11char_traitsIcESaIcEEES7_ESt6vectorIS8_SaIS8_EEEdeEv
FN:795,_ZNK9__gnu_cxx17__normal_iteratorIPNSt7__cxx1112basic_stringIcSt11char_traitsIcESaIcEEESt6vectorIS6_SaIS6_EEEdeEv
FN:795,_ZNK9__gnu_cxx17__normal_iteratorIPcNSt7__cxx1112basic_stringIcSt11char_traitsIcESaIcEEEEdeEv
FN:795,_ZNK9__gnu_cxx17__normal_iteratorIPKcNSt7__cxx1112basic_stringIcSt11char_traitsIcESaIcEEEEdeEv
FN:803,_ZN9__gnu_cxx17__normal_iteratorIPNSt7__cxx1112basic_stringIcSt11char_traitsIcESaIcEEESt6vectorIS6_SaIS6_EEEppEv
FN:803,_ZN9__gnu_cxx17__normal_iteratorIPKcNSt7__cxx1112basic_stringIcSt11char_traitsIcESaIcEEEEppEv
FN:803,_ZN9__gnu_cxx17__normal_iteratorIPKSt4pairINSt7__cxx1112basic_stringIcSt11char_traitsIcESaIcEEES7_ESt6vectorIS8_SaIS8_EEEppEv
FN:803,_ZN9__gnu_cxx17__normal_iteratorIPKNSt7__cxx1112basic_stringIcSt11char_traitsIcESaIcEEESt6vectorIS6_SaIS6_EEEppEv
FN:803,_ZN9__gnu_cxx17__normal_iteratorIPcNSt7__cxx1112basic_stringIcSt11char_traitsIcESaIcEEEEppEv
FN:810,_ZN9__gnu_cxx17__normal_iteratorIPKcNSt7__cxx1112basic_stringIcSt11char_traitsIcESaIcEEEEppEi
FN:815,_ZN9__gnu_cxx17__normal_iteratorIPcNSt7__cxx1112basic_stringIcSt11char_traitsIcESaIcEEEEmmEv
FN:815,_ZN9__gnu_cxx17__normal_iteratorIPKcNSt7__cxx1112basic_stringIcSt11char_traitsIcESaIcEEEEmmEv
FN:843,_ZNK9__gnu_cxx17__normal_iteratorIPNSt7__cxx1112basic_stringIcSt11char_traitsIcESaIcEEESt6vectorIS6_SaIS6_EEEmiEl
FN:847,_ZNK9__gnu_cxx17__normal_iteratorIPKSt4pairINSt7__cxx1112basic_stringIcSt11char_traitsIcESaIcEEES7_ESt6vectorIS8_SaIS8_EEE4baseEv
FN:847,_ZNK9__gnu_cxx17__normal_iteratorIPSt4pairINSt7__cxx1112basic_stringIcSt11char_traitsIcESaIcEEES7_ESt6vectorIS8_SaIS8_EEE4baseEv
FN:847,_ZNK9__gnu_cxx17__normal_iteratorIPKcNSt7__cxx1112basic_stringIcSt11char_traitsIcESaIcEEEE4baseEv
FN:847,_ZNK9__gnu_cxx17__normal_iteratorIPKNSt7__cxx1112basic_stringIcSt11char_traitsIcESaIcEEESt6vectorIS6_SaIS6_EEE4baseEv
FN:847,_ZNK9__gnu_cxx17__normal_iteratorIPcNSt7__cxx1112basic_stringIcSt11char_traitsIcESaIcEEEE4baseEv
FN:847,_ZNK9__gnu_cxx17__normal_iteratorIPNSt7__cxx1112basic_stringIcSt11char_traitsIcESaIcEEESt6vectorIS6_SaIS6_EEE4baseEv
FN:869,_ZN9__gnu_cxxeqIPKcNSt7__cxx1112basic_stringIcSt11char_traitsIcESaIcEEEEEbRKNS_17__normal_iteratorIT_T0_EESE_
FN:869,_ZN9__gnu_cxxeqIPKNSt7__cxx1112basic_stringIcSt11char_traitsIcESaIcEEESt6vectorIS6_SaIS6_EEEEbRKNS_17__normal_iteratorIT_T0_EESH_
FN:883,_ZN9__gnu_cxxneIPKSt4pairINSt7__cxx1112basic_stringIcSt11char_traitsIcESaIcEEES7_ESt6vectorIS8_SaIS8_EEEEbRKNS_17__normal_iteratorIT_T0_EESJ_
FN:883,_ZN9__gnu_cxxneIPcNSt7__cxx1112basic_stringIcSt11char_traitsIcESaIcEEEEEbRKNS_17__normal_iteratorIT_T0_EESD_
FN:883,_ZN9__gnu_cxxneIPKcNSt7__cxx1112basic_stringIcSt11char_traitsIcESaIcEEEEEbRKNS_17__normal_iteratorIT_T0_EESE_
FN:883,_ZN9__gnu_cxxneIPKNSt7__cxx1112basic_stringIcSt11char_traitsIcESaIcEEESt6vectorIS6_SaIS6_EEEEbRKNS_17__normal_iteratorIT_T0_EESH_
FN:883,_ZN9__gnu_cxxneIPNSt7__cxx1112basic_stringIcSt11char_traitsIcESaIcEEESt6vectorIS6_SaIS6_EEEEbRKNS_17__normal_iteratorIT_T0_EESG_
FN:965,_ZN9__gnu_cxxmiIPNSt7__cxx1112basic_stringIcSt11char_traitsIcESaIcEEESt6vectorIS6_SaIS6_EEEENS_17__normal_iteratorIT_T0_E15difference_typeERKSE_SH_
FN:965,_ZN9__gnu_cxxmiIPSt4pairINSt7__cxx1112basic_stringIcSt11char_traitsIcESaIcEEES7_ESt6vectorIS8_SaIS8_EEEENS_17__normal_iteratorIT_T0_E15difference_typeERKSG_SJ_
FN:1039,_ZNSt13move_iteratorIPNSt7__cxx1112basic_stringIcSt11char_traitsIcESaIcEEEEC2ES6_
FN:1039,_ZNSt13move_iteratorIPSt4pairINSt7__cxx1112basic_stringIcSt11char_traitsIcESaIcEEES6_EEC2ES8_
FN:1048,_ZNKSt13move_iteratorIPSt4pairINSt7__cxx1112basic_stringIcSt11char_traitsIcESaIcEEES6_EE4baseEv
FN:1048,_ZNKSt13move_iteratorIPNSt7__cxx1112basic_stringIcSt11char_traitsIcESaIcEEEE4baseEv
FN:1052,_ZNKSt13move_iteratorIPNSt7__cxx1112basic_stringIcSt11char_traitsIcESaIcEEEEdeEv
FN:1052,_ZNKSt13move_iteratorIPSt4pairINSt7__cxx1112basic_stringIcSt11char_traitsIcESaIcEEES6_EEdeEv
FN:1060,_ZNSt13move_iteratorIPSt4pairINSt7__cxx1112basic_stringIcSt11char_traitsIcESaIcEEES6_EEppEv
FN:1060,_ZNSt13move_iteratorIPNSt7__cxx1112basic_stringIcSt11char_traitsIcESaIcEEEEppEv
FN:1127,_ZSteqIPNSt7__cxx1112basic_stringIcSt11char_traitsIcESaIcEEEEbRKSt13move_iteratorIT_ESB_
FN:1127,_ZSteqIPSt4pairINSt7__cxx1112basic_stringIcSt11char_traitsIcESaIcEEES6_EEbRKSt13move_iteratorIT_ESD_
FN:1139,_ZStneIPNSt7__cxx1112basic_stringIcSt11char_traitsIcESaIcEEEEbRKSt13move_iteratorIT_ESB_
FN:1139,_ZStneIPSt4pairINSt7__cxx1112basic_stringIcSt11char_traitsIcESaIcEEES6_EEbRKSt13move_iteratorIT_ESD_
FN:1224,_ZSt32__make_move_if_noexcept_iteratorISt4pairINSt7__cxx1112basic_stringIcSt11char_traitsIcESaIcEEES6_ESt13move_iteratorIPS7_EET0_PT_
FN:1224,_ZSt32__make_move_if_noexcept_iteratorINSt7__cxx1112basic_stringIcSt11char_traitsIcESaIcEEESt13move_iteratorIPS5_EET0_PT_
FNDA:0,_ZNKSt16reverse_iteratorIN9__gnu_cxx17__normal_iteratorIPKcNSt7__cxx1112basic_stringIcSt11char_traitsIcESaIcEEEEEEdeEv
FNDA:0,_ZNKSt16reverse_iteratorIN9__gnu_cxx17__normal_iteratorIPcNSt7__cxx1112basic_stringIcSt11char_traitsIcESaIcEEEEEEdeEv
FNDA:0,_ZN9__gnu_cxx17__normal_iteratorIPSt4pairINSt7__cxx1112basic_stringIcSt11char_traitsIcESaIcEEES7_ESt6vectorIS8_SaIS8_EEEC2ERKS9_
FNDA:0,_ZN9__gnu_cxx17__normal_iteratorIPKNSt7__cxx1112basic_stringIcSt11char_traitsIcESaIcEEESt6vectorIS6_SaIS6_EEEC2ERKS8_
FNDA:0,_ZN9__gnu_cxx17__normal_iteratorIPNSt7__cxx1112basic_stringIcSt11char_traitsIcESaIcEEESt6vectorIS6_SaIS6_EEEC2ERKS7_
FNDA:0,_ZN9__gnu_cxx17__normal_iteratorIPKSt4pairINSt7__cxx1112basic_stringIcSt11char_traitsIcESaIcEEES7_ESt6vectorIS8_SaIS8_EEEC2ERKSA_
FNDA:0,_ZN9__gnu_cxx17__normal_iteratorIPKcNSt7__cxx1112basic_stringIcSt11char_traitsIcESaIcEEEEC2ERKS2_
FNDA:0,_ZN9__gnu_cxx17__normal_iteratorIPKcNSt7__cxx1112basic_stringIcSt11char_traitsIcESaIcEEEEC2IPcEERKNS0_IT_NS_11__enable_ifIXsrSt10__are_sameISC_SB_E7__valueES8_E6__typeEEE
FNDA:0,_ZNK9__gnu_cxx17__normal_iteratorIPKNSt7__cxx1112basic_stringIcSt11char_traitsIcESaIcEEESt6vectorIS6_SaIS6_EEEdeEv
FNDA:0,_ZNK9__gnu_cxx17__normal_iteratorIPNSt7__cxx1112basic_stringIcSt11char_traitsIcESaIcEEESt6vectorIS6_SaIS6_EEEdeEv
FNDA:0,_ZNK9__gnu_cxx17__normal_iteratorIPcNSt7__cxx1112basic_stringIcSt11char_traitsIcESaIcEEEEdeEv
FNDA:0,_ZNK9__gnu_cxx17__normal_iteratorIPKSt4pairINSt7__cxx1112basic_stringIcSt11char_traitsIcESaIcEEES7_ESt6vectorIS8_SaIS8_EEEdeEv
FNDA:0,_ZNK9__gnu_cxx17__normal_iteratorIPKcNSt7__cxx1112basic_stringIcSt11char_traitsIcESaIcEEEEdeEv
FNDA:165,_ZN9__gnu_cxx17__normal_iteratorIPcNSt7__cxx1112basic_stringIcSt11char_traitsIcESaIcEEEEppEv
FNDA:0,_ZN9__gnu_cxx17__normal_iteratorIPKNSt7__cxx1112basic_stringIcSt11char_traitsIcESaIcEEESt6vectorIS6_SaIS6_EEEppEv
FNDA:0,_ZN9__gnu_cxx17__normal_iteratorIPNSt7__cxx1112basic_stringIcSt11char_traitsIcESaIcEEESt6vectorIS6_SaIS6_EEEppEv
FNDA:0,_ZN9__gnu_cxx17__normal_iteratorIPKSt4pairINSt7__cxx1112basic_stringIcSt11char_traitsIcESaIcEEES7_ESt6vectorIS8_SaIS8_EEEppEv
FNDA:0,_ZN9__gnu_cxx17__normal_iteratorIPKcNSt7__cxx1112basic_stringIcSt11char_traitsIcESaIcEEEEppEv
FNDA:0,_ZN9__gnu_cxx17__normal_iteratorIPKcNSt7__cxx1112basic_stringIcSt11char_traitsIcESaIcEEEEppEi
FNDA:0,_ZN9__gnu_cxx17__normal_iteratorIPcNSt7__cxx1112basic_stringIcSt11char_traitsIcESaIcEEEEmmEv
FNDA:0,_ZN9__gnu_cxx17__normal_iteratorIPKcNSt7__cxx1112basic_stringIcSt11char_traitsIcESaIcEEEEmmEv
FNDA:0,_ZNK9__gnu_cxx17__normal_iteratorIPNSt7__cxx1112basic_stringIcSt11char_traitsIcESaIcEEESt6vectorIS6_SaIS6_EEEmiEl
FNDA:0,_ZNK9__gnu_cxx17__normal_iteratorIPSt4pairINSt7__cxx1112basic_stringIcSt11char_traitsIcESaIcEEES7_ESt6vectorIS8_SaIS8_EEE4baseEv
FNDA:0,_ZNK9__gnu_cxx17__normal_iteratorIPKNSt7__cxx1112basic_stringIcSt11char_traitsIcESaIcEEESt6vectorIS6_SaIS6_EEE4baseEv
FNDA:0,_ZNK9__gnu_cxx17__normal_iteratorIPcNSt7__cxx1112basic_stringIcSt11char_traitsIcESaIcEEEE4baseEv
FNDA:0,_ZNK9__gnu_cxx17__normal_iteratorIPNSt7__cxx1112basic_stringIcSt11char_traitsIcESaIcEEESt6vectorIS6_SaIS6_EEE4baseEv
FNDA:0,_ZNK9__gnu_cxx17__normal_iteratorIPKSt4pairINSt7__cxx1112basic_stringIcSt11char_traitsIcESaIcEEES7_ESt6vectorIS8_SaIS8_EEE4baseEv
FNDA:0,_ZNK9__gnu_cxx17__normal_iteratorIPKcNSt7__cxx1112basic_stringIcSt11char_traitsIcESaIcEEEE4baseEv
FNDA:0,_ZN9__gnu_cxxeqIPKNSt7__cxx1112basic_stringIcSt11char_traitsIcESaIcEEESt6vectorIS6_SaIS6_EEEEbRKNS_17__normal_iteratorIT_T0_EESH_
FNDA:0,_ZN9__gnu_cxxeqIPKcNSt7__cxx1112basic_stringIcSt11char_traitsIcESaIcEEEEEbRKNS_17__normal_iteratorIT_T0_EESE_
FNDA:0,_ZN9__gnu_cxxneIPcNSt7__cxx1112basic_stringIcSt11char_traitsIcESaIcEEEEEbRKNS_17__normal_iteratorIT_T0_EESD_
FNDA:0,_ZN9__gnu_cxxneIPKNSt7__cxx1112basic_stringIcSt11char_traitsIcESaIcEEESt6vectorIS6_SaIS6_EEEEbRKNS_17__normal_iteratorIT_T0_EESH_
FNDA:0,_ZN9__gnu_cxxneIPNSt7__cxx1112basic_stringIcSt11char_traitsIcESaIcEEESt6vectorIS6_SaIS6_EEEEbRKNS_17__normal_iteratorIT_T0_EESG_
FNDA:0,_ZN9__gnu_cxxneIPKSt4pairINSt7__cxx1112basic_stringIcSt11char_traitsIcESaIcEEES7_ESt6vectorIS8_SaIS8_EEEEbRKNS_17__normal_iteratorIT_T0_EESJ_
FNDA:0,_ZN9__gnu_cxxneIPKcNSt7__cxx1112basic_stringIcSt11char_traitsIcESaIcEEEEEbRKNS_17__normal_iteratorIT_T0_EESE_
FNDA:0,_ZN9__gnu_cxxmiIPSt4pairINSt7__cxx1112basic_stringIcSt11char_traitsIcESaIcEEES7_ESt6vectorIS8_SaIS8_EEEENS_17__normal_iteratorIT_T0_E15difference_typeERKSG_SJ_
FNDA:0,_ZN9__gnu_cxxmiIPNSt7__cxx1112basic_stringIcSt11char_traitsIcESaIcEEESt6vectorIS6_SaIS6_EEEENS_17__normal_iteratorIT_T0_E15difference_typeERKSE_SH_
FNDA:0,_ZNSt13move_iteratorIPSt4pairINSt7__cxx1112basic_stringIcSt11char_traitsIcESaIcEEES6_EEC2ES8_
FNDA:0,_ZNSt13move_iteratorIPNSt7__cxx1112basic_stringIcSt11char_traitsIcESaIcEEEEC2ES6_
FNDA:0,_ZNKSt13move_iteratorIPSt4pairINSt7__cxx1112basic_stringIcSt11char_traitsIcESaIcEEES6_EE4baseEv
FNDA:0,_ZNKSt13move_iteratorIPNSt7__cxx1112basic_stringIcSt11char_traitsIcESaIcEEEE4baseEv
FNDA:0,_ZNKSt13move_iteratorIPSt4pairINSt7__cxx1112basic_stringIcSt11char_traitsIcESaIcEEES6_EEdeEv
FNDA:0,_ZNKSt13move_iteratorIPNSt7__cxx1112basic_stringIcSt11char_traitsIcESaIcEEEEdeEv
FNDA:0,_ZNSt13move_iteratorIPSt4pairINSt7__cxx1112basic_stringIcSt11char_traitsIcESaIcEEES6_EEppEv
FNDA:0,_ZNSt13move_iteratorIPNSt7__cxx1112basic_stringIcSt11char_traitsIcESaIcEEEEppEv
FNDA:0,_ZSteqIPSt4pairINSt7__cxx1112basic_stringIcSt11char_traitsIcESaIcEEES6_EEbRKSt13move_iteratorIT_ESD_
FNDA:0,_ZSteqIPNSt7__cxx1112basic_stringIcSt11char_traitsIcESaIcEEEEbRKSt13move_iteratorIT_ESB_
FNDA:0,_ZStneIPSt4pairINSt7__cxx1112basic_stringIcSt11char_traitsIcESaIcEEES6_EEbRKSt13move_iteratorIT_ESD_
FNDA:0,_ZStneIPNSt7__cxx1112basic_stringIcSt11char_traitsIcESaIcEEEEbRKSt13move_iteratorIT_ESB_
FNDA:0,_ZSt32__make_move_if_noexcept_iteratorISt4pairINSt7__cxx1112basic_stringIcSt11char_traitsIcESaIcEEES6_ESt13move_iteratorIPS7_EET0_PT_
FNDA:0,_ZSt32__make_move_if_noexcept_iteratorINSt7__cxx1112basic_stringIcSt11char_traitsIcESaIcEEESt13move_iteratorIPS5_EET0_PT_
FNF:51
FNH:1
DA:169,0
DA:171,0
DA:172,0
DA:782,0
DA:783,0
DA:787,0
DA:791,0
DA:795,0
DA:796,0
DA:803,165
DA:805,165
DA:806,165
DA:810,0
DA:811,0
DA:815,0
DA:817,0
DA:818,0
DA:843,0
DA:844,0
DA:847,0
DA:848,0
DA:869,0
DA:872,0
DA:883,0
DA:886,0
DA:965,0
DA:968,0
DA:1039,0
DA:1040,0
DA:1048,0
DA:1049,0
DA:1052,0
DA:1053,0
DA:1060,0
DA:1062,0
DA:1063,0
DA:1127,0
DA:1129,0
DA:1139,0
DA:1141,0
DA:1224,0
DA:1225,0
LF:42
LH:3
end_of_record
SF:/usr/include/c++/7/bits/stl_pair.h
FN:208,_ZNSt4pairINSt7__cxx1112basic_stringIcSt11char_traitsIcESaIcEEES5_ED2Ev
FN:304,_ZNSt4pairINSt7__cxx1112basic_stringIcSt11char_traitsIcESaIcEEES5_EC2EOS6_
FN:341,_ZNSt4pairINSt7__cxx1112basic_stringIcSt11char_traitsIcESaIcEEES5_EC2IRS5_S8_Lb1EEEOT_OT0_
FN:524,_ZSt9make_pairIRNSt7__cxx1112basic_stringIcSt11char_traitsIcESaIcEEES6_ESt4pairINSt17__decay_and_stripIT_E6__typeENS8_IT0_E6__typeEEOS9_OSC_
FNDA:0,_ZNSt4pairINSt7__cxx1112basic_stringIcSt11char_traitsIcESaIcEEES5_ED2Ev
FNDA:0,_ZNSt4pairINSt7__cxx1112basic_stringIcSt11char_traitsIcESaIcEEES5_EC2EOS6_
FNDA:0,_ZNSt4pairINSt7__cxx1112basic_stringIcSt11char_traitsIcESaIcEEES5_EC2IRS5_S8_Lb1EEEOT_OT0_
FNDA:0,_ZSt9make_pairIRNSt7__cxx1112basic_stringIcSt11char_traitsIcESaIcEEES6_ESt4pairINSt17__decay_and_stripIT_E6__typeENS8_IT0_E6__typeEEOS9_OSC_
FNF:4
FNH:0
DA:208,0
DA:304,0
DA:341,0
DA:342,0
DA:524,0
DA:529,0
LF:6
LH:0
end_of_record
SF:/usr/include/c++/7/bits/stl_uninitialized.h
FN:76,_ZNSt20__uninitialized_copyILb0EE13__uninit_copyISt13move_iteratorIPNSt7__cxx1112basic_stringIcSt11char_traitsIcESaIcEEEES9_EET0_T_SC_SB_
FN:76,_ZNSt20__uninitialized_copyILb0EE13__uninit_copyISt13move_iteratorIPSt4pairINSt7__cxx1112basic_stringIcSt11char_traitsIcESaIcEEES9_EESB_EET0_T_SE_SD_
FN:115,_ZSt18uninitialized_copyISt13move_iteratorIPNSt7__cxx1112basic_stringIcSt11char_traitsIcESaIcEEEES7_ET0_T_SA_S9_
FN:115,_ZSt18uninitialized_copyISt13move_iteratorIPSt4pairINSt7__cxx1112basic_stringIcSt11char_traitsIcESaIcEEES7_EES9_ET0_T_SC_SB_
FN:287,_ZSt22__uninitialized_copy_aISt13move_iteratorIPNSt7__cxx1112basic_stringIcSt11char_traitsIcESaIcEEEES7_S6_ET0_T_SA_S9_RSaIT1_E
FN:287,_ZSt22__uninitialized_copy_aISt13move_iteratorIPSt4pairINSt7__cxx1112basic_stringIcSt11char_traitsIcESaIcEEES7_EES9_S8_ET0_T_SC_SB_RSaIT1_E
FN:305,_ZSt34__uninitialized_move_if_noexcept_aIPNSt7__cxx1112basic_stringIcSt11char_traitsIcESaIcEEES6_SaIS5_EET0_T_S9_S8_RT1_
FN:305,_ZSt34__uninitialized_move_if_noexcept_aIPSt4pairINSt7__cxx1112basic_stringIcSt11char_traitsIcESaIcEEES6_ES8_SaIS7_EET0_T_SB_SA_RT1_
FNDA:0,_ZNSt20__uninitialized_copyILb0EE13__uninit_copyISt13move_iteratorIPSt4pairINSt7__cxx1112basic_stringIcSt11char_traitsIcESaIcEEES9_EESB_EET0_T_SE_SD_
FNDA:0,_ZNSt20__uninitialized_copyILb0EE13__uninit_copyISt13move_iteratorIPNSt7__cxx1112basic_stringIcSt11char_traitsIcESaIcEEEES9_EET0_T_SC_SB_
FNDA:0,_ZSt18uninitialized_copyISt13move_iteratorIPSt4pairINSt7__cxx1112basic_stringIcSt11char_traitsIcESaIcEEES7_EES9_ET0_T_SC_SB_
FNDA:0,_ZSt18uninitialized_copyISt13move_iteratorIPNSt7__cxx1112basic_stringIcSt11char_traitsIcESaIcEEEES7_ET0_T_SA_S9_
FNDA:0,_ZSt22__uninitialized_copy_aISt13move_iteratorIPSt4pairINSt7__cxx1112basic_stringIcSt11char_traitsIcESaIcEEES7_EES9_S8_ET0_T_SC_SB_RSaIT1_E
FNDA:0,_ZSt22__uninitialized_copy_aISt13move_iteratorIPNSt7__cxx1112basic_stringIcSt11char_traitsIcESaIcEEEES7_S6_ET0_T_SA_S9_RSaIT1_E
FNDA:0,_ZSt34__uninitialized_move_if_noexcept_aIPSt4pairINSt7__cxx1112basic_stringIcSt11char_traitsIcESaIcEEES6_ES8_SaIS7_EET0_T_SB_SA_RT1_
FNDA:0,_ZSt34__uninitialized_move_if_noexcept_aIPNSt7__cxx1112basic_stringIcSt11char_traitsIcESaIcEEES6_SaIS5_EET0_T_S9_S8_RT1_
FNF:8
FNH:0
DA:76,0
DA:79,0
DA:82,0
DA:83,0
DA:84,0
DA:86,0
DA:88,0
DA:89,0
DA:115,0
DA:128,0
DA:134,0
DA:287,0
DA:289,0
DA:305,0
DA:311,0
DA:312,0
LF:16
LH:0
end_of_record
SF:/usr/include/c++/7/bits/stl_vector.h
FN:81,_ZNSt12_Vector_baseINSt7__cxx1112basic_stringIcSt11char_traitsIcESaIcEEESaIS5_EE12_Vector_implD2Ev
FN:81,_ZNSt12_Vector_baseISt4pairINSt7__cxx1112basic_stringIcSt11char_traitsIcESaIcEEES6_ESaIS7_EE12_Vector_implD2Ev
FN:88,_ZNSt12_Vector_baseINSt7__cxx1112basic_stringIcSt11char_traitsIcESaIcEEESaIS5_EE12_Vector_implC2Ev
FN:88,_ZNSt12_Vector_baseISt4pairINSt7__cxx1112basic_stringIcSt11char_traitsIcESaIcEEES6_ESaIS7_EE12_Vector_implC2Ev
FN:115,_ZNSt12_Vector_baseINSt7__cxx1112basic_stringIcSt11char_traitsIcESaIcEEESaIS5_EE19_M_get_Tp_allocatorEv
FN:115,_ZNSt12_Vector_baseISt4pairINSt7__cxx1112basic_stringIcSt11char_traitsIcESaIcEEES6_ESaIS7_EE19_M_get_Tp_allocatorEv
FN:119,_ZNKSt12_Vector_baseINSt7__cxx1112basic_stringIcSt11char_traitsIcESaIcEEESaIS5_EE19_M_get_Tp_allocatorEv
FN:119,_ZNKSt12_Vector_baseISt4pairINSt7__cxx1112basic_stringIcSt11char_traitsIcESaIcEEES6_ESaIS7_EE19_M_get_Tp_allocatorEv
FN:126,_ZNSt12_Vector_baseISt4pairINSt7__cxx1112basic_stringIcSt11char_traitsIcESaIcEEES6_ESaIS7_EEC2Ev
FN:126,_ZNSt12_Vector_baseINSt7__cxx1112basic_stringIcSt11char_traitsIcESaIcEEESaIS5_EEC2Ev
FN:161,_ZNSt12_Vector_baseISt4pairINSt7__cxx1112basic_stringIcSt11char_traitsIcESaIcEEES6_ESaIS7_EED2Ev
FN:161,_ZNSt12_Vector_baseINSt7__cxx1112basic_stringIcSt11char_traitsIcESaIcEEESaIS5_EED2Ev
FN:169,_ZNSt12_Vector_baseISt4pairINSt7__cxx1112basic_stringIcSt11char_traitsIcESaIcEEES6_ESaIS7_EE11_M_allocateEm
FN:169,_ZNSt12_Vector_baseINSt7__cxx1112basic_stringIcSt11char_traitsIcESaIcEEESaIS5_EE11_M_allocateEm
FN:176,_ZNSt12_Vector_baseISt4pairINSt7__cxx1112basic_stringIcSt11char_traitsIcESaIcEEES6_ESaIS7_EE13_M_deallocateEPS7_m
FN:176,_ZNSt12_Vector_baseINSt7__cxx1112basic_stringIcSt11char_traitsIcESaIcEEESaIS5_EE13_M_deallocateEPS5_m
FN:259,_ZNSt6vectorISt4pairINSt7__cxx1112basic_stringIcSt11char_traitsIcESaIcEEES6_ESaIS7_EEC2Ev
FN:259,_ZNSt6vectorINSt7__cxx1112basic_stringIcSt11char_traitsIcESaIcEEESaIS5_EEC2Ev
FN:433,_ZNSt6vectorISt4pairINSt7__cxx1112basic_stringIcSt11char_traitsIcESaIcEEES6_ESaIS7_EED2Ev
FN:433,_ZNSt6vectorINSt7__cxx1112basic_stringIcSt11char_traitsIcESaIcEEESaIS5_EED2Ev
FN:563,_ZNSt6vectorINSt7__cxx1112basic_stringIcSt11char_traitsIcESaIcEEESaIS5_EE5beginEv
FN:563,_ZNSt6vectorISt4pairINSt7__cxx1112basic_stringIcSt11char_traitsIcESaIcEEES6_ESaIS7_EE5beginEv
FN:572,_ZNKSt6vectorISt4pairINSt7__cxx1112basic_stringIcSt11char_traitsIcESaIcEEES6_ESaIS7_EE5beginEv
FN:572,_ZNKSt6vectorINSt7__cxx1112basic_stringIcSt11char_traitsIcESaIcEEESaIS5_EE5beginEv
FN:581,_ZNSt6vectorINSt7__cxx1112basic_stringIcSt11char_traitsIcESaIcEEESaIS5_EE3endEv
FN:581,_ZNSt6vectorISt4pairINSt7__cxx1112basic_stringIcSt11char_traitsIcESaIcEEES6_ESaIS7_EE3endEv
FN:590,_ZNKSt6vectorINSt7__cxx1112basic_stringIcSt11char_traitsIcESaIcEEESaIS5_EE3endEv
FN:590,_ZNKSt6vectorISt4pairINSt7__cxx1112basic_stringIcSt11char_traitsIcESaIcEEES6_ESaIS7_EE3endEv
FN:670,_ZNKSt6vectorINSt7__cxx1112basic_stringIcSt11char_traitsIcESaIcEEESaIS5_EE4sizeEv
FN:670,_ZNKSt6vectorISt4pairINSt7__cxx1112basic_stringIcSt11char_traitsIcESaIcEEES6_ESaIS7_EE4sizeEv
FN:675,_ZNKSt6vectorINSt7__cxx1112basic_stringIcSt11char_traitsIcESaIcEEESaIS5_EE8max_sizeEv
FN:675,_ZNKSt6vectorISt4pairINSt7__cxx1112basic_stringIcSt11char_traitsIcESaIcEEES6_ESaIS7_EE8max_sizeEv
FN:759,_ZNKSt6vectorINSt7__cxx1112basic_stringIcSt11char_traitsIcESaIcEEESaIS5_EE5emptyEv
FN:895,_ZNSt6vectorINSt7__cxx1112basic_stringIcSt11char_traitsIcESaIcEEESaIS5_EE4backEv
FN:939,_ZNSt6vectorINSt7__cxx1112basic_stringIcSt11char_traitsIcESaIcEEESaIS5_EE9push_backERKS5_
FN:953,_ZNSt6vectorISt4pairINSt7__cxx1112basic_stringIcSt11char_traitsIcESaIcEEES6_ESaIS7_EE9push_backEOS7_
FN:975,_ZNSt6vectorINSt7__cxx1112basic_stringIcSt11char_traitsIcESaIcEEESaIS5_EE8pop_backEv
FN:1502,_ZNKSt6vectorINSt7__cxx1112basic_stringIcSt11char_traitsIcESaIcEEESaIS5_EE12_M_check_lenEmPKc
FN:1502,_ZNKSt6vectorISt4pairINSt7__cxx1112basic_stringIcSt11char_traitsIcESaIcEEES6_ESaIS7_EE12_M_check_lenEmPKc
FNDA:0,_ZNSt12_Vector_baseINSt7__cxx1112basic_stringIcSt11char_traitsIcESaIcEEESaIS5_EE12_Vector_implD2Ev
FNDA:0,_ZNSt12_Vector_baseISt4pairINSt7__cxx1112basic_stringIcSt11char_traitsIcESaIcEEES6_ESaIS7_EE12_Vector_implD2Ev
FNDA:0,_ZNSt12_Vector_baseINSt7__cxx1112basic_stringIcSt11char_traitsIcESaIcEEESaIS5_EE12_Vector_implC2Ev
FNDA:0,_ZNSt12_Vector_baseISt4pairINSt7__cxx1112basic_stringIcSt11char_traitsIcESaIcEEES6_ESaIS7_EE12_Vector_implC2Ev
FNDA:0,_ZNSt12_Vector_baseINSt7__cxx1112basic_stringIcSt11char_traitsIcESaIcEEESaIS5_EE19_M_get_Tp_allocatorEv
FNDA:0,_ZNSt12_Vector_baseISt4pairINSt7__cxx1112basic_stringIcSt11char_traitsIcESaIcEEES6_ESaIS7_EE19_M_get_Tp_allocatorEv
FNDA:0,_ZNKSt12_Vector_baseISt4pairINSt7__cxx1112basic_stringIcSt11char_traitsIcESaIcEEES6_ESaIS7_EE19_M_get_Tp_allocatorEv
FNDA:0,_ZNKSt12_Vector_baseINSt7__cxx1112basic_stringIcSt11char_traitsIcESaIcEEESaIS5_EE19_M_get_Tp_allocatorEv
FNDA:0,_ZNSt12_Vector_baseINSt7__cxx1112basic_stringIcSt11char_traitsIcESaIcEEESaIS5_EEC2Ev
FNDA:0,_ZNSt12_Vector_baseISt4pairINSt7__cxx1112basic_stringIcSt11char_traitsIcESaIcEEES6_ESaIS7_EEC2Ev
FNDA:0,_ZNSt12_Vector_baseINSt7__cxx1112basic_stringIcSt11char_traitsIcESaIcEEESaIS5_EED2Ev
FNDA:0,_ZNSt12_Vector_baseISt4pairINSt7__cxx1112basic_stringIcSt11char_traitsIcESaIcEEES6_ESaIS7_EED2Ev
FNDA:0,_ZNSt12_Vector_baseISt4pairINSt7__cxx1112basic_stringIcSt11char_traitsIcESaIcEEES6_ESaIS7_EE11_M_allocateEm
FNDA:0,_ZNSt12_Vector_baseINSt7__cxx1112basic_stringIcSt11char_traitsIcESaIcEEESaIS5_EE11_M_allocateEm
FNDA:0,_ZNSt12_Vector_baseINSt7__cxx1112basic_stringIcSt11char_traitsIcESaIcEEESaIS5_EE13_M_deallocateEPS5_m
FNDA:0,_ZNSt12_Vector_baseISt4pairINSt7__cxx1112basic_stringIcSt11char_traitsIcESaIcEEES6_ESaIS7_EE13_M_deallocateEPS7_m
FNDA:0,_ZNSt6vectorINSt7__cxx1112basic_stringIcSt11char_traitsIcESaIcEEESaIS5_EEC2Ev
FNDA:0,_ZNSt6vectorISt4pairINSt7__cxx1112basic_stringIcSt11char_traitsIcESaIcEEES6_ESaIS7_EEC2Ev
FNDA:0,_ZNSt6vectorINSt7__cxx1112basic_stringIcSt11char_traitsIcESaIcEEESaIS5_EED2Ev
FNDA:0,_ZNSt6vectorISt4pairINSt7__cxx1112basic_stringIcSt11char_traitsIcESaIcEEES6_ESaIS7_EED2Ev
FNDA:0,_ZNSt6vectorISt4pairINSt7__cxx1112basic_stringIcSt11char_traitsIcESaIcEEES6_ESaIS7_EE5beginEv
FNDA:0,_ZNSt6vectorINSt7__cxx1112basic_stringIcSt11char_traitsIcESaIcEEESaIS5_EE5beginEv
FNDA:0,_ZNKSt6vectorINSt7__cxx1112basic_stringIcSt11char_traitsIcESaIcEEESaIS5_EE5beginEv
FNDA:0,_ZNKSt6vectorISt4pairINSt7__cxx1112basic_stringIcSt11char_traitsIcESaIcEEES6_ESaIS7_EE5beginEv
FNDA:0,_ZNSt6vectorISt4pairINSt7__cxx1112basic_stringIcSt11char_traitsIcESaIcEEES6_ESaIS7_EE3endEv
FNDA:0,_ZNSt6vectorINSt7__cxx1112basic_stringIcSt11char_traitsIcESaIcEEESaIS5_EE3endEv
FNDA:0,_ZNKSt6vectorINSt7__cxx1112basic_stringIcSt11char_traitsIcESaIcEEESaIS5_EE3endEv
FNDA:0,_ZNKSt6vectorISt4pairINSt7__cxx1112basic_stringIcSt11char_traitsIcESaIcEEES6_ESaIS7_EE3endEv
FNDA:0,_ZNKSt6vectorISt4pairINSt7__cxx1112basic_stringIcSt11char_traitsIcESaIcEEES6_ESaIS7_EE4sizeEv
FNDA:0,_ZNKSt6vectorINSt7__cxx1112basic_stringIcSt11char_traitsIcESaIcEEESaIS5_EE4sizeEv
FNDA:0,_ZNKSt6vectorISt4pairINSt7__cxx1112basic_stringIcSt11char_traitsIcESaIcEEES6_ESaIS7_EE8max_sizeEv
FNDA:0,_ZNKSt6vectorINSt7__cxx1112basic_stringIcSt11char_traitsIcESaIcEEESaIS5_EE8max_sizeEv
FNDA:0,_ZNKSt6vectorINSt7__cxx1112basic_stringIcSt11char_traitsIcESaIcEEESaIS5_EE5emptyEv
FNDA:0,_ZNSt6vectorINSt7__cxx1112basic_stringIcSt11char_traitsIcESaIcEEESaIS5_EE4backEv
FNDA:0,_ZNSt6vectorINSt7__cxx1112basic_stringIcSt11char_traitsIcESaIcEEESaIS5_EE9push_backERKS5_
FNDA:0,_ZNSt6vectorISt4pairINSt7__cxx1112basic_stringIcSt11char_traitsIcESaIcEEES6_ESaIS7_EE9push_backEOS7_
FNDA:0,_ZNSt6vectorINSt7__cxx1112basic_stringIcSt11char_traitsIcESaIcEEESaIS5_EE8pop_backEv
FNDA:0,_ZNKSt6vectorISt4pairINSt7__cxx1112basic_stringIcSt11char_traitsIcESaIcEEES6_ESaIS7_EE12_M_check_lenEmPKc
FNDA:0,_ZNKSt6vectorINSt7__cxx1112basic_stringIcSt11char_traitsIcESaIcEEESaIS5_EE12_M_check_lenEmPKc
FNF:39
FNH:0
DA:81,0
DA:88,0
DA:89,0
DA:90,0
DA:115,0
DA:116,0
DA:119,0
DA:120,0
DA:126,0
DA:127,0
DA:161,0
DA:162,0
DA:163,0
DA:169,0
DA:172,0
DA:176,0
DA:179,0
DA:180,0
DA:181,0
DA:259,0
DA:263,0
DA:433,0
DA:434,0
DA:435,0
DA:563,0
DA:564,0
DA:572,0
DA:573,0
DA:581,0
DA:582,0
DA:590,0
DA:591,0
DA:670,0
DA:671,0
DA:675,0
DA:676,0
DA:759,0
DA:760,0
DA:895,0
DA:898,0
DA:939,0
DA:941,0
DA:943,0
DA:945,0
DA:948,0
DA:949,0
DA:953,0
DA:954,0
DA:975,0
DA:978,0
DA:979,0
DA:980,0
DA:1502,0
DA:1504,0
DA:1505,0
DA:1507,0
DA:1508,0
LF:57
LH:0
end_of_record
SF:/usr/include/c++/7/bits/vector.tcc
FN:95,_ZNSt6vectorISt4pairINSt7__cxx1112basic_stringIcSt11char_traitsIcESaIcEEES6_ESaIS7_EE12emplace_backIJS7_EEEvDpOT_
FN:394,_ZNSt6vectorISt4pairINSt7__cxx1112basic_stringIcSt11char_traitsIcESaIcEEES6_ESaIS7_EE17_M_realloc_insertIJS7_EEEvN9__gnu_cxx17__normal_iteratorIPS7_S9_EEDpOT_
FN:394,_ZNSt6vectorINSt7__cxx1112basic_stringIcSt11char_traitsIcESaIcEEESaIS5_EE17_M_realloc_insertIJRKS5_EEEvN9__gnu_cxx17__normal_iteratorIPS5_S7_EEDpOT_
FNDA:0,_ZNSt6vectorISt4pairINSt7__cxx1112basic_stringIcSt11char_traitsIcESaIcEEES6_ESaIS7_EE12emplace_backIJS7_EEEvDpOT_
FNDA:0,_ZNSt6vectorISt4pairINSt7__cxx1112basic_stringIcSt11char_traitsIcESaIcEEES6_ESaIS7_EE17_M_realloc_insertIJS7_EEEvN9__gnu_cxx17__normal_iteratorIPS7_S9_EEDpOT_
FNDA:0,_ZNSt6vectorINSt7__cxx1112basic_stringIcSt11char_traitsIcESaIcEEESaIS5_EE17_M_realloc_insertIJRKS5_EEEvN9__gnu_cxx17__normal_iteratorIPS5_S7_EEDpOT_
FNF:3
FNH:0
DA:95,0
DA:98,0
DA:100,0
DA:102,0
DA:105,0
DA:109,0
DA:394,0
DA:403,0
DA:405,0
DA:406,0
DA:407,0
DA:415,0
DA:416,0
DA:422,0
DA:424,0
DA:426,0
DA:427,0
DA:429,0
DA:431,0
DA:433,0
DA:434,0
DA:436,0
DA:438,0
DA:439,0
DA:440,0
DA:442,0
DA:443,0
DA:444,0
DA:446,0
DA:447,0
DA:448,0
DA:449,0
DA:450,0
DA:451,0
DA:452,0
DA:453,0
DA:454,0
LF:37
LH:0
end_of_record
SF:/usr/include/c++/7/ext/new_allocator.h
FN:79,_ZN9__gnu_cxx13new_allocatorINSt7__cxx1112basic_stringIcSt11char_traitsIcESaIcEEEEC2Ev
FN:79,_ZN9__gnu_cxx13new_allocatorISt4pairINSt7__cxx1112basic_stringIcSt11char_traitsIcESaIcEEES7_EEC2Ev
FN:86,_ZN9__gnu_cxx13new_allocatorINSt7__cxx1112basic_stringIcSt11char_traitsIcESaIcEEEED2Ev
FN:86,_ZN9__gnu_cxx13new_allocatorISt4pairINSt7__cxx1112basic_stringIcSt11char_traitsIcESaIcEEES7_EED2Ev
FN:99,_ZN9__gnu_cxx13new_allocatorISt4pairINSt7__cxx1112basic_stringIcSt11char_traitsIcESaIcEEES7_EE8allocateEmPKv
FN:99,_ZN9__gnu_cxx13new_allocatorINSt7__cxx1112basic_stringIcSt11char_traitsIcESaIcEEEE8allocateEmPKv
FN:116,_ZN9__gnu_cxx13new_allocatorISt4pairINSt7__cxx1112basic_stringIcSt11char_traitsIcESaIcEEES7_EE10deallocateEPS8_m
FN:116,_ZN9__gnu_cxx13new_allocatorINSt7__cxx1112basic_stringIcSt11char_traitsIcESaIcEEEE10deallocateEPS6_m
FN:129,_ZNK9__gnu_cxx13new_allocatorINSt7__cxx1112basic_stringIcSt11char_traitsIcESaIcEEEE8max_sizeEv
FN:129,_ZNK9__gnu_cxx13new_allocatorISt4pairINSt7__cxx1112basic_stringIcSt11char_traitsIcESaIcEEES7_EE8max_sizeEv
FN:135,_ZN9__gnu_cxx13new_allocatorISt4pairINSt7__cxx1112basic_stringIcSt11char_traitsIcESaIcEEES7_EE9constructIS8_JS8_EEEvPT_DpOT0_
FN:135,_ZN9__gnu_cxx13new_allocatorINSt7__cxx1112basic_stringIcSt11char_traitsIcESaIcEEEE9constructIS6_JRKS6_EEEvPT_DpOT0_
FN:140,_ZN9__gnu_cxx13new_allocatorISt4pairINSt7__cxx1112basic_stringIcSt11char_traitsIcESaIcEEES7_EE7destroyIS8_EEvPT_
FN:140,_ZN9__gnu_cxx13new_allocatorINSt7__cxx1112basic_stringIcSt11char_traitsIcESaIcEEEE7destroyIS6_EEvPT_
FNDA:0,_ZN9__gnu_cxx13new_allocatorINSt7__cxx1112basic_stringIcSt11char_traitsIcESaIcEEEEC2Ev
FNDA:0,_ZN9__gnu_cxx13new_allocatorISt4pairINSt7__cxx1112basic_stringIcSt11char_traitsIcESaIcEEES7_EEC2Ev
FNDA:0,_ZN9__gnu_cxx13new_allocatorINSt7__cxx1112basic_stringIcSt11char_traitsIcESaIcEEEED2Ev
FNDA:0,_ZN9__gnu_cxx13new_allocatorISt4pairINSt7__cxx1112basic_stringIcSt11char_traitsIcESaIcEEES7_EED2Ev
FNDA:0,_ZN9__gnu_cxx13new_allocatorISt4pairINSt7__cxx1112basic_stringIcSt11char_traitsIcESaIcEEES7_EE8allocateEmPKv
FNDA:0,_ZN9__gnu_cxx13new_allocatorINSt7__cxx1112basic_stringIcSt11char_traitsIcESaIcEEEE8allocateEmPKv
FNDA:0,_ZN9__gnu_cxx13new_allocatorINSt7__cxx1112basic_stringIcSt11char_traitsIcESaIcEEEE10deallocateEPS6_m
FNDA:0,_ZN9__gnu_cxx13new_allocatorISt4pairINSt7__cxx1112basic_stringIcSt11char_traitsIcESaIcEEES7_EE10deallocateEPS8_m
FNDA:0,_ZNK9__gnu_cxx13new_allocatorISt4pairINSt7__cxx1112basic_stringIcSt11char_traitsIcESaIcEEES7_EE8max_sizeEv
FNDA:0,_ZNK9__gnu_cxx13new_allocatorINSt7__cxx1112basic_stringIcSt11char_traitsIcESaIcEEEE8max_sizeEv
FNDA:0,_ZN9__gnu_cxx13new_allocatorISt4pairINSt7__cxx1112basic_stringIcSt11char_traitsIcESaIcEEES7_EE9constructIS8_JS8_EEEvPT_DpOT0_
FNDA:0,_ZN9__gnu_cxx13new_allocatorINSt7__cxx1112basic_stringIcSt11char_traitsIcESaIcEEEE9constructIS6_JRKS6_EEEvPT_DpOT0_
FNDA:0,_ZN9__gnu_cxx13new_allocatorISt4pairINSt7__cxx1112basic_stringIcSt11char_traitsIcESaIcEEES7_EE7destroyIS8_EEvPT_
FNDA:0,_ZN9__gnu_cxx13new_allocatorINSt7__cxx1112basic_stringIcSt11char_traitsIcESaIcEEEE7destroyIS6_EEvPT_
FNF:14
FNH:0
DA:79,0
DA:86,0
DA:99,0
DA:101,0
DA:102,0
DA:111,0
DA:116,0
DA:125,0
DA:126,0
DA:129,0
DA:130,0
DA:135,0
DA:136,0
DA:140,0
LF:14
LH:0
end_of_record
SF:/usr/include/c++/7/iostream
DA:74,1
LF:1
LH:1
end_of_record
SF:/usr/include/c++/7/new
FN:168,_ZnwmPv
FN:174,_ZdlPvS_
FNDA:0,_ZnwmPv
FNDA:0,_ZdlPvS_
FNF:2
FNH:0
DA:168,0
DA:169,0
DA:174,0
LF:3
LH:0
end_of_record
TN:
SF:/home/vera/poco/Foundation/include/Poco/NumericString.h
FN:312,_ZN4Poco4Impl3PtrC2EPcm
FN:322,_ZN4Poco4Impl3PtrppEi
FN:335,_ZN4Poco4Impl3PtrmmEi
FN:354,_ZNK4Poco4Impl3PtrcvPcEv
FN:359,_ZNK4Poco4Impl3Ptr4spanEv
FN:365,_ZN4Poco4Impl3Ptr11checkBoundsEPc
FN:379,_ZN4Poco8intToStrIxEEbT_tPcRmbicc
FN:379,_ZN4Poco8intToStrIiEEbT_tPcRmbicc
FN:379,_ZN4Poco8intToStrIlEEbT_tPcRmbicc
FN:457,_ZN4Poco9uIntToStrIyEEbT_tPcRmbicc
FN:457,_ZN4Poco9uIntToStrImEEbT_tPcRmbicc
FN:457,_ZN4Poco9uIntToStrIjEEbT_tPcRmbicc
FNDA:0,_ZN4Poco4Impl3PtrC2EPcm
FNDA:0,_ZN4Poco4Impl3PtrppEi
FNDA:0,_ZN4Poco4Impl3PtrmmEi
FNDA:0,_ZNK4Poco4Impl3PtrcvPcEv
FNDA:0,_ZNK4Poco4Impl3Ptr4spanEv
FNDA:0,_ZN4Poco4Impl3Ptr11checkBoundsEPc
FNDA:0,_ZN4Poco8intToStrIxEEbT_tPcRmbicc
FNDA:0,_ZN4Poco8intToStrIlEEbT_tPcRmbicc
FNDA:0,_ZN4Poco8intToStrIiEEbT_tPcRmbicc
FNDA:0,_ZN4Poco9uIntToStrIyEEbT_tPcRmbicc
FNDA:0,_ZN4Poco9uIntToStrImEEbT_tPcRmbicc
FNDA:0,_ZN4Poco9uIntToStrIjEEbT_tPcRmbicc
FNF:12
FNH:0
DA:312,0
DA:314,0
DA:322,0
DA:324,0
DA:325,0
DA:326,0
DA:335,0
DA:337,0
DA:338,0
DA:339,0
DA:354,0
DA:356,0
DA:359,0
DA:361,0
DA:365,0
DA:367,0
DA:368,0
DA:379,0
DA:395,0
DA:397,0
DA:398,0
DA:401,0
DA:402,0
DA:404,0
DA:406,0
DA:407,0
DA:408,0
DA:409,0
DA:411,0
DA:412,0
DA:416,0
DA:418,0
DA:419,0
DA:420,0
DA:421,0
DA:424,0
DA:425,0
DA:427,0
DA:428,0
DA:431,0
DA:433,0
DA:435,0
DA:438,0
DA:439,0
DA:440,0
DA:441,0
DA:443,0
DA:445,0
DA:447,0
DA:448,0
DA:449,0
DA:452,0
DA:457,0
DA:473,0
DA:475,0
DA:476,0
DA:479,0
DA:480,0
DA:482,0
DA:484,0
DA:485,0
DA:486,0
DA:487,0
DA:489,0
DA:490,0
DA:494,0
DA:496,0
DA:497,0
DA:498,0
DA:501,0
DA:502,0
DA:504,0
DA:505,0
DA:508,0
DA:510,0
DA:513,0
DA:514,0
DA:515,0
DA:516,0
DA:518,0
DA:520,0
DA:522,0
DA:523,0
DA:524,0
DA:527,0
LF:85
LH:0
end_of_record
SF:/home/vera/poco/Foundation/src/NumberFormatter.cpp
FN:37,_ZN4Poco15NumberFormatter6formatB5cxx11EbNS0_10BoolFormatE
FN:58,_ZN4Poco15NumberFormatter6appendERNSt7__cxx1112basic_stringIcSt11char_traitsIcESaIcEEEi
FN:67,_ZN4Poco15NumberFormatter6appendERNSt7__cxx1112basic_stringIcSt11char_traitsIcESaIcEEEii
FN:76,_ZN4Poco15NumberFormatter7append0ERNSt7__cxx1112basic_stringIcSt11char_traitsIcESaIcEEEii
FN:85,_ZN4Poco15NumberFormatter9appendHexERNSt7__cxx1112basic_stringIcSt11char_traitsIcESaIcEEEi
FN:94,_ZN4Poco15NumberFormatter9appendHexERNSt7__cxx1112basic_stringIcSt11char_traitsIcESaIcEEEii
FN:103,_ZN4Poco15NumberFormatter6appendERNSt7__cxx1112basic_stringIcSt11char_traitsIcESaIcEEEj
FN:112,_ZN4Poco15NumberFormatter6appendERNSt7__cxx1112basic_stringIcSt11char_traitsIcESaIcEEEji
FN:121,_ZN4Poco15NumberFormatter7append0ERNSt7__cxx1112basic_stringIcSt11char_traitsIcESaIcEEEji
FN:130,_ZN4Poco15NumberFormatter9appendHexERNSt7__cxx1112basic_stringIcSt11char_traitsIcESaIcEEEj
FN:139,_ZN4Poco15NumberFormatter9appendHexERNSt7__cxx1112basic_stringIcSt11char_traitsIcESaIcEEEji
FN:148,_ZN4Poco15NumberFormatter6appendERNSt7__cxx1112basic_stringIcSt11char_traitsIcESaIcEEEl
FN:157,_ZN4Poco15NumberFormatter6appendERNSt7__cxx1112basic_stringIcSt11char_traitsIcESaIcEEEli
FN:166,_ZN4Poco15NumberFormatter7append0ERNSt7__cxx1112basic_stringIcSt11char_traitsIcESaIcEEEli
FN:175,_ZN4Poco15NumberFormatter9appendHexERNSt7__cxx1112basic_stringIcSt11char_traitsIcESaIcEEEl
FN:184,_ZN4Poco15NumberFormatter9appendHexERNSt7__cxx1112basic_stringIcSt11char_traitsIcESaIcEEEli
FN:193,_ZN4Poco15NumberFormatter6appendERNSt7__cxx1112basic_stringIcSt11char_traitsIcESaIcEEEm
FN:202,_ZN4Poco15NumberFormatter6appendERNSt7__cxx1112basic_stringIcSt11char_traitsIcESaIcEEEmi
FN:211,_ZN4Poco15NumberFormatter7append0ERNSt7__cxx1112basic_stringIcSt11char_traitsIcESaIcEEEmi
FN:220,_ZN4Poco15NumberFormatter9appendHexERNSt7__cxx1112basic_stringIcSt11char_traitsIcESaIcEEEm
FN:229,_ZN4Poco15NumberFormatter9appendHexERNSt7__cxx1112basic_stringIcSt11char_traitsIcESaIcEEEmi
FN:242,_ZN4Poco15NumberFormatter6appendERNSt7__cxx1112basic_stringIcSt11char_traitsIcESaIcEEEx
FN:251,_ZN4Poco15NumberFormatter6appendERNSt7__cxx1112basic_stringIcSt11char_traitsIcESaIcEEExi
FN:260,_ZN4Poco15NumberFormatter7append0ERNSt7__cxx1112basic_stringIcSt11char_traitsIcESaIcEEExi
FN:269,_ZN4Poco15NumberFormatter9appendHexERNSt7__cxx1112basic_stringIcSt11char_traitsIcESaIcEEEx
FN:278,_ZN4Poco15NumberFormatter9appendHexERNSt7__cxx1112basic_stringIcSt11char_traitsIcESaIcEEExi
FN:287,_ZN4Poco15NumberFormatter6appendERNSt7__cxx1112basic_stringIcSt11char_traitsIcESaIcEEEy
FN:296,_ZN4Poco15NumberFormatter6appendERNSt7__cxx1112basic_stringIcSt11char_traitsIcESaIcEEEyi
FN:305,_ZN4Poco15NumberFormatter7append0ERNSt7__cxx1112basic_stringIcSt11char_traitsIcESaIcEEEyi
FN:314,_ZN4Poco15NumberFormatter9appendHexERNSt7__cxx1112basic_stringIcSt11char_traitsIcESaIcEEEy
FN:323,_ZN4Poco15NumberFormatter9appendHexERNSt7__cxx1112basic_stringIcSt11char_traitsIcESaIcEEEyi
FN:429,_ZN4Poco15NumberFormatter6appendERNSt7__cxx1112basic_stringIcSt11char_traitsIcESaIcEEEf
FN:437,_ZN4Poco15NumberFormatter6appendERNSt7__cxx1112basic_stringIcSt11char_traitsIcESaIcEEEfi
FN:445,_ZN4Poco15NumberFormatter6appendERNSt7__cxx1112basic_stringIcSt11char_traitsIcESaIcEEEfii
FN:452,_ZN4Poco15NumberFormatter6appendERNSt7__cxx1112basic_stringIcSt11char_traitsIcESaIcEEEd
FN:460,_ZN4Poco15NumberFormatter6appendERNSt7__cxx1112basic_stringIcSt11char_traitsIcESaIcEEEdi
FN:468,_ZN4Poco15NumberFormatter6appendERNSt7__cxx1112basic_stringIcSt11char_traitsIcESaIcEEEdii
FN:475,_ZN4Poco15NumberFormatter6appendERNSt7__cxx1112basic_stringIcSt11char_traitsIcESaIcEEEPKv
FN:487,_Z41__static_initialization_and_destruction_0ii
FN:487,_GLOBAL__sub_I_NumberFormatter.cpp
FNDA:0,_ZN4Poco15NumberFormatter6formatB5cxx11EbNS0_10BoolFormatE
FNDA:0,_ZN4Poco15NumberFormatter6appendERNSt7__cxx1112basic_stringIcSt11char_traitsIcESaIcEEEi
FNDA:0,_ZN4Poco15NumberFormatter6appendERNSt7__cxx1112basic_stringIcSt11char_traitsIcESaIcEEEii
FNDA:0,_ZN4Poco15NumberFormatter7append0ERNSt7__cxx1112basic_stringIcSt11char_traitsIcESaIcEEEii
FNDA:0,_ZN4Poco15NumberFormatter9appendHexERNSt7__cxx1112basic_stringIcSt11char_traitsIcESaIcEEEi
FNDA:0,_ZN4Poco15NumberFormatter9appendHexERNSt7__cxx1112basic_stringIcSt11char_traitsIcESaIcEEEii
FNDA:0,_ZN4Poco15NumberFormatter6appendERNSt7__cxx1112basic_stringIcSt11char_traitsIcESaIcEEEj
FNDA:0,_ZN4Poco15NumberFormatter6appendERNSt7__cxx1112basic_stringIcSt11char_traitsIcESaIcEEEji
FNDA:0,_ZN4Poco15NumberFormatter7append0ERNSt7__cxx1112basic_stringIcSt11char_traitsIcESaIcEEEji
FNDA:0,_ZN4Poco15NumberFormatter9appendHexERNSt7__cxx1112basic_stringIcSt11char_traitsIcESaIcEEEj
FNDA:0,_ZN4Poco15NumberFormatter9appendHexERNSt7__cxx1112basic_stringIcSt11char_traitsIcESaIcEEEji
FNDA:0,_ZN4Poco15NumberFormatter6appendERNSt7__cxx1112basic_stringIcSt11char_traitsIcESaIcEEEl
FNDA:0,_ZN4Poco15NumberFormatter6appendERNSt7__cxx1112basic_stringIcSt11char_traitsIcESaIcEEEli
FNDA:0,_ZN4Poco15NumberFormatter7append0ERNSt7__cxx1112basic_stringIcSt11char_traitsIcESaIcEEEli
FNDA:0,_ZN4Poco15NumberFormatter9appendHexERNSt7__cxx1112basic_stringIcSt11char_traitsIcESaIcEEEl
FNDA:0,_ZN4Poco15NumberFormatter9appendHexERNSt7__cxx1112basic_stringIcSt11char_traitsIcESaIcEEEli
FNDA:0,_ZN4Poco15NumberFormatter6appendERNSt7__cxx1112basic_stringIcSt11char_traitsIcESaIcEEEm
FNDA:0,_ZN4Poco15NumberFormatter6appendERNSt7__cxx1112basic_stringIcSt11char_traitsIcESaIcEEEmi
FNDA:0,_ZN4Poco15NumberFormatter7append0ERNSt7__cxx1112basic_stringIcSt11char_traitsIcESaIcEEEmi
FNDA:0,_ZN4Poco15NumberFormatter9appendHexERNSt7__cxx1112basic_stringIcSt11char_traitsIcESaIcEEEm
FNDA:0,_ZN4Poco15NumberFormatter9appendHexERNSt7__cxx1112basic_stringIcSt11char_traitsIcESaIcEEEmi
FNDA:0,_ZN4Poco15NumberFormatter6appendERNSt7__cxx1112basic_stringIcSt11char_traitsIcESaIcEEEx
FNDA:0,_ZN4Poco15NumberFormatter6appendERNSt7__cxx1112basic_stringIcSt11char_traitsIcESaIcEEExi
FNDA:0,_ZN4Poco15NumberFormatter7append0ERNSt7__cxx1112basic_stringIcSt11char_traitsIcESaIcEEExi
FNDA:0,_ZN4Poco15NumberFormatter9appendHexERNSt7__cxx1112basic_stringIcSt11char_traitsIcESaIcEEEx
FNDA:0,_ZN4Poco15NumberFormatter9appendHexERNSt7__cxx1112basic_stringIcSt11char_traitsIcESaIcEEExi
FNDA:0,_ZN4Poco15NumberFormatter6appendERNSt7__cxx1112basic_stringIcSt11char_traitsIcESaIcEEEy
FNDA:0,_ZN4Poco15NumberFormatter6appendERNSt7__cxx1112basic_stringIcSt11char_traitsIcESaIcEEEyi
FNDA:0,_ZN4Poco15NumberFormatter7append0ERNSt7__cxx1112basic_stringIcSt11char_traitsIcESaIcEEEyi
FNDA:0,_ZN4Poco15NumberFormatter9appendHexERNSt7__cxx1112basic_stringIcSt11char_traitsIcESaIcEEEy
FNDA:0,_ZN4Poco15NumberFormatter9appendHexERNSt7__cxx1112basic_stringIcSt11char_traitsIcESaIcEEEyi
FNDA:0,_ZN4Poco15NumberFormatter6appendERNSt7__cxx1112basic_stringIcSt11char_traitsIcESaIcEEEf
FNDA:0,_ZN4Poco15NumberFormatter6appendERNSt7__cxx1112basic_stringIcSt11char_traitsIcESaIcEEEfi
FNDA:0,_ZN4Poco15NumberFormatter6appendERNSt7__cxx1112basic_stringIcSt11char_traitsIcESaIcEEEfii
FNDA:0,_ZN4Poco15NumberFormatter6appendERNSt7__cxx1112basic_stringIcSt11char_traitsIcESaIcEEEd
FNDA:0,_ZN4Poco15NumberFormatter6appendERNSt7__cxx1112basic_stringIcSt11char_traitsIcESaIcEEEdi
FNDA:0,_ZN4Poco15NumberFormatter6appendERNSt7__cxx1112basic_stringIcSt11char_traitsIcESaIcEEEdii
FNDA:0,_ZN4Poco15NumberFormatter6appendERNSt7__cxx1112basic_stringIcSt11char_traitsIcESaIcEEEPKv
FNDA:1,_GLOBAL__sub_I_NumberFormatter.cpp
FNDA:1,_Z41__static_initialization_and_destruction_0ii
FNF:40
FNH:2
DA:37,0
DA:39,0
DA:41,0
DA:43,0
DA:44,0
DA:45,0
DA:46,0
DA:47,0
DA:48,0
DA:49,0
DA:50,0
DA:51,0
DA:52,0
DA:53,0
DA:58,0
DA:61,0
DA:62,0
DA:63,0
DA:64,0
DA:67,0
DA:70,0
DA:71,0
DA:72,0
DA:73,0
DA:76,0
DA:79,0
DA:80,0
DA:81,0
DA:82,0
DA:85,0
DA:88,0
DA:89,0
DA:90,0
DA:91,0
DA:94,0
DA:97,0
DA:98,0
DA:99,0
DA:100,0
DA:103,0
DA:106,0
DA:107,0
DA:108,0
DA:109,0
DA:112,0
DA:115,0
DA:116,0
DA:117,0
DA:118,0
DA:121,0
DA:124,0
DA:125,0
DA:126,0
DA:127,0
DA:130,0
DA:133,0
DA:134,0
DA:135,0
DA:136,0
DA:139,0
DA:142,0
DA:143,0
DA:144,0
DA:145,0
DA:148,0
DA:151,0
DA:152,0
DA:153,0
DA:154,0
DA:157,0
DA:160,0
DA:161,0
DA:162,0
DA:163,0
DA:166,0
DA:169,0
DA:170,0
DA:171,0
DA:172,0
DA:175,0
DA:178,0
DA:179,0
DA:180,0
DA:181,0
DA:184,0
DA:187,0
DA:188,0
DA:189,0
DA:190,0
DA:193,0
DA:196,0
DA:197,0
DA:198,0
DA:199,0
DA:202,0
DA:205,0
DA:206,0
DA:207,0
DA:208,0
DA:211,0
DA:214,0
DA:215,0
DA:216,0
DA:217,0
DA:220,0
DA:223,0
DA:224,0
DA:225,0
DA:226,0
DA:229,0
DA:232,0
DA:233,0
DA:234,0
DA:235,0
DA:242,0
DA:245,0
DA:246,0
DA:247,0
DA:248,0
DA:251,0
DA:254,0
DA:255,0
DA:256,0
DA:257,0
DA:260,0
DA:263,0
DA:264,0
DA:265,0
DA:266,0
DA:269,0
DA:272,0
DA:273,0
DA:274,0
DA:275,0
DA:278,0
DA:281,0
DA:282,0
DA:283,0
DA:284,0
DA:287,0
DA:290,0
DA:291,0
DA:292,0
DA:293,0
DA:296,0
DA:299,0
DA:300,0
DA:301,0
DA:302,0
DA:305,0
DA:308,0
DA:309,0
DA:310,0
DA:311,0
DA:314,0
DA:317,0
DA:318,0
DA:319,0
DA:320,0
DA:323,0
DA:326,0
DA:327,0
DA:328,0
DA:329,0
DA:429,0
DA:432,0
DA:433,0
DA:434,0
DA:437,0
DA:440,0
DA:441,0
DA:442,0
DA:445,0
DA:447,0
DA:448,0
DA:449,0
DA:452,0
DA:455,0
DA:456,0
DA:457,0
DA:460,0
DA:463,0
DA:464,0
DA:465,0
DA:468,0
DA:470,0
DA:471,0
DA:472,0
DA:475,0
DA:479,0
DA:483,0
DA:484,0
DA:487,3
LF:193
LH:1
end_of_record
SF:/usr/include/c++/7/iostream
DA:74,1
LF:1
LH:1
end_of_record
TN:
SF:/home/vera/poco/Foundation/include/Poco/File.h
FN:273,_ZNK4Poco4File4pathB5cxx11Ev
FNDA:0,_ZNK4Poco4File4pathB5cxx11Ev
FNF:1
FNH:0
DA:273,0
DA:275,0
LF:2
LH:0
end_of_record
SF:/home/vera/poco/Foundation/include/Poco/File_UNIX.h
FN:82,_ZNK4Poco8FileImpl11getPathImplB5cxx11Ev
FNDA:0,_ZNK4Poco8FileImpl11getPathImplB5cxx11Ev
FNF:1
FNH:0
DA:82,0
DA:84,0
LF:2
LH:0
end_of_record
SF:/home/vera/poco/Foundation/include/Poco/Mutex.h
FN:308,_ZN4Poco9FastMutex4lockEv
FN:333,_ZN4Poco9FastMutex6unlockEv
FNDA:0,_ZN4Poco9FastMutex4lockEv
FNDA:0,_ZN4Poco9FastMutex6unlockEv
FNF:2
FNH:0
DA:308,0
DA:310,0
DA:311,0
DA:333,0
DA:335,0
DA:336,0
LF:6
LH:0
end_of_record
SF:/home/vera/poco/Foundation/include/Poco/Mutex_POSIX.h
FN:57,_ZN4Poco9MutexImpl8lockImplEv
FN:76,_ZN4Poco9MutexImpl10unlockImplEv
FNDA:0,_ZN4Poco9MutexImpl8lockImplEv
FNDA:0,_ZN4Poco9MutexImpl10unlockImplEv
FNF:2
FNH:0
DA:57,0
DA:59,0
DA:60,0
DA:61,0
DA:76,0
DA:78,0
DA:79,0
DA:80,0
LF:8
LH:0
end_of_record
SF:/home/vera/poco/Foundation/include/Poco/Path.h
FN:474,_ZN4Poco4Path9separatorEv
FNDA:0,_ZN4Poco4Path9separatorEv
FNF:1
FNH:0
DA:474,0
DA:481,0
LF:2
LH:0
end_of_record
SF:/home/vera/poco/Foundation/include/Poco/Process.h
FN:258,_ZN4Poco7Process2idEv
FNDA:0,_ZN4Poco7Process2idEv
FNF:1
FNH:0
DA:258,0
DA:260,0
LF:2
LH:0
end_of_record
SF:/home/vera/poco/Foundation/include/Poco/ScopedLock.h
FN:36,_ZN4Poco10ScopedLockINS_9FastMutexEEC2ERS1_
FN:46,_ZN4Poco10ScopedLockINS_9FastMutexEED2Ev
FNDA:0,_ZN4Poco10ScopedLockINS_9FastMutexEEC2ERS1_
FNDA:0,_ZN4Poco10ScopedLockINS_9FastMutexEED2Ev
FNF:2
FNH:0
DA:36,0
DA:38,0
DA:39,0
DA:46,0
DA:50,0
DA:52,0
DA:54,0
DA:56,0
LF:8
LH:0
end_of_record
SF:/home/vera/poco/Foundation/src/TemporaryFile.cpp
FN:32,_ZN4Poco17TempFileCollectorC2Ev
FN:36,_ZN4Poco17TempFileCollectorD2Ev
FN:59,_ZN4Poco17TempFileCollector12registerFileERKNSt7__cxx1112basic_stringIcSt11char_traitsIcESaIcEEE
FN:73,_ZN4Poco13TemporaryFileC2Ev
FN:80,_ZN4Poco13TemporaryFileC2ERKNSt7__cxx1112basic_stringIcSt11char_traitsIcESaIcEEE
FN:87,_ZN4Poco13TemporaryFileD2Ev
FN:87,_ZN4Poco13TemporaryFileD0Ev
FN:110,_ZN4Poco13TemporaryFile4keepEv
FN:116,_ZN4Poco13TemporaryFile13keepUntilExitEv
FN:129,_ZN4Poco13TemporaryFile19registerForDeletionERKNSt7__cxx1112basic_stringIcSt11char_traitsIcESaIcEEE
FN:141,_ZN4Poco13TemporaryFile8tempNameERKNSt7__cxx1112basic_stringIcSt11char_traitsIcESaIcEEE
FN:167,_Z41__static_initialization_and_destruction_0ii
FN:167,_GLOBAL__sub_I_TemporaryFile.cpp
FNDA:1,_ZN4Poco17TempFileCollectorC2Ev
FNDA:1,_ZN4Poco17TempFileCollectorD2Ev
FNDA:0,_ZN4Poco17TempFileCollector12registerFileERKNSt7__cxx1112basic_stringIcSt11char_traitsIcESaIcEEE
FNDA:0,_ZN4Poco13TemporaryFileC2Ev
FNDA:0,_ZN4Poco13TemporaryFileC2ERKNSt7__cxx1112basic_stringIcSt11char_traitsIcESaIcEEE
FNDA:0,_ZN4Poco13TemporaryFileD0Ev
FNDA:0,_ZN4Poco13TemporaryFileD2Ev
FNDA:0,_ZN4Poco13TemporaryFile4keepEv
FNDA:0,_ZN4Poco13TemporaryFile13keepUntilExitEv
FNDA:0,_ZN4Poco13TemporaryFile19registerForDeletionERKNSt7__cxx1112basic_stringIcSt11char_traitsIcESaIcEEE
FNDA:0,_ZN4Poco13TemporaryFile8tempNameERKNSt7__cxx1112basic_stringIcSt11char_traitsIcESaIcEEE
FNDA:1,_GLOBAL__sub_I_TemporaryFile.cpp
FNDA:1,_Z41__static_initialization_and_destruction_0ii
FNF:13
FNH:4
DA:32,1
DA:33,1
DA:34,1
DA:36,1
DA:37,1
DA:40,1
DA:44,0
DA:45,0
DA:46,0
DA:48,0
DA:53,0
DA:55,0
DA:57,1
DA:59,0
DA:61,0
DA:63,0
DA:64,0
DA:65,0
DA:73,0
DA:74,0
DA:75,0
DA:77,0
DA:80,0
DA:81,0
DA:82,0
DA:84,0
DA:87,0
DA:91,0
DA:95,0
DA:96,0
DA:98,0
DA:103,0
DA:105,0
DA:107,0
DA:110,0
DA:112,0
DA:113,0
DA:116,0
DA:118,0
DA:119,0
DA:120,0
DA:125,1
DA:129,0
DA:131,0
DA:132,0
DA:137,1
DA:141,0
DA:143,0
DA:145,0
DA:146,0
DA:147,0
DA:148,0
DA:149,0
DA:151,0
DA:156,0
DA:158,0
DA:160,0
DA:161,0
DA:163,0
DA:167,3
LF:60
LH:10
end_of_record
SF:/usr/include/c++/7/bits/alloc_traits.h
FN:435,_ZNSt16allocator_traitsISaISt13_Rb_tree_nodeINSt7__cxx1112basic_stringIcSt11char_traitsIcESaIcEEEEEE8allocateERS8_m
FN:461,_ZNSt16allocator_traitsISaISt13_Rb_tree_nodeINSt7__cxx1112basic_stringIcSt11char_traitsIcESaIcEEEEEE10deallocateERS8_PS7_m
FN:474,_ZNSt16allocator_traitsISaISt13_Rb_tree_nodeINSt7__cxx1112basic_stringIcSt11char_traitsIcESaIcEEEEEE9constructIS6_JS6_EEEvRS8_PT_DpOT0_
FN:486,_ZNSt16allocator_traitsISaISt13_Rb_tree_nodeINSt7__cxx1112basic_stringIcSt11char_traitsIcESaIcEEEEEE7destroyIS6_EEvRS8_PT_
FNDA:0,_ZNSt16allocator_traitsISaISt13_Rb_tree_nodeINSt7__cxx1112basic_stringIcSt11char_traitsIcESaIcEEEEEE8allocateERS8_m
FNDA:0,_ZNSt16allocator_traitsISaISt13_Rb_tree_nodeINSt7__cxx1112basic_stringIcSt11char_traitsIcESaIcEEEEEE10deallocateERS8_PS7_m
FNDA:0,_ZNSt16allocator_traitsISaISt13_Rb_tree_nodeINSt7__cxx1112basic_stringIcSt11char_traitsIcESaIcEEEEEE9constructIS6_JS6_EEEvRS8_PT_DpOT0_
FNDA:0,_ZNSt16allocator_traitsISaISt13_Rb_tree_nodeINSt7__cxx1112basic_stringIcSt11char_traitsIcESaIcEEEEEE7destroyIS6_EEvRS8_PT_
FNF:4
FNH:0
DA:435,0
DA:436,0
DA:461,0
DA:462,0
DA:474,0
DA:475,0
DA:486,0
DA:487,0
LF:8
LH:0
end_of_record
SF:/usr/include/c++/7/bits/allocator.h
FN:131,_ZNSaISt13_Rb_tree_nodeINSt7__cxx1112basic_stringIcSt11char_traitsIcESaIcEEEEEC2Ev
FN:139,_ZNSaISt13_Rb_tree_nodeINSt7__cxx1112basic_stringIcSt11char_traitsIcESaIcEEEEED2Ev
FNDA:1,_ZNSaISt13_Rb_tree_nodeINSt7__cxx1112basic_stringIcSt11char_traitsIcESaIcEEEEEC2Ev
FNDA:1,_ZNSaISt13_Rb_tree_nodeINSt7__cxx1112basic_stringIcSt11char_traitsIcESaIcEEEEED2Ev
FNF:2
FNH:2
DA:131,1
DA:139,1
LF:2
LH:2
end_of_record
SF:/usr/include/c++/7/bits/basic_string.h
FN:6094,_ZStltIcSt11char_traitsIcESaIcEEbRKNSt7__cxx1112basic_stringIT_T0_T1_EESA_
FNDA:0,_ZStltIcSt11char_traitsIcESaIcEEbRKNSt7__cxx1112basic_stringIT_T0_T1_EESA_
FNF:1
FNH:0
DA:6094,0
DA:6097,0
LF:2
LH:0
end_of_record
SF:/usr/include/c++/7/bits/move.h
FN:73,_ZSt7forwardISt17_Rb_tree_iteratorINSt7__cxx1112basic_stringIcSt11char_traitsIcESaIcEEEEEOT_RNSt16remove_referenceIS8_E4typeE
FN:73,_ZSt7forwardIRbEOT_RNSt16remove_referenceIS1_E4typeE
FN:73,_ZSt7forwardIRSt17_Rb_tree_iteratorINSt7__cxx1112basic_stringIcSt11char_traitsIcESaIcEEEEEOT_RNSt16remove_referenceIS9_E4typeE
FN:73,_ZSt7forwardINSt7__cxx1112basic_stringIcSt11char_traitsIcESaIcEEEEOT_RNSt16remove_referenceIS6_E4typeE
FN:73,_ZSt7forwardIRPSt13_Rb_tree_nodeINSt7__cxx1112basic_stringIcSt11char_traitsIcESaIcEEEEEOT_RNSt16remove_referenceISA_E4typeE
FN:73,_ZSt7forwardIRPSt18_Rb_tree_node_baseEOT_RNSt16remove_referenceIS3_E4typeE
FN:73,_ZSt7forwardIbEOT_RNSt16remove_referenceIS0_E4typeE
FN:98,_ZSt4moveIRNSt7__cxx1112basic_stringIcSt11char_traitsIcESaIcEEEEONSt16remove_referenceIT_E4typeEOS8_
FNDA:0,_ZSt7forwardIbEOT_RNSt16remove_referenceIS0_E4typeE
FNDA:0,_ZSt7forwardIRbEOT_RNSt16remove_referenceIS1_E4typeE
FNDA:0,_ZSt7forwardISt17_Rb_tree_iteratorINSt7__cxx1112basic_stringIcSt11char_traitsIcESaIcEEEEEOT_RNSt16remove_referenceIS8_E4typeE
FNDA:0,_ZSt7forwardIRPSt18_Rb_tree_node_baseEOT_RNSt16remove_referenceIS3_E4typeE
FNDA:0,_ZSt7forwardIRPSt13_Rb_tree_nodeINSt7__cxx1112basic_stringIcSt11char_traitsIcESaIcEEEEEOT_RNSt16remove_referenceISA_E4typeE
FNDA:0,_ZSt7forwardIRSt17_Rb_tree_iteratorINSt7__cxx1112basic_stringIcSt11char_traitsIcESaIcEEEEEOT_RNSt16remove_referenceIS9_E4typeE
FNDA:0,_ZSt7forwardINSt7__cxx1112basic_stringIcSt11char_traitsIcESaIcEEEEOT_RNSt16remove_referenceIS6_E4typeE
FNDA:0,_ZSt4moveIRNSt7__cxx1112basic_stringIcSt11char_traitsIcESaIcEEEEONSt16remove_referenceIT_E4typeEOS8_
FNF:8
FNH:0
DA:73,0
DA:74,0
DA:98,0
DA:99,0
LF:4
LH:0
end_of_record
SF:/usr/include/c++/7/bits/stl_function.h
FN:385,_ZNKSt4lessINSt7__cxx1112basic_stringIcSt11char_traitsIcESaIcEEEEclERKS5_S8_
FN:873,_ZNKSt9_IdentityINSt7__cxx1112basic_stringIcSt11char_traitsIcESaIcEEEEclERS5_
FN:877,_ZNKSt9_IdentityINSt7__cxx1112basic_stringIcSt11char_traitsIcESaIcEEEEclERKS5_
FNDA:0,_ZNKSt4lessINSt7__cxx1112basic_stringIcSt11char_traitsIcESaIcEEEEclERKS5_S8_
FNDA:0,_ZNKSt9_IdentityINSt7__cxx1112basic_stringIcSt11char_traitsIcESaIcEEEEclERS5_
FNDA:0,_ZNKSt9_IdentityINSt7__cxx1112basic_stringIcSt11char_traitsIcESaIcEEEEclERKS5_
FNF:3
FNH:0
DA:385,0
DA:386,0
DA:873,0
DA:874,0
DA:877,0
DA:878,0
LF:6
LH:0
end_of_record
SF:/usr/include/c++/7/bits/stl_pair.h
FN:311,_ZNSt4pairIPSt18_Rb_tree_node_baseS1_EC2IRS1_Lb1EEEOT_RKS1_
FN:341,_ZNSt4pairISt17_Rb_tree_iteratorINSt7__cxx1112basic_stringIcSt11char_traitsIcESaIcEEEEbEC2IS7_bLb1EEEOT_OT0_
FN:341,_ZNSt4pairIPSt18_Rb_tree_node_baseS1_EC2IRPSt13_Rb_tree_nodeINSt7__cxx1112basic_stringIcSt11char_traitsIcESaIcEEEERS1_Lb1EEEOT_OT0_
FN:341,_ZNSt4pairISt23_Rb_tree_const_iteratorINSt7__cxx1112basic_stringIcSt11char_traitsIcESaIcEEEEbEC2IRSt17_Rb_tree_iteratorIS6_ERbLb1EEEOT_OT0_
FNDA:0,_ZNSt4pairIPSt18_Rb_tree_node_baseS1_EC2IRS1_Lb1EEEOT_RKS1_
FNDA:0,_ZNSt4pairISt17_Rb_tree_iteratorINSt7__cxx1112basic_stringIcSt11char_traitsIcESaIcEEEEbEC2IS7_bLb1EEEOT_OT0_
FNDA:0,_ZNSt4pairIPSt18_Rb_tree_node_baseS1_EC2IRPSt13_Rb_tree_nodeINSt7__cxx1112basic_stringIcSt11char_traitsIcESaIcEEEERS1_Lb1EEEOT_OT0_
FNDA:0,_ZNSt4pairISt23_Rb_tree_const_iteratorINSt7__cxx1112basic_stringIcSt11char_traitsIcESaIcEEEEbEC2IRSt17_Rb_tree_iteratorIS6_ERbLb1EEEOT_OT0_
FNF:4
FNH:0
DA:311,0
DA:312,0
DA:341,0
DA:342,0
LF:4
LH:0
end_of_record
SF:/usr/include/c++/7/bits/stl_set.h
FN:157,_ZNSt3setINSt7__cxx1112basic_stringIcSt11char_traitsIcESaIcEEESt4lessIS5_ESaIS5_EEC2Ev
FN:271,_ZNSt3setINSt7__cxx1112basic_stringIcSt11char_traitsIcESaIcEEESt4lessIS5_ESaIS5_EED2Ev
FN:334,_ZNKSt3setINSt7__cxx1112basic_stringIcSt11char_traitsIcESaIcEEESt4lessIS5_ESaIS5_EE5beginEv
FN:343,_ZNKSt3setINSt7__cxx1112basic_stringIcSt11char_traitsIcESaIcEEESt4lessIS5_ESaIS5_EE3endEv
FN:508,_ZNSt3setINSt7__cxx1112basic_stringIcSt11char_traitsIcESaIcEEESt4lessIS5_ESaIS5_EE6insertEOS5_
FNDA:1,_ZNSt3setINSt7__cxx1112basic_stringIcSt11char_traitsIcESaIcEEESt4lessIS5_ESaIS5_EEC2Ev
FNDA:1,_ZNSt3setINSt7__cxx1112basic_stringIcSt11char_traitsIcESaIcEEESt4lessIS5_ESaIS5_EED2Ev
FNDA:1,_ZNKSt3setINSt7__cxx1112basic_stringIcSt11char_traitsIcESaIcEEESt4lessIS5_ESaIS5_EE5beginEv
FNDA:1,_ZNKSt3setINSt7__cxx1112basic_stringIcSt11char_traitsIcESaIcEEESt4lessIS5_ESaIS5_EE3endEv
FNDA:0,_ZNSt3setINSt7__cxx1112basic_stringIcSt11char_traitsIcESaIcEEESt4lessIS5_ESaIS5_EE6insertEOS5_
FNF:5
FNH:4
DA:157,1
DA:271,1
DA:334,1
DA:335,1
DA:343,1
DA:344,1
DA:508,0
DA:510,0
DA:511,0
DA:512,0
LF:10
LH:6
end_of_record
SF:/usr/include/c++/7/bits/stl_tree.h
FN:146,_ZNSt20_Rb_tree_key_compareISt4lessINSt7__cxx1112basic_stringIcSt11char_traitsIcESaIcEEEEEC2Ev
FN:173,_ZNSt15_Rb_tree_headerC2Ev
FN:206,_ZNSt15_Rb_tree_header8_M_resetEv
FN:234,_ZNSt13_Rb_tree_nodeINSt7__cxx1112basic_stringIcSt11char_traitsIcESaIcEEEE9_M_valptrEv
FN:238,_ZNKSt13_Rb_tree_nodeINSt7__cxx1112basic_stringIcSt11char_traitsIcESaIcEEEE9_M_valptrEv
FN:273,_ZNSt17_Rb_tree_iteratorINSt7__cxx1112basic_stringIcSt11char_traitsIcESaIcEEEEC2EPSt18_Rb_tree_node_base
FN:300,_ZNSt17_Rb_tree_iteratorINSt7__cxx1112basic_stringIcSt11char_traitsIcESaIcEEEEmmEv
FN:315,_ZNKSt17_Rb_tree_iteratorINSt7__cxx1112basic_stringIcSt11char_traitsIcESaIcEEEEeqERKS6_
FN:345,_ZNSt23_Rb_tree_const_iteratorINSt7__cxx1112basic_stringIcSt11char_traitsIcESaIcEEEEC2EPKSt18_Rb_tree_node_base
FN:348,_ZNSt23_Rb_tree_const_iteratorINSt7__cxx1112basic_stringIcSt11char_traitsIcESaIcEEEEC2ERKSt17_Rb_tree_iteratorIS5_E
FN:356,_ZNKSt23_Rb_tree_const_iteratorINSt7__cxx1112basic_stringIcSt11char_traitsIcESaIcEEEEdeEv
FN:364,_ZNSt23_Rb_tree_const_iteratorINSt7__cxx1112basic_stringIcSt11char_traitsIcESaIcEEEEppEv
FN:398,_ZNKSt23_Rb_tree_const_iteratorINSt7__cxx1112basic_stringIcSt11char_traitsIcESaIcEEEEneERKS6_
FN:546,_ZNSt8_Rb_treeINSt7__cxx1112basic_stringIcSt11char_traitsIcESaIcEEES5_St9_IdentityIS5_ESt4lessIS5_ESaIS5_EE11_Alloc_nodeC2ERSB_
FN:554,_ZNKSt8_Rb_treeINSt7__cxx1112basic_stringIcSt11char_traitsIcESaIcEEES5_St9_IdentityIS5_ESt4lessIS5_ESaIS5_EE11_Alloc_nodeclIS5_EEPSt13_Rb_tree_nodeIS5_EOT_
FN:574,_ZNSt8_Rb_treeINSt7__cxx1112basic_stringIcSt11char_traitsIcESaIcEEES5_St9_IdentityIS5_ESt4lessIS5_ESaIS5_EE21_M_get_Node_allocatorEv
FN:587,_ZNSt8_Rb_treeINSt7__cxx1112basic_stringIcSt11char_traitsIcESaIcEEES5_St9_IdentityIS5_ESt4lessIS5_ESaIS5_EE11_M_get_nodeEv
FN:591,_ZNSt8_Rb_treeINSt7__cxx1112basic_stringIcSt11char_traitsIcESaIcEEES5_St9_IdentityIS5_ESt4lessIS5_ESaIS5_EE11_M_put_nodeEPSt13_Rb_tree_nodeIS5_E
FN:621,_ZNSt8_Rb_treeINSt7__cxx1112basic_stringIcSt11char_traitsIcESaIcEEES5_St9_IdentityIS5_ESt4lessIS5_ESaIS5_EE17_M_construct_nodeIJS5_EEEvPSt13_Rb_tree_nodeIS5_EDpOT_
FN:640,_ZNSt8_Rb_treeINSt7__cxx1112basic_stringIcSt11char_traitsIcESaIcEEES5_St9_IdentityIS5_ESt4lessIS5_ESaIS5_EE14_M_create_nodeIJS5_EEEPSt13_Rb_tree_nodeIS5_EDpOT_
FN:648,_ZNSt8_Rb_treeINSt7__cxx1112basic_stringIcSt11char_traitsIcESaIcEEES5_St9_IdentityIS5_ESt4lessIS5_ESaIS5_EE15_M_destroy_nodeEPSt13_Rb_tree_nodeIS5_E
FN:656,_ZNSt8_Rb_treeINSt7__cxx1112basic_stringIcSt11char_traitsIcESaIcEEES5_St9_IdentityIS5_ESt4lessIS5_ESaIS5_EE12_M_drop_nodeEPSt13_Rb_tree_nodeIS5_E
FN:677,_ZNSt8_Rb_treeINSt7__cxx1112basic_stringIcSt11char_traitsIcESaIcEEES5_St9_IdentityIS5_ESt4lessIS5_ESaIS5_EE13_Rb_tree_implIS9_Lb1EED2Ev
FN:688,_ZNSt8_Rb_treeINSt7__cxx1112basic_stringIcSt11char_traitsIcESaIcEEES5_St9_IdentityIS5_ESt4lessIS5_ESaIS5_EE13_Rb_tree_implIS9_Lb1EEC2Ev
FN:736,_ZNSt8_Rb_treeINSt7__cxx1112basic_stringIcSt11char_traitsIcESaIcEEES5_St9_IdentityIS5_ESt4lessIS5_ESaIS5_EE8_M_beginEv
FN:747,_ZNSt8_Rb_treeINSt7__cxx1112basic_stringIcSt11char_traitsIcESaIcEEES5_St9_IdentityIS5_ESt4lessIS5_ESaIS5_EE6_M_endEv
FN:755,_ZNSt8_Rb_treeINSt7__cxx1112basic_stringIcSt11char_traitsIcESaIcEEES5_St9_IdentityIS5_ESt4lessIS5_ESaIS5_EE8_S_valueEPKSt13_Rb_tree_nodeIS5_E
FN:759,_ZNSt8_Rb_treeINSt7__cxx1112basic_stringIcSt11char_traitsIcESaIcEEES5_St9_IdentityIS5_ESt4lessIS5_ESaIS5_EE6_S_keyEPKSt13_Rb_tree_nodeIS5_E
FN:763,_ZNSt8_Rb_treeINSt7__cxx1112basic_stringIcSt11char_traitsIcESaIcEEES5_St9_IdentityIS5_ESt4lessIS5_ESaIS5_EE7_S_leftEPSt18_Rb_tree_node_base
FN:771,_ZNSt8_Rb_treeINSt7__cxx1112basic_stringIcSt11char_traitsIcESaIcEEES5_St9_IdentityIS5_ESt4lessIS5_ESaIS5_EE8_S_rightEPSt18_Rb_tree_node_base
FN:779,_ZNSt8_Rb_treeINSt7__cxx1112basic_stringIcSt11char_traitsIcESaIcEEES5_St9_IdentityIS5_ESt4lessIS5_ESaIS5_EE8_S_valueEPKSt18_Rb_tree_node_base
FN:783,_ZNSt8_Rb_treeINSt7__cxx1112basic_stringIcSt11char_traitsIcESaIcEEES5_St9_IdentityIS5_ESt4lessIS5_ESaIS5_EE6_S_keyEPKSt18_Rb_tree_node_base
FN:913,_ZNSt8_Rb_treeINSt7__cxx1112basic_stringIcSt11char_traitsIcESaIcEEES5_St9_IdentityIS5_ESt4lessIS5_ESaIS5_EEC2Ev
FN:948,_ZNSt8_Rb_treeINSt7__cxx1112basic_stringIcSt11char_traitsIcESaIcEEES5_St9_IdentityIS5_ESt4lessIS5_ESaIS5_EED2Ev
FN:960,_ZNSt8_Rb_treeINSt7__cxx1112basic_stringIcSt11char_traitsIcESaIcEEES5_St9_IdentityIS5_ESt4lessIS5_ESaIS5_EE5beginEv
FN:964,_ZNKSt8_Rb_treeINSt7__cxx1112basic_stringIcSt11char_traitsIcESaIcEEES5_St9_IdentityIS5_ESt4lessIS5_ESaIS5_EE5beginEv
FN:972,_ZNKSt8_Rb_treeINSt7__cxx1112basic_stringIcSt11char_traitsIcESaIcEEES5_St9_IdentityIS5_ESt4lessIS5_ESaIS5_EE3endEv
FN:1740,_ZNSt8_Rb_treeINSt7__cxx1112basic_stringIcSt11char_traitsIcESaIcEEES5_St9_IdentityIS5_ESt4lessIS5_ESaIS5_EE10_M_insert_IS5_NSB_11_Alloc_nodeEEESt17_Rb_tree_iteratorIS5_EPSt18_Rb_tree_node_baseSH_OT_RT0_
FN:1850,_ZNSt8_Rb_treeINSt7__cxx1112basic_stringIcSt11char_traitsIcESaIcEEES5_St9_IdentityIS5_ESt4lessIS5_ESaIS5_EE8_M_eraseEPSt13_Rb_tree_nodeIS5_E
FN:2028,_ZNSt8_Rb_treeINSt7__cxx1112basic_stringIcSt11char_traitsIcESaIcEEES5_St9_IdentityIS5_ESt4lessIS5_ESaIS5_EE24_M_get_insert_unique_posERKS5_
FN:2082,_ZNSt8_Rb_treeINSt7__cxx1112basic_stringIcSt11char_traitsIcESaIcEEES5_St9_IdentityIS5_ESt4lessIS5_ESaIS5_EE16_M_insert_uniqueIS5_EESt4pairISt17_Rb_tree_iteratorIS5_EbEOT_
FNDA:0,_ZNSt20_Rb_tree_key_compareISt4lessINSt7__cxx1112basic_stringIcSt11char_traitsIcESaIcEEEEEC2Ev
FNDA:0,_ZNSt15_Rb_tree_headerC2Ev
FNDA:0,_ZNSt15_Rb_tree_header8_M_resetEv
FNDA:0,_ZNSt13_Rb_tree_nodeINSt7__cxx1112basic_stringIcSt11char_traitsIcESaIcEEEE9_M_valptrEv
FNDA:0,_ZNKSt13_Rb_tree_nodeINSt7__cxx1112basic_stringIcSt11char_traitsIcESaIcEEEE9_M_valptrEv
FNDA:0,_ZNSt17_Rb_tree_iteratorINSt7__cxx1112basic_stringIcSt11char_traitsIcESaIcEEEEC2EPSt18_Rb_tree_node_base
FNDA:0,_ZNSt17_Rb_tree_iteratorINSt7__cxx1112basic_stringIcSt11char_traitsIcESaIcEEEEmmEv
FNDA:0,_ZNKSt17_Rb_tree_iteratorINSt7__cxx1112basic_stringIcSt11char_traitsIcESaIcEEEEeqERKS6_
FNDA:2,_ZNSt23_Rb_tree_const_iteratorINSt7__cxx1112basic_stringIcSt11char_traitsIcESaIcEEEEC2EPKSt18_Rb_tree_node_base
FNDA:0,_ZNSt23_Rb_tree_const_iteratorINSt7__cxx1112basic_stringIcSt11char_traitsIcESaIcEEEEC2ERKSt17_Rb_tree_iteratorIS5_E
FNDA:0,_ZNKSt23_Rb_tree_const_iteratorINSt7__cxx1112basic_stringIcSt11char_traitsIcESaIcEEEEdeEv
FNDA:0,_ZNSt23_Rb_tree_const_iteratorINSt7__cxx1112basic_stringIcSt11char_traitsIcESaIcEEEEppEv
FNDA:1,_ZNKSt23_Rb_tree_const_iteratorINSt7__cxx1112basic_stringIcSt11char_traitsIcESaIcEEEEneERKS6_
FNDA:0,_ZNSt8_Rb_treeINSt7__cxx1112basic_stringIcSt11char_traitsIcESaIcEEES5_St9_IdentityIS5_ESt4lessIS5_ESaIS5_EE11_Alloc_nodeC2ERSB_
FNDA:0,_ZNKSt8_Rb_treeINSt7__cxx1112basic_stringIcSt11char_traitsIcESaIcEEES5_St9_IdentityIS5_ESt4lessIS5_ESaIS5_EE11_Alloc_nodeclIS5_EEPSt13_Rb_tree_nodeIS5_EOT_
FNDA:0,_ZNSt8_Rb_treeINSt7__cxx1112basic_stringIcSt11char_traitsIcESaIcEEES5_St9_IdentityIS5_ESt4lessIS5_ESaIS5_EE21_M_get_Node_allocatorEv
FNDA:0,_ZNSt8_Rb_treeINSt7__cxx1112basic_stringIcSt11char_traitsIcESaIcEEES5_St9_IdentityIS5_ESt4lessIS5_ESaIS5_EE11_M_get_nodeEv
FNDA:0,_ZNSt8_Rb_treeINSt7__cxx1112basic_stringIcSt11char_traitsIcESaIcEEES5_St9_IdentityIS5_ESt4lessIS5_ESaIS5_EE11_M_put_nodeEPSt13_Rb_tree_nodeIS5_E
FNDA:0,_ZNSt8_Rb_treeINSt7__cxx1112basic_stringIcSt11char_traitsIcESaIcEEES5_St9_IdentityIS5_ESt4lessIS5_ESaIS5_EE17_M_construct_nodeIJS5_EEEvPSt13_Rb_tree_nodeIS5_EDpOT_
FNDA:0,_ZNSt8_Rb_treeINSt7__cxx1112basic_stringIcSt11char_traitsIcESaIcEEES5_St9_IdentityIS5_ESt4lessIS5_ESaIS5_EE14_M_create_nodeIJS5_EEEPSt13_Rb_tree_nodeIS5_EDpOT_
FNDA:0,_ZNSt8_Rb_treeINSt7__cxx1112basic_stringIcSt11char_traitsIcESaIcEEES5_St9_IdentityIS5_ESt4lessIS5_ESaIS5_EE15_M_destroy_nodeEPSt13_Rb_tree_nodeIS5_E
FNDA:0,_ZNSt8_Rb_treeINSt7__cxx1112basic_stringIcSt11char_traitsIcESaIcEEES5_St9_IdentityIS5_ESt4lessIS5_ESaIS5_EE12_M_drop_nodeEPSt13_Rb_tree_nodeIS5_E
FNDA:1,_ZNSt8_Rb_treeINSt7__cxx1112basic_stringIcSt11char_traitsIcESaIcEEES5_St9_IdentityIS5_ESt4lessIS5_ESaIS5_EE13_Rb_tree_implIS9_Lb1EED2Ev
FNDA:1,_ZNSt8_Rb_treeINSt7__cxx1112basic_stringIcSt11char_traitsIcESaIcEEES5_St9_IdentityIS5_ESt4lessIS5_ESaIS5_EE13_Rb_tree_implIS9_Lb1EEC2Ev
FNDA:0,_ZNSt8_Rb_treeINSt7__cxx1112basic_stringIcSt11char_traitsIcESaIcEEES5_St9_IdentityIS5_ESt4lessIS5_ESaIS5_EE8_M_beginEv
FNDA:0,_ZNSt8_Rb_treeINSt7__cxx1112basic_stringIcSt11char_traitsIcESaIcEEES5_St9_IdentityIS5_ESt4lessIS5_ESaIS5_EE6_M_endEv
FNDA:0,_ZNSt8_Rb_treeINSt7__cxx1112basic_stringIcSt11char_traitsIcESaIcEEES5_St9_IdentityIS5_ESt4lessIS5_ESaIS5_EE8_S_valueEPKSt13_Rb_tree_nodeIS5_E
FNDA:0,_ZNSt8_Rb_treeINSt7__cxx1112basic_stringIcSt11char_traitsIcESaIcEEES5_St9_IdentityIS5_ESt4lessIS5_ESaIS5_EE6_S_keyEPKSt13_Rb_tree_nodeIS5_E
FNDA:0,_ZNSt8_Rb_treeINSt7__cxx1112basic_stringIcSt11char_traitsIcESaIcEEES5_St9_IdentityIS5_ESt4lessIS5_ESaIS5_EE7_S_leftEPSt18_Rb_tree_node_base
FNDA:0,_ZNSt8_Rb_treeINSt7__cxx1112basic_stringIcSt11char_traitsIcESaIcEEES5_St9_IdentityIS5_ESt4lessIS5_ESaIS5_EE8_S_rightEPSt18_Rb_tree_node_base
FNDA:0,_ZNSt8_Rb_treeINSt7__cxx1112basic_stringIcSt11char_traitsIcESaIcEEES5_St9_IdentityIS5_ESt4lessIS5_ESaIS5_EE8_S_valueEPKSt18_Rb_tree_node_base
FNDA:0,_ZNSt8_Rb_treeINSt7__cxx1112basic_stringIcSt11char_traitsIcESaIcEEES5_St9_IdentityIS5_ESt4lessIS5_ESaIS5_EE6_S_keyEPKSt18_Rb_tree_node_base
FNDA:1,_ZNSt8_Rb_treeINSt7__cxx1112basic_stringIcSt11char_traitsIcESaIcEEES5_St9_IdentityIS5_ESt4lessIS5_ESaIS5_EEC2Ev
FNDA:1,_ZNSt8_Rb_treeINSt7__cxx1112basic_stringIcSt11char_traitsIcESaIcEEES5_St9_IdentityIS5_ESt4lessIS5_ESaIS5_EED2Ev
FNDA:0,_ZNSt8_Rb_treeINSt7__cxx1112basic_stringIcSt11char_traitsIcESaIcEEES5_St9_IdentityIS5_ESt4lessIS5_ESaIS5_EE5beginEv
FNDA:1,_ZNKSt8_Rb_treeINSt7__cxx1112basic_stringIcSt11char_traitsIcESaIcEEES5_St9_IdentityIS5_ESt4lessIS5_ESaIS5_EE5beginEv
FNDA:1,_ZNKSt8_Rb_treeINSt7__cxx1112basic_stringIcSt11char_traitsIcESaIcEEES5_St9_IdentityIS5_ESt4lessIS5_ESaIS5_EE3endEv
FNDA:0,_ZNSt8_Rb_treeINSt7__cxx1112basic_stringIcSt11char_traitsIcESaIcEEES5_St9_IdentityIS5_ESt4lessIS5_ESaIS5_EE10_M_insert_IS5_NSB_11_Alloc_nodeEEESt17_Rb_tree_iteratorIS5_EPSt18_Rb_tree_node_baseSH_OT_RT0_
FNDA:1,_ZNSt8_Rb_treeINSt7__cxx1112basic_stringIcSt11char_traitsIcESaIcEEES5_St9_IdentityIS5_ESt4lessIS5_ESaIS5_EE8_M_eraseEPSt13_Rb_tree_nodeIS5_E
FNDA:0,_ZNSt8_Rb_treeINSt7__cxx1112basic_stringIcSt11char_traitsIcESaIcEEES5_St9_IdentityIS5_ESt4lessIS5_ESaIS5_EE24_M_get_insert_unique_posERKS5_
FNDA:0,_ZNSt8_Rb_treeINSt7__cxx1112basic_stringIcSt11char_traitsIcESaIcEEES5_St9_IdentityIS5_ESt4lessIS5_ESaIS5_EE16_M_insert_uniqueIS5_EESt4pairISt17_Rb_tree_iteratorIS5_EbEOT_
FNF:41
FNH:9
DA:146,0
DA:150,0
DA:173,0
DA:174,0
DA:175,0
DA:176,0
DA:177,0
DA:206,0
DA:208,0
DA:209,0
DA:210,0
DA:211,0
DA:212,0
DA:234,0
DA:235,0
DA:238,0
DA:239,0
DA:273,0
DA:274,0
DA:300,0
DA:302,0
DA:303,0
DA:315,0
DA:316,0
DA:345,2
DA:346,2
DA:348,0
DA:349,0
DA:356,0
DA:357,0
DA:364,0
DA:366,0
DA:367,0
DA:398,1
DA:399,1
DA:546,0
DA:547,0
DA:554,0
DA:556,0
DA:574,0
DA:575,0
DA:587,0
DA:588,0
DA:591,0
DA:592,0
DA:621,0
DA:625,0
DA:626,0
DA:630,0
DA:633,0
DA:634,0
DA:636,0
DA:640,0
DA:642,0
DA:643,0
DA:644,0
DA:648,0
DA:650,0
DA:652,0
DA:656,0
DA:658,0
DA:659,0
DA:660,0
DA:677,1
DA:688,1
DA:736,0
DA:737,0
DA:747,0
DA:748,0
DA:755,0
DA:756,0
DA:759,0
DA:760,0
DA:763,0
DA:764,0
DA:771,0
DA:772,0
DA:779,0
DA:780,0
DA:783,0
DA:784,0
DA:913,1
DA:948,1
DA:949,1
DA:960,0
DA:961,0
DA:964,1
DA:965,1
DA:972,1
DA:973,1
DA:1740,0
DA:1749,0
DA:1750,0
DA:1753,0
DA:1755,0
DA:1757,0
DA:1758,0
DA:1850,1
DA:1854,1
DA:1856,0
DA:1857,0
DA:1858,0
DA:1859,0
DA:1861,1
DA:2028,0
DA:2032,0
DA:2033,0
DA:2034,0
DA:2035,0
DA:2037,0
DA:2038,0
DA:2039,0
DA:2041,0
DA:2042,0
DA:2044,0
DA:2045,0
DA:2047,0
DA:2049,0
DA:2050,0
DA:2051,0
DA:2082,0
DA:2090,0
DA:2091,0
DA:2093,0
DA:2095,0
DA:2096,0
DA:2098,0
DA:2101,0
LF:128
LH:16
end_of_record
SF:/usr/include/c++/7/ext/aligned_buffer.h
FN:62,_ZN9__gnu_cxx16__aligned_membufINSt7__cxx1112basic_stringIcSt11char_traitsIcESaIcEEEE7_M_addrEv
FN:66,_ZNK9__gnu_cxx16__aligned_membufINSt7__cxx1112basic_stringIcSt11char_traitsIcESaIcEEEE7_M_addrEv
FN:70,_ZN9__gnu_cxx16__aligned_membufINSt7__cxx1112basic_stringIcSt11char_traitsIcESaIcEEEE6_M_ptrEv
FN:74,_ZNK9__gnu_cxx16__aligned_membufINSt7__cxx1112basic_stringIcSt11char_traitsIcESaIcEEEE6_M_ptrEv
FNDA:0,_ZN9__gnu_cxx16__aligned_membufINSt7__cxx1112basic_stringIcSt11char_traitsIcESaIcEEEE7_M_addrEv
FNDA:0,_ZNK9__gnu_cxx16__aligned_membufINSt7__cxx1112basic_stringIcSt11char_traitsIcESaIcEEEE7_M_addrEv
FNDA:0,_ZN9__gnu_cxx16__aligned_membufINSt7__cxx1112basic_stringIcSt11char_traitsIcESaIcEEEE6_M_ptrEv
FNDA:0,_ZNK9__gnu_cxx16__aligned_membufINSt7__cxx1112basic_stringIcSt11char_traitsIcESaIcEEEE6_M_ptrEv
FNF:4
FNH:0
DA:62,0
DA:63,0
DA:66,0
DA:67,0
DA:70,0
DA:71,0
DA:74,0
DA:75,0
LF:8
LH:0
end_of_record
SF:/usr/include/c++/7/ext/new_allocator.h
FN:79,_ZN9__gnu_cxx13new_allocatorISt13_Rb_tree_nodeINSt7__cxx1112basic_stringIcSt11char_traitsIcESaIcEEEEEC2Ev
FN:86,_ZN9__gnu_cxx13new_allocatorISt13_Rb_tree_nodeINSt7__cxx1112basic_stringIcSt11char_traitsIcESaIcEEEEED2Ev
FN:99,_ZN9__gnu_cxx13new_allocatorISt13_Rb_tree_nodeINSt7__cxx1112basic_stringIcSt11char_traitsIcESaIcEEEEE8allocateEmPKv
FN:116,_ZN9__gnu_cxx13new_allocatorISt13_Rb_tree_nodeINSt7__cxx1112basic_stringIcSt11char_traitsIcESaIcEEEEE10deallocateEPS8_m
FN:129,_ZNK9__gnu_cxx13new_allocatorISt13_Rb_tree_nodeINSt7__cxx1112basic_stringIcSt11char_traitsIcESaIcEEEEE8max_sizeEv
FN:135,_ZN9__gnu_cxx13new_allocatorISt13_Rb_tree_nodeINSt7__cxx1112basic_stringIcSt11char_traitsIcESaIcEEEEE9constructIS7_JS7_EEEvPT_DpOT0_
FN:140,_ZN9__gnu_cxx13new_allocatorISt13_Rb_tree_nodeINSt7__cxx1112basic_stringIcSt11char_traitsIcESaIcEEEEE7destroyIS7_EEvPT_
FNDA:1,_ZN9__gnu_cxx13new_allocatorISt13_Rb_tree_nodeINSt7__cxx1112basic_stringIcSt11char_traitsIcESaIcEEEEEC2Ev
FNDA:1,_ZN9__gnu_cxx13new_allocatorISt13_Rb_tree_nodeINSt7__cxx1112basic_stringIcSt11char_traitsIcESaIcEEEEED2Ev
FNDA:0,_ZN9__gnu_cxx13new_allocatorISt13_Rb_tree_nodeINSt7__cxx1112basic_stringIcSt11char_traitsIcESaIcEEEEE8allocateEmPKv
FNDA:0,_ZN9__gnu_cxx13new_allocatorISt13_Rb_tree_nodeINSt7__cxx1112basic_stringIcSt11char_traitsIcESaIcEEEEE10deallocateEPS8_m
FNDA:0,_ZNK9__gnu_cxx13new_allocatorISt13_Rb_tree_nodeINSt7__cxx1112basic_stringIcSt11char_traitsIcESaIcEEEEE8max_sizeEv
FNDA:0,_ZN9__gnu_cxx13new_allocatorISt13_Rb_tree_nodeINSt7__cxx1112basic_stringIcSt11char_traitsIcESaIcEEEEE9constructIS7_JS7_EEEvPT_DpOT0_
FNDA:0,_ZN9__gnu_cxx13new_allocatorISt13_Rb_tree_nodeINSt7__cxx1112basic_stringIcSt11char_traitsIcESaIcEEEEE7destroyIS7_EEvPT_
FNF:7
FNH:2
DA:79,1
DA:86,1
DA:99,0
DA:101,0
DA:102,0
DA:111,0
DA:116,0
DA:125,0
DA:126,0
DA:129,0
DA:130,0
DA:135,0
DA:136,0
DA:140,0
LF:14
LH:2
end_of_record
SF:/usr/include/c++/7/iostream
DA:74,1
LF:1
LH:1
end_of_record
SF:/usr/include/c++/7/new
FN:168,_ZnwmPv
FNDA:0,_ZnwmPv
FNF:1
FNH:0
DA:168,0
DA:169,0
LF:2
LH:0
end_of_record
TN:
SF:/home/vera/poco/Foundation/src/pcre_dfa_exec.c
FN:397,internal_dfa_exec
FN:3178,pcre_dfa_exec
FNDA:0,internal_dfa_exec
FNDA:0,pcre_dfa_exec
FNF:2
FNH:0
DA:397,0
DA:422,0
DA:423,0
DA:424,0
DA:427,0
DA:432,0
DA:434,0
DA:435,0
DA:437,0
DA:438,0
DA:445,0
DA:446,0
DA:447,0
DA:449,0
DA:451,0
DA:452,0
DA:453,0
DA:455,0
DA:456,0
DA:457,0
DA:469,0
DA:471,0
DA:474,0
DA:477,0
DA:478,0
DA:479,0
DA:481,0
DA:489,0
DA:491,0
DA:493,0
DA:494,0
DA:495,0
DA:504,0
DA:505,0
DA:506,0
DA:511,0
DA:512,0
DA:516,0
DA:519,0
DA:520,0
DA:522,0
DA:523,0
DA:525,0
DA:527,0
DA:538,0
DA:542,0
DA:544,0
DA:545,0
DA:546,0
DA:547,0
DA:554,0
DA:555,0
DA:556,0
DA:560,0
DA:561,0
DA:562,0
DA:564,0
DA:568,0
DA:574,0
DA:576,0
DA:580,0
DA:581,0
DA:582,0
DA:583,0
DA:588,0
DA:589,0
DA:590,0
DA:591,0
DA:592,0
DA:594,0
DA:595,0
DA:610,0
DA:611,0
DA:617,0
DA:619,0
DA:621,0
DA:628,0
DA:629,0
DA:637,0
DA:639,0
DA:640,0
DA:642,0
DA:658,0
DA:660,0
DA:663,0
DA:665,0
DA:666,0
DA:670,0
DA:678,0
DA:680,0
DA:681,0
DA:684,0
DA:690,0
DA:691,0
DA:696,0
DA:697,0
DA:710,0
DA:712,0
DA:714,0
DA:716,0
DA:717,0
DA:719,0
DA:721,0
DA:722,0
DA:723,0
DA:724,0
DA:725,0
DA:726,0
DA:727,0
DA:728,0
DA:729,0
DA:730,0
DA:732,0
DA:736,0
DA:737,0
DA:743,0
DA:752,0
DA:756,0
DA:770,0
DA:774,0
DA:776,0
DA:777,0
DA:779,0
DA:784,0
DA:785,0
DA:786,0
DA:787,0
DA:789,0
DA:790,0
DA:791,0
DA:792,0
DA:793,0
DA:794,0
DA:796,0
DA:797,0
DA:801,0
DA:806,0
DA:810,0
DA:817,0
DA:818,0
DA:819,0
DA:820,0
DA:823,0
DA:827,0
DA:828,0
DA:830,0
DA:831,0
DA:834,0
DA:836,0
DA:837,0
DA:838,0
DA:840,0
DA:841,0
DA:843,0
DA:846,0
DA:848,0
DA:849,0
DA:850,0
DA:851,0
DA:852,0
DA:855,0
DA:856,0
DA:857,0
DA:858,0
DA:859,0
DA:862,0
DA:863,0
DA:864,0
DA:865,0
DA:868,0
DA:869,0
DA:870,0
DA:871,0
DA:872,0
DA:875,0
DA:876,0
DA:878,0
DA:879,0
DA:880,0
DA:882,0
DA:885,0
DA:886,0
DA:887,0
DA:890,0
DA:891,0
DA:892,0
DA:902,0
DA:903,0
DA:905,0
DA:906,0
DA:907,0
DA:908,0
DA:909,0
DA:911,0
DA:915,0
DA:918,0
DA:921,0
DA:922,0
DA:923,0
DA:924,0
DA:927,0
DA:928,0
DA:929,0
DA:930,0
DA:931,0
DA:932,0
DA:935,0
DA:936,0
DA:938,0
DA:939,0
DA:940,0
DA:941,0
DA:942,0
DA:944,0
DA:945,0
DA:946,0
DA:947,0
DA:948,0
DA:949,0
DA:951,0
DA:953,0
DA:954,0
DA:956,0
DA:959,0
DA:962,0
DA:963,0
DA:965,0
DA:966,0
DA:967,0
DA:968,0
DA:969,0
DA:970,0
DA:971,0
DA:972,0
DA:973,0
DA:974,0
DA:976,0
DA:978,0
DA:979,0
DA:981,0
DA:984,0
DA:985,0
DA:986,0
DA:990,0
DA:993,0
DA:994,0
DA:995,0
DA:996,0
DA:999,0
DA:1002,0
DA:1003,0
DA:1004,0
DA:1005,0
DA:1008,0
DA:1013,0
DA:1015,0
DA:1016,0
DA:1018,0
DA:1020,0
DA:1022,0
DA:1024,0
DA:1026,0
DA:1027,0
DA:1032,0
DA:1034,0
DA:1036,0
DA:1039,0
DA:1041,0
DA:1043,0
DA:1044,0
DA:1049,0
DA:1051,0
DA:1053,0
DA:1054,0
DA:1056,0
DA:1065,0
DA:1067,0
DA:1071,0
DA:1072,0
DA:1074,0
DA:1075,0
DA:1076,0
DA:1078,0
DA:1079,0
DA:1080,0
DA:1081,0
DA:1083,0
DA:1084,0
DA:1085,0
DA:1087,0
DA:1088,0
DA:1089,0
DA:1091,0
DA:1092,0
DA:1093,0
DA:1097,0
DA:1098,0
DA:1099,0
DA:1100,0
DA:1106,0
DA:1108,0
DA:1110,0
DA:1112,0
DA:1113,0
DA:1115,0
DA:1116,0
DA:1117,0
DA:1119,0
DA:1121,0
DA:1122,0
DA:1123,0
DA:1125,0
DA:1127,0
DA:1128,0
DA:1131,0
DA:1132,0
DA:1134,0
DA:1136,0
DA:1137,0
DA:1138,0
DA:1140,0
DA:1144,0
DA:1145,0
DA:1146,0
DA:1149,0
DA:1151,0
DA:1162,0
DA:1165,0
DA:1166,0
DA:1167,0
DA:1169,0
DA:1170,0
DA:1171,0
DA:1172,0
DA:1173,0
DA:1175,0
DA:1177,0
DA:1178,0
DA:1179,0
DA:1180,0
DA:1182,0
DA:1184,0
DA:1185,0
DA:1187,0
DA:1188,0
DA:1191,0
DA:1194,0
DA:1197,0
DA:1198,0
DA:1200,0
DA:1201,0
DA:1202,0
DA:1203,0
DA:1204,0
DA:1206,0
DA:1208,0
DA:1209,0
DA:1210,0
DA:1211,0
DA:1213,0
DA:1215,0
DA:1216,0
DA:1218,0
DA:1221,0
DA:1224,0
DA:1227,0
DA:1228,0
DA:1230,0
DA:1231,0
DA:1232,0
DA:1233,0
DA:1234,0
DA:1236,0
DA:1238,0
DA:1239,0
DA:1240,0
DA:1241,0
DA:1243,0
DA:1245,0
DA:1246,0
DA:1248,0
DA:1251,0
DA:1254,0
DA:1255,0
DA:1256,0
DA:1258,0
DA:1259,0
DA:1260,0
DA:1261,0
DA:1262,0
DA:1264,0
DA:1266,0
DA:1267,0
DA:1268,0
DA:1269,0
DA:1271,0
DA:1272,0
DA:1274,0
DA:1277,0
DA:1280,0
DA:1283,0
DA:1284,0
DA:1285,0
DA:1287,0
DA:1288,0
DA:1289,0
DA:1290,0
DA:1291,0
DA:1293,0
DA:1295,0
DA:1296,0
DA:1297,0
DA:1298,0
DA:1300,0
DA:1302,0
DA:1303,0
DA:1305,0
DA:1306,0
DA:1308,0
DA:1311,0
DA:1320,0
DA:1323,0
DA:1324,0
DA:1325,0
DA:1329,0
DA:1330,0
DA:1332,0
DA:1333,0
DA:1334,0
DA:1336,0
DA:1337,0
DA:1338,0
DA:1339,0
DA:1341,0
DA:1342,0
DA:1343,0
DA:1345,0
DA:1346,0
DA:1347,0
DA:1349,0
DA:1350,0
DA:1351,0
DA:1355,0
DA:1356,0
DA:1357,0
DA:1358,0
DA:1364,0
DA:1366,0
DA:1368,0
DA:1370,0
DA:1371,0
DA:1373,0
DA:1374,0
DA:1375,0
DA:1377,0
DA:1379,0
DA:1380,0
DA:1381,0
DA:1383,0
DA:1385,0
DA:1386,0
DA:1389,0
DA:1390,0
DA:1392,0
DA:1394,0
DA:1395,0
DA:1396,0
DA:1398,0
DA:1402,0
DA:1403,0
DA:1404,0
DA:1407,0
DA:1409,0
DA:1411,0
DA:1412,0
DA:1414,0
DA:1415,0
DA:1418,0
DA:1421,0
DA:1424,0
DA:1425,0
DA:1426,0
DA:1429,0
DA:1430,0
DA:1431,0
DA:1433,0
DA:1434,0
DA:1436,0
DA:1437,0
DA:1439,0
DA:1440,0
DA:1441,0
DA:1442,0
DA:1443,0
DA:1444,0
DA:1445,0
DA:1447,0
DA:1448,0
DA:1450,0
DA:1454,0
DA:1457,0
DA:1458,0
DA:1459,0
DA:1461,0
DA:1462,0
DA:1464,0
DA:1471,0
DA:1472,0
DA:1474,0
DA:1475,0
DA:1478,0
DA:1480,0
DA:1482,0
DA:1483,0
DA:1485,0
DA:1486,0
DA:1487,0
DA:1489,0
DA:1490,0
DA:1492,0
DA:1493,0
DA:1496,0
DA:1499,0
DA:1500,0
DA:1501,0
DA:1504,0
DA:1506,0
DA:1507,0
DA:1508,0
DA:1510,0
DA:1511,0
DA:1512,0
DA:1515,0
DA:1517,0
DA:1519,0
DA:1520,0
DA:1522,0
DA:1523,0
DA:1526,0
DA:1529,0
DA:1532,0
DA:1533,0
DA:1534,0
DA:1537,0
DA:1539,0
DA:1540,0
DA:1541,0
DA:1543,0
DA:1544,0
DA:1545,0
DA:1548,0
DA:1550,0
DA:1552,0
DA:1553,0
DA:1555,0
DA:1556,0
DA:1559,0
DA:1563,0
DA:1566,0
DA:1567,0
DA:1569,0
DA:1572,0
DA:1574,0
DA:1576,0
DA:1577,0
DA:1581,0
DA:1582,0
DA:1584,0
DA:1585,0
DA:1586,0
DA:1588,0
DA:1589,0
DA:1590,0
DA:1591,0
DA:1593,0
DA:1594,0
DA:1595,0
DA:1597,0
DA:1598,0
DA:1599,0
DA:1601,0
DA:1602,0
DA:1603,0
DA:1607,0
DA:1608,0
DA:1609,0
DA:1610,0
DA:1616,0
DA:1618,0
DA:1620,0
DA:1622,0
DA:1623,0
DA:1625,0
DA:1626,0
DA:1627,0
DA:1629,0
DA:1631,0
DA:1632,0
DA:1633,0
DA:1635,0
DA:1637,0
DA:1638,0
DA:1641,0
DA:1642,0
DA:1644,0
DA:1646,0
DA:1647,0
DA:1648,0
DA:1650,0
DA:1654,0
DA:1655,0
DA:1656,0
DA:1659,0
DA:1661,0
DA:1664,0
DA:1665,0
DA:1667,0
DA:1670,0
DA:1673,0
DA:1676,0
DA:1677,0
DA:1679,0
DA:1682,0
DA:1684,0
DA:1686,0
DA:1687,0
DA:1690,0
DA:1691,0
DA:1692,0
DA:1695,0
DA:1696,0
DA:1698,0
DA:1699,0
DA:1701,0
DA:1702,0
DA:1703,0
DA:1704,0
DA:1705,0
DA:1706,0
DA:1707,0
DA:1709,0
DA:1711,0
DA:1715,0
DA:1718,0
DA:1719,0
DA:1721,0
DA:1724,0
DA:1726,0
DA:1727,0
DA:1728,0
DA:1730,0
DA:1731,0
DA:1733,0
DA:1740,0
DA:1741,0
DA:1743,0
DA:1744,0
DA:1747,0
DA:1749,0
DA:1752,0
DA:1753,0
DA:1755,0
DA:1756,0
DA:1758,0
DA:1759,0
DA:1761,0
DA:1762,0
DA:1765,0
DA:1768,0
DA:1769,0
DA:1771,0
DA:1774,0
DA:1776,0
DA:1777,0
DA:1778,0
DA:1781,0
DA:1783,0
DA:1784,0
DA:1785,0
DA:1787,0
DA:1788,0
DA:1789,0
DA:1791,0
DA:1793,0
DA:1796,0
DA:1797,0
DA:1799,0
DA:1802,0
DA:1805,0
DA:1808,0
DA:1809,0
DA:1811,0
DA:1814,0
DA:1816,0
DA:1817,0
DA:1818,0
DA:1821,0
DA:1823,0
DA:1824,0
DA:1825,0
DA:1827,0
DA:1828,0
DA:1829,0
DA:1832,0
DA:1834,0
DA:1837,0
DA:1838,0
DA:1840,0
DA:1843,0
DA:1847,0
DA:1851,0
DA:1852,0
DA:1853,0
DA:1854,0
DA:1858,0
DA:1859,0
DA:1861,0
DA:1862,0
DA:1863,0
DA:1865,0
DA:1866,0
DA:1867,0
DA:1868,0
DA:1870,0
DA:1871,0
DA:1872,0
DA:1874,0
DA:1875,0
DA:1876,0
DA:1878,0
DA:1879,0
DA:1880,0
DA:1884,0
DA:1885,0
DA:1886,0
DA:1887,0
DA:1893,0
DA:1895,0
DA:1897,0
DA:1899,0
DA:1900,0
DA:1902,0
DA:1903,0
DA:1904,0
DA:1906,0
DA:1908,0
DA:1909,0
DA:1910,0
DA:1912,0
DA:1914,0
DA:1915,0
DA:1918,0
DA:1919,0
DA:1921,0
DA:1923,0
DA:1924,0
DA:1925,0
DA:1927,0
DA:1931,0
DA:1932,0
DA:1933,0
DA:1936,0
DA:1938,0
DA:1940,0
DA:1941,0
DA:1943,0
DA:1944,0
DA:1946,0
DA:1949,0
DA:1952,0
DA:1956,0
DA:1957,0
DA:1958,0
DA:1959,0
DA:1962,0
DA:1963,0
DA:1964,0
DA:1966,0
DA:1967,0
DA:1969,0
DA:1970,0
DA:1972,0
DA:1973,0
DA:1974,0
DA:1975,0
DA:1976,0
DA:1977,0
DA:1978,0
DA:1980,0
DA:1981,0
DA:1982,0
DA:1983,0
DA:1985,0
DA:1987,0
DA:1991,0
DA:1995,0
DA:1996,0
DA:1997,0
DA:1998,0
DA:2000,0
DA:2001,0
DA:2003,0
DA:2010,0
DA:2011,0
DA:2013,0
DA:2014,0
DA:2017,0
DA:2019,0
DA:2021,0
DA:2022,0
DA:2024,0
DA:2025,0
DA:2027,0
DA:2028,0
DA:2030,0
DA:2031,0
DA:2033,0
DA:2034,0
DA:2037,0
DA:2041,0
DA:2042,0
DA:2043,0
DA:2044,0
DA:2047,0
DA:2049,0
DA:2050,0
DA:2051,0
DA:2053,0
DA:2054,0
DA:2057,0
DA:2059,0
DA:2061,0
DA:2062,0
DA:2064,0
DA:2065,0
DA:2067,0
DA:2070,0
DA:2073,0
DA:2077,0
DA:2078,0
DA:2079,0
DA:2080,0
DA:2083,0
DA:2085,0
DA:2086,0
DA:2087,0
DA:2089,0
DA:2090,0
DA:2091,0
DA:2094,0
DA:2096,0
DA:2098,0
DA:2099,0
DA:2101,0
DA:2102,0
DA:2104,0
DA:2107,0
DA:2116,0
DA:2117,0
DA:2118,0
DA:2121,0
DA:2122,0
DA:2125,0
DA:2127,0
DA:2130,0
DA:2131,0
DA:2136,0
DA:2141,0
DA:2148,0
DA:2149,0
DA:2151,0
DA:2160,0
DA:2161,0
DA:2164,0
DA:2165,0
DA:2166,0
DA:2167,0
DA:2169,0
DA:2170,0
DA:2171,0
DA:2172,0
DA:2173,0
DA:2174,0
DA:2175,0
DA:2177,0
DA:2178,0
DA:2179,0
DA:2181,0
DA:2189,0
DA:2190,0
DA:2192,0
DA:2199,0
DA:2202,0
DA:2203,0
DA:2205,0
DA:2206,0
DA:2208,0
DA:2209,0
DA:2210,0
DA:2212,0
DA:2214,0
DA:2218,0
DA:2220,0
DA:2222,0
DA:2225,0
DA:2226,0
DA:2228,0
DA:2229,0
DA:2231,0
DA:2232,0
DA:2233,0
DA:2235,0
DA:2238,0
DA:2239,0
DA:2241,0
DA:2242,0
DA:2243,0
DA:2245,0
DA:2246,0
DA:2248,0
DA:2251,0
DA:2252,0
DA:2254,0
DA:2255,0
DA:2257,0
DA:2258,0
DA:2259,0
DA:2261,0
DA:2264,0
DA:2265,0
DA:2267,0
DA:2268,0
DA:2269,0
DA:2271,0
DA:2272,0
DA:2274,0
DA:2279,0
DA:2280,0
DA:2281,0
DA:2286,0
DA:2287,0
DA:2291,0
DA:2294,0
DA:2301,0
DA:2302,0
DA:2303,0
DA:2305,0
DA:2308,0
DA:2314,0
DA:2315,0
DA:2318,0
DA:2324,0
DA:2325,0
DA:2326,0
DA:2328,0
DA:2329,0
DA:2332,0
DA:2335,0
DA:2340,0
DA:2342,0
DA:2344,0
DA:2345,0
DA:2347,0
DA:2348,0
DA:2350,0
DA:2351,0
DA:2354,0
DA:2357,0
DA:2363,0
DA:2364,0
DA:2366,0
DA:2372,0
DA:2373,0
DA:2375,0
DA:2376,0
DA:2379,0
DA:2382,0
DA:2387,0
DA:2389,0
DA:2391,0
DA:2393,0
DA:2394,0
DA:2396,0
DA:2399,0
DA:2402,0
DA:2408,0
DA:2409,0
DA:2411,0
DA:2417,0
DA:2418,0
DA:2420,0
DA:2421,0
DA:2424,0
DA:2427,0
DA:2432,0
DA:2434,0
DA:2436,0
DA:2438,0
DA:2439,0
DA:2441,0
DA:2444,0
DA:2447,0
DA:2449,0
DA:2450,0
DA:2452,0
DA:2454,0
DA:2455,0
DA:2457,0
DA:2458,0
DA:2461,0
DA:2464,0
DA:2469,0
DA:2471,0
DA:2473,0
DA:2474,0
DA:2476,0
DA:2479,0
DA:2482,0
DA:2488,0
DA:2489,0
DA:2491,0
DA:2497,0
DA:2498,0
DA:2499,0
DA:2501,0
DA:2502,0
DA:2505,0
DA:2508,0
DA:2513,0
DA:2515,0
DA:2517,0
DA:2519,0
DA:2520,0
DA:2522,0
DA:2523,0
DA:2525,0
DA:2528,0
DA:2534,0
DA:2538,0
DA:2545,0
DA:2547,0
DA:2548,0
DA:2550,0
DA:2551,0
DA:2561,0
DA:2562,0
DA:2569,0
DA:2571,0
DA:2573,0
DA:2576,0
DA:2577,0
DA:2579,0
DA:2581,0
DA:2582,0
DA:2584,0
DA:2586,0
DA:2588,0
DA:2591,0
DA:2592,0
DA:2593,0
DA:2595,0
DA:2597,0
DA:2598,0
DA:2600,0
DA:2601,0
DA:2603,0
DA:2605,0
DA:2608,0
DA:2609,0
DA:2611,0
DA:2613,0
DA:2614,0
DA:2616,0
DA:2618,0
DA:2620,0
DA:2623,0
DA:2624,0
DA:2625,0
DA:2626,0
DA:2628,0
DA:2629,0
DA:2631,0
DA:2632,0
DA:2634,0
DA:2635,0
DA:2637,0
DA:2639,0
DA:2641,0
DA:2642,0
DA:2643,0
DA:2646,0
DA:2654,0
DA:2655,0
DA:2656,0
DA:2658,0
DA:2666,0
DA:2668,0
DA:2670,0
DA:2674,0
DA:2681,0
DA:2682,0
DA:2683,0
DA:2685,0
DA:2688,0
DA:2693,0
DA:2700,0
DA:2702,0
DA:2703,0
DA:2706,0
DA:2707,0
DA:2708,0
DA:2710,0
DA:2716,0
DA:2717,0
DA:2718,0
DA:2719,0
DA:2720,0
DA:2721,0
DA:2722,0
DA:2723,0
DA:2724,0
DA:2725,0
DA:2727,0
DA:2728,0
DA:2731,0
DA:2736,0
DA:2738,0
DA:2743,0
DA:2744,0
DA:2750,0
DA:2752,0
DA:2753,0
DA:2754,0
DA:2755,0
DA:2756,0
DA:2764,0
DA:2765,0
DA:2767,0
DA:2769,0
DA:2773,0
DA:2780,0
DA:2781,0
DA:2782,0
DA:2783,0
DA:2785,0
DA:2788,0
DA:2791,0
DA:2796,0
DA:2797,0
DA:2798,0
DA:2807,0
DA:2808,0
DA:2809,0
DA:2814,0
DA:2815,0
DA:2816,0
DA:2817,0
DA:2819,0
DA:2823,0
DA:2830,0
DA:2837,0
DA:2843,0
DA:2845,0
DA:2847,0
DA:2849,0
DA:2851,0
DA:2852,0
DA:2853,0
DA:2856,0
DA:2858,0
DA:2862,0
DA:2866,0
DA:2868,0
DA:2871,0
DA:2878,0
DA:2881,0
DA:2883,0
DA:2884,0
DA:2886,0
DA:2891,0
DA:2892,0
DA:2896,0
DA:2900,0
DA:2909,0
DA:2911,0
DA:2912,0
DA:2917,0
DA:2918,0
DA:2919,0
DA:2926,0
DA:2928,0
DA:2931,0
DA:2932,0
DA:2933,0
DA:2934,0
DA:2941,0
DA:2943,0
DA:2944,0
DA:2945,0
DA:2949,0
DA:2950,0
DA:2951,0
DA:2953,0
DA:2955,0
DA:2959,0
DA:2962,0
DA:2968,0
DA:2972,0
DA:2979,0
DA:2981,0
DA:2982,0
DA:2985,0
DA:2986,0
DA:2987,0
DA:2988,0
DA:2994,0
DA:2995,0
DA:2996,0
DA:3003,0
DA:3005,0
DA:3013,0
DA:3015,0
DA:3016,0
DA:3017,0
DA:3024,0
DA:3026,0
DA:3027,0
DA:3028,0
DA:3029,0
DA:3035,0
DA:3037,0
DA:3038,0
DA:3039,0
DA:3042,0
DA:3043,0
DA:3044,0
DA:3047,0
DA:3049,0
DA:3055,0
DA:3056,0
DA:3057,0
DA:3060,0
DA:3061,0
DA:3062,0
DA:3064,0
DA:3070,0
DA:3071,0
DA:3072,0
DA:3073,0
DA:3074,0
DA:3075,0
DA:3076,0
DA:3077,0
DA:3078,0
DA:3079,0
DA:3081,0
DA:3082,0
DA:3083,0
DA:3087,0
DA:3088,0
DA:3091,0
DA:3108,0
DA:3110,0
DA:3111,0
DA:3112,0
DA:3114,0
DA:3115,0
DA:3116,0
DA:3118,0
DA:3120,0
DA:3122,0
DA:3123,0
DA:3126,0
DA:3130,0
DA:3135,0
DA:3144,0
DA:3178,0
DA:3193,0
DA:3195,0
DA:3198,0
DA:3201,0
DA:3202,0
DA:3203,0
DA:3204,0
DA:3205,0
DA:3206,0
DA:3207,0
DA:3212,0
DA:3213,0
DA:3214,0
DA:3215,0
DA:3216,0
DA:3217,0
DA:3218,0
DA:3225,0
DA:3226,0
DA:3227,0
DA:3228,0
DA:3233,0
DA:3235,0
DA:3236,0
DA:3237,0
DA:3242,0
DA:3243,0
DA:3245,0
DA:3247,0
DA:3248,0
DA:3249,0
DA:3250,0
DA:3251,0
DA:3252,0
DA:3253,0
DA:3254,0
DA:3255,0
DA:3256,0
DA:3261,0
DA:3262,0
DA:3263,0
DA:3267,0
DA:3272,0
DA:3273,0
DA:3277,0
DA:3278,0
DA:3279,0
DA:3280,0
DA:3281,0
DA:3282,0
DA:3283,0
DA:3288,0
DA:3290,0
DA:3291,0
DA:3300,0
DA:3303,0
DA:3304,0
DA:3305,0
DA:3306,0
DA:3307,0
DA:3308,0
DA:3309,0
DA:3310,0
DA:3313,0
DA:3315,0
DA:3317,0
DA:3319,0
DA:3323,0
DA:3324,0
DA:3326,0
DA:3327,0
DA:3328,0
DA:3332,0
DA:3333,0
DA:3341,0
DA:3344,0
DA:3345,0
DA:3347,0
DA:3349,0
DA:3350,0
DA:3353,0
DA:3354,0
DA:3363,0
DA:3364,0
DA:3365,0
DA:3374,0
DA:3379,0
DA:3380,0
DA:3388,0
DA:3390,0
DA:3392,0
DA:3393,0
DA:3394,0
DA:3396,0
DA:3405,0
DA:3406,0
DA:3407,0
DA:3414,0
DA:3416,0
DA:3417,0
DA:3418,0
DA:3420,0
DA:3433,0
DA:3436,0
DA:3438,0
DA:3445,0
DA:3447,0
DA:3449,0
DA:3451,0
DA:3453,0
DA:3454,0
DA:3459,0
DA:3460,0
DA:3469,0
DA:3473,0
DA:3475,0
DA:3478,0
DA:3479,0
DA:3480,0
DA:3483,0
DA:3484,0
DA:3485,0
DA:3490,0
DA:3492,0
DA:3495,0
DA:3497,0
DA:3498,0
DA:3500,0
DA:3501,0
DA:3507,0
DA:3508,0
DA:3514,0
DA:3515,0
DA:3516,0
DA:3517,0
DA:3518,0
DA:3524,0
DA:3526,0
DA:3528,0
DA:3532,0
DA:3533,0
DA:3540,0
DA:3546,0
DA:3547,0
DA:3555,0
DA:3556,0
DA:3557,0
DA:3572,0
DA:3574,0
DA:3579,0
DA:3581,0
DA:3583,0
DA:3585,0
DA:3586,0
DA:3591,0
DA:3593,0
DA:3600,0
DA:3606,0
DA:3614,0
DA:3615,0
DA:3617,0
DA:3631,0
DA:3633,0
DA:3635,0
DA:3636,0
DA:3637,0
DA:3638,0
DA:3640,0
DA:3646,0
DA:3647,0
DA:3649,0
DA:3651,0
DA:3655,0
DA:3661,0
DA:3662,0
DA:3663,0
DA:3664,0
DA:3665,0
DA:3666,0
DA:3667,0
DA:3668,0
DA:3672,0
LF:1459
LH:0
end_of_record
TN:
SF:/home/vera/poco/Foundation/include/Poco/UnbufferedStreamBuf.h
FN:50,_ZN4Poco24BasicUnbufferedStreamBufIcSt11char_traitsIcEEC2Ev
FN:58,_ZN4Poco24BasicUnbufferedStreamBufIcSt11char_traitsIcEED0Ev
FN:58,_ZN4Poco24BasicUnbufferedStreamBufIcSt11char_traitsIcEED2Ev
FN:62,_ZN4Poco24BasicUnbufferedStreamBufIcSt11char_traitsIcEE8overflowEi
FN:70,_ZN4Poco24BasicUnbufferedStreamBufIcSt11char_traitsIcEE9underflowEv
FN:88,_ZN4Poco24BasicUnbufferedStreamBufIcSt11char_traitsIcEE5uflowEv
FN:106,_ZN4Poco24BasicUnbufferedStreamBufIcSt11char_traitsIcEE9pbackfailEi
FN:120,_ZN4Poco24BasicUnbufferedStreamBufIcSt11char_traitsIcEE6xsgetnEPcl
FN:139,_ZN4Poco24BasicUnbufferedStreamBufIcSt11char_traitsIcEE9charToIntEc
FN:145,_ZN4Poco24BasicUnbufferedStreamBufIcSt11char_traitsIcEE14readFromDeviceEv
FN:150,_ZN4Poco24BasicUnbufferedStreamBufIcSt11char_traitsIcEE13writeToDeviceEc
FNDA:0,_ZN4Poco24BasicUnbufferedStreamBufIcSt11char_traitsIcEEC2Ev
FNDA:0,_ZN4Poco24BasicUnbufferedStreamBufIcSt11char_traitsIcEED0Ev
FNDA:0,_ZN4Poco24BasicUnbufferedStreamBufIcSt11char_traitsIcEED2Ev
FNDA:0,_ZN4Poco24BasicUnbufferedStreamBufIcSt11char_traitsIcEE8overflowEi
FNDA:0,_ZN4Poco24BasicUnbufferedStreamBufIcSt11char_traitsIcEE9underflowEv
FNDA:0,_ZN4Poco24BasicUnbufferedStreamBufIcSt11char_traitsIcEE5uflowEv
FNDA:0,_ZN4Poco24BasicUnbufferedStreamBufIcSt11char_traitsIcEE9pbackfailEi
FNDA:0,_ZN4Poco24BasicUnbufferedStreamBufIcSt11char_traitsIcEE6xsgetnEPcl
FNDA:0,_ZN4Poco24BasicUnbufferedStreamBufIcSt11char_traitsIcEE9charToIntEc
FNDA:0,_ZN4Poco24BasicUnbufferedStreamBufIcSt11char_traitsIcEE14readFromDeviceEv
FNDA:0,_ZN4Poco24BasicUnbufferedStreamBufIcSt11char_traitsIcEE13writeToDeviceEc
FNF:11
FNH:0
DA:50,0
DA:51,0
DA:52,0
DA:54,0
DA:55,0
DA:56,0
DA:58,0
DA:60,0
DA:62,0
DA:64,0
DA:65,0
DA:67,0
DA:70,0
DA:72,0
DA:74,0
DA:78,0
DA:79,0
DA:81,0
DA:82,0
DA:84,0
DA:88,0
DA:90,0
DA:92,0
DA:93,0
DA:97,0
DA:98,0
DA:100,0
DA:102,0
DA:106,0
DA:108,0
DA:110,0
DA:114,0
DA:115,0
DA:116,0
DA:120,0
DA:126,0
DA:127,0
DA:129,0
DA:130,0
DA:131,0
DA:132,0
DA:133,0
DA:135,0
DA:139,0
DA:141,0
DA:145,0
DA:147,0
DA:150,0
DA:152,0
LF:49
LH:0
end_of_record
SF:/home/vera/poco/Foundation/src/Base32Encoder.cpp
FN:30,_ZN4Poco16Base32EncoderBufC2ERSob
FN:38,_ZN4Poco16Base32EncoderBufD0Ev
FN:38,_ZN4Poco16Base32EncoderBufD2Ev
FN:51,_ZN4Poco16Base32EncoderBuf13writeToDeviceEc
FN:81,_ZN4Poco16Base32EncoderBuf5closeEv
FN:167,_ZN4Poco16Base32EncoderIOSC1ERSob
FN:167,_ZN4Poco16Base32EncoderIOSC2ERSob
FN:174,_ZN4Poco16Base32EncoderIOSD2Ev
FN:174,_ZN4Poco16Base32EncoderIOSD0Ev
FN:174,_ZN4Poco16Base32EncoderIOSD1Ev
FN:179,_ZN4Poco16Base32EncoderIOS5closeEv
FN:185,_ZN4Poco16Base32EncoderIOS5rdbufEv
FN:191,_ZN4Poco13Base32EncoderC1ERSob
FN:191,_ZN4Poco13Base32EncoderC2ERSob
FN:197,_ZN4Poco13Base32EncoderD0Ev
FN:197,_ZN4Poco13Base32EncoderD2Ev
FN:197,_ZN4Poco13Base32EncoderD1Ev
FN:202,_Z41__static_initialization_and_destruction_0ii
FN:202,_GLOBAL__sub_I_Base32Encoder.cpp
FNDA:0,_ZN4Poco16Base32EncoderBufC2ERSob
FNDA:0,_ZN4Poco16Base32EncoderBufD0Ev
FNDA:0,_ZN4Poco16Base32EncoderBufD2Ev
FNDA:0,_ZN4Poco16Base32EncoderBuf13writeToDeviceEc
FNDA:0,_ZN4Poco16Base32EncoderBuf5closeEv
FNDA:0,_ZN4Poco16Base32EncoderIOSC1ERSob
FNDA:0,_ZN4Poco16Base32EncoderIOSC2ERSob
FNDA:0,_ZN4Poco16Base32EncoderIOSD0Ev
FNDA:0,_ZN4Poco16Base32EncoderIOSD1Ev
FNDA:0,_ZN4Poco16Base32EncoderIOSD2Ev
FNDA:0,_ZN4Poco16Base32EncoderIOS5closeEv
FNDA:0,_ZN4Poco16Base32EncoderIOS5rdbufEv
FNDA:0,_ZN4Poco13Base32EncoderC1ERSob
FNDA:0,_ZN4Poco13Base32EncoderC2ERSob
FNDA:0,_ZN4Poco13Base32EncoderD0Ev
FNDA:0,_ZN4Poco13Base32EncoderD1Ev
FNDA:0,_ZN4Poco13Base32EncoderD2Ev
FNDA:1,_GLOBAL__sub_I_Base32Encoder.cpp
FNDA:1,_Z41__static_initialization_and_destruction_0ii
FNF:19
FNH:2
DA:30,0
DA:32,0
DA:33,0
DA:35,0
DA:38,0
DA:42,0
DA:44,0
DA:47,0
DA:51,0
DA:55,0
DA:56,0
DA:59,0
DA:60,0
DA:61,0
DA:62,0
DA:63,0
DA:64,0
DA:65,0
DA:66,0
DA:67,0
DA:68,0
DA:69,0
DA:70,0
DA:71,0
DA:72,0
DA:73,0
DA:74,0
DA:75,0
DA:77,0
DA:81,0
DA:85,0
DA:86,0
DA:88,0
DA:90,0
DA:91,0
DA:92,0
DA:93,0
DA:94,0
DA:95,0
DA:96,0
DA:97,0
DA:98,0
DA:99,0
DA:100,0
DA:103,0
DA:105,0
DA:107,0
DA:108,0
DA:109,0
DA:110,0
DA:111,0
DA:112,0
DA:113,0
DA:114,0
DA:115,0
DA:116,0
DA:117,0
DA:118,0
DA:119,0
DA:122,0
DA:124,0
DA:126,0
DA:127,0
DA:128,0
DA:129,0
DA:130,0
DA:131,0
DA:132,0
DA:133,0
DA:134,0
DA:135,0
DA:136,0
DA:137,0
DA:138,0
DA:139,0
DA:142,0
DA:144,0
DA:146,0
DA:147,0
DA:148,0
DA:149,0
DA:150,0
DA:151,0
DA:152,0
DA:153,0
DA:154,0
DA:155,0
DA:156,0
DA:157,0
DA:158,0
DA:159,0
DA:160,0
DA:162,0
DA:163,0
DA:167,0
DA:168,0
DA:170,0
DA:171,0
DA:174,0
DA:176,0
DA:179,0
DA:181,0
DA:185,0
DA:187,0
DA:191,0
DA:192,0
DA:194,0
DA:197,0
DA:199,0
DA:202,3
LF:110
LH:1
end_of_record
SF:/usr/include/c++/7/bits/char_traits.h
FN:362,_ZNSt11char_traitsIcE12to_char_typeERKi
FN:368,_ZNSt11char_traitsIcE11to_int_typeERKc
FN:376,_ZNSt11char_traitsIcE3eofEv
FNDA:0,_ZNSt11char_traitsIcE12to_char_typeERKi
FNDA:0,_ZNSt11char_traitsIcE11to_int_typeERKc
FNDA:0,_ZNSt11char_traitsIcE3eofEv
FNF:3
FNH:0
DA:362,0
DA:363,0
DA:368,0
DA:369,0
DA:376,0
DA:377,0
LF:6
LH:0
end_of_record
SF:/usr/include/c++/7/iostream
DA:74,1
LF:1
LH:1
end_of_record
TN:
SF:/home/vera/poco/Foundation/include/Poco/URI.h
FN:373,_ZNK4Poco3URI9getSchemeB5cxx11Ev
FNDA:0,_ZNK4Poco3URI9getSchemeB5cxx11Ev
FNF:1
FNH:0
DA:373,0
DA:375,0
LF:2
LH:0
end_of_record
SF:/home/vera/poco/Foundation/src/DataURIStreamFactory.cpp
FN:24,_ZN4Poco20DataURIStreamFactoryC2Ev
FN:29,_ZN4Poco20DataURIStreamFactoryD2Ev
FN:29,_ZN4Poco20DataURIStreamFactoryD0Ev
FN:34,_ZN4Poco20DataURIStreamFactory4openERKNS_3URIE
FN:42,_ZN4Poco20DataURIStreamFactory15registerFactoryEv
FN:48,_ZN4Poco20DataURIStreamFactory17unregisterFactoryEv
FN:54,_GLOBAL__sub_I_DataURIStreamFactory.cpp
FN:54,_Z41__static_initialization_and_destruction_0ii
FNDA:0,_ZN4Poco20DataURIStreamFactoryC2Ev
FNDA:0,_ZN4Poco20DataURIStreamFactoryD0Ev
FNDA:0,_ZN4Poco20DataURIStreamFactoryD2Ev
FNDA:0,_ZN4Poco20DataURIStreamFactory4openERKNS_3URIE
FNDA:0,_ZN4Poco20DataURIStreamFactory15registerFactoryEv
FNDA:0,_ZN4Poco20DataURIStreamFactory17unregisterFactoryEv
FNDA:1,_GLOBAL__sub_I_DataURIStreamFactory.cpp
FNDA:1,_Z41__static_initialization_and_destruction_0ii
FNF:8
FNH:2
DA:24,0
DA:26,0
DA:29,0
DA:31,0
DA:34,0
DA:36,0
DA:38,0
DA:42,0
DA:44,0
DA:45,0
DA:48,0
DA:50,0
DA:51,0
DA:54,3
LF:14
LH:1
end_of_record
SF:/usr/include/c++/7/bits/basic_string.h
FN:6043,_ZSteqIcSt11char_traitsIcESaIcEEbRKNSt7__cxx1112basic_stringIT_T0_T1_EEPKS5_
FNDA:0,_ZSteqIcSt11char_traitsIcESaIcEEbRKNSt7__cxx1112basic_stringIT_T0_T1_EEPKS5_
FNF:1
FNH:0
DA:6043,0
DA:6045,0
LF:2
LH:0
end_of_record
SF:/usr/include/c++/7/iostream
DA:74,1
LF:1
LH:1
end_of_record
TN:
SF:/home/vera/poco/Foundation/include/Poco/Mutex.h
FN:308,_ZN4Poco9FastMutex4lockEv
FN:333,_ZN4Poco9FastMutex6unlockEv
FNDA:0,_ZN4Poco9FastMutex4lockEv
FNDA:0,_ZN4Poco9FastMutex6unlockEv
FNF:2
FNH:0
DA:308,0
DA:310,0
DA:311,0
DA:333,0
DA:335,0
DA:336,0
LF:6
LH:0
end_of_record
SF:/home/vera/poco/Foundation/include/Poco/Mutex_POSIX.h
FN:57,_ZN4Poco9MutexImpl8lockImplEv
FN:76,_ZN4Poco9MutexImpl10unlockImplEv
FNDA:0,_ZN4Poco9MutexImpl8lockImplEv
FNDA:0,_ZN4Poco9MutexImpl10unlockImplEv
FNF:2
FNH:0
DA:57,0
DA:59,0
DA:60,0
DA:61,0
DA:76,0
DA:78,0
DA:79,0
DA:80,0
LF:8
LH:0
end_of_record
SF:/home/vera/poco/Foundation/include/Poco/ScopedLock.h
FN:36,_ZN4Poco10ScopedLockINS_9FastMutexEEC2ERS1_
FN:46,_ZN4Poco10ScopedLockINS_9FastMutexEED2Ev
FNDA:0,_ZN4Poco10ScopedLockINS_9FastMutexEEC2ERS1_
FNDA:0,_ZN4Poco10ScopedLockINS_9FastMutexEED2Ev
FNF:2
FNH:0
DA:36,0
DA:38,0
DA:39,0
DA:46,0
DA:50,0
DA:52,0
DA:54,0
DA:56,0
LF:8
LH:0
end_of_record
SF:/home/vera/poco/Foundation/include/Poco/SingletonHolder.h
FN:37,_ZN4Poco15SingletonHolderINS_18ThreadLocalStorageEEC2Ev
FN:43,_ZN4Poco15SingletonHolderINS_18ThreadLocalStorageEED2Ev
FN:50,_ZN4Poco15SingletonHolderINS_18ThreadLocalStorageEE3getEv
FNDA:1,_ZN4Poco15SingletonHolderINS_18ThreadLocalStorageEEC2Ev
FNDA:1,_ZN4Poco15SingletonHolderINS_18ThreadLocalStorageEED2Ev
FNDA:0,_ZN4Poco15SingletonHolderINS_18ThreadLocalStorageEE3getEv
FNF:3
FNH:2
DA:37,1
DA:38,1
DA:41,1
DA:43,1
DA:47,1
DA:48,1
DA:50,0
DA:55,0
DA:56,0
DA:57,0
LF:10
LH:6
end_of_record
SF:/home/vera/poco/Foundation/include/Poco/Thread.h
FN:334,_ZN4Poco6Thread7currentEv
FNDA:0,_ZN4Poco6Thread7currentEv
FNF:1
FNH:0
DA:334,0
DA:336,0
LF:2
LH:0
end_of_record
SF:/home/vera/poco/Foundation/src/ThreadLocal.cpp
FN:23,_ZN4Poco15TLSAbstractSlotC2Ev
FN:28,_ZN4Poco15TLSAbstractSlotD2Ev
FN:28,_ZN4Poco15TLSAbstractSlotD0Ev
FN:33,_ZN4Poco18ThreadLocalStorageC2Ev
FN:38,_ZN4Poco18ThreadLocalStorageD2Ev
FN:47,_ZN4Poco18ThreadLocalStorage3getEPKv
FN:63,_ZN4Poco18ThreadLocalStorage7currentEv
FN:77,_ZN4Poco18ThreadLocalStorage5clearEv
FN:85,_Z41__static_initialization_and_destruction_0ii
FN:85,_GLOBAL__sub_I_ThreadLocal.cpp
FNDA:0,_ZN4Poco15TLSAbstractSlotC2Ev
FNDA:0,_ZN4Poco15TLSAbstractSlotD0Ev
FNDA:0,_ZN4Poco15TLSAbstractSlotD2Ev
FNDA:0,_ZN4Poco18ThreadLocalStorageC2Ev
FNDA:0,_ZN4Poco18ThreadLocalStorageD2Ev
FNDA:0,_ZN4Poco18ThreadLocalStorage3getEPKv
FNDA:0,_ZN4Poco18ThreadLocalStorage7currentEv
FNDA:0,_ZN4Poco18ThreadLocalStorage5clearEv
FNDA:1,_GLOBAL__sub_I_ThreadLocal.cpp
FNDA:1,_Z41__static_initialization_and_destruction_0ii
FNF:10
FNH:2
DA:23,0
DA:25,0
DA:28,0
DA:30,0
DA:33,0
DA:35,0
DA:38,0
DA:40,0
DA:42,0
DA:44,0
DA:47,0
DA:49,0
DA:50,0
DA:51,0
DA:53,0
DA:59,1
DA:63,0
DA:65,0
DA:66,0
DA:68,0
DA:72,0
DA:77,0
DA:79,0
DA:80,0
DA:81,0
DA:82,0
DA:85,3
LF:27
LH:2
end_of_record
SF:/usr/include/c++/7/bits/alloc_traits.h
FN:435,_ZNSt16allocator_traitsISaISt13_Rb_tree_nodeISt4pairIKPKvPN4Poco15TLSAbstractSlotEEEEE8allocateERSA_m
FN:461,_ZNSt16allocator_traitsISaISt13_Rb_tree_nodeISt4pairIKPKvPN4Poco15TLSAbstractSlotEEEEE10deallocateERSA_PS9_m
FN:474,_ZNSt16allocator_traitsISaISt13_Rb_tree_nodeISt4pairIKPKvPN4Poco15TLSAbstractSlotEEEEE9constructIS8_JS8_EEEvRSA_PT_DpOT0_
FN:486,_ZNSt16allocator_traitsISaISt13_Rb_tree_nodeISt4pairIKPKvPN4Poco15TLSAbstractSlotEEEEE7destroyIS8_EEvRSA_PT_
FNDA:0,_ZNSt16allocator_traitsISaISt13_Rb_tree_nodeISt4pairIKPKvPN4Poco15TLSAbstractSlotEEEEE8allocateERSA_m
FNDA:0,_ZNSt16allocator_traitsISaISt13_Rb_tree_nodeISt4pairIKPKvPN4Poco15TLSAbstractSlotEEEEE10deallocateERSA_PS9_m
FNDA:0,_ZNSt16allocator_traitsISaISt13_Rb_tree_nodeISt4pairIKPKvPN4Poco15TLSAbstractSlotEEEEE9constructIS8_JS8_EEEvRSA_PT_DpOT0_
FNDA:0,_ZNSt16allocator_traitsISaISt13_Rb_tree_nodeISt4pairIKPKvPN4Poco15TLSAbstractSlotEEEEE7destroyIS8_EEvRSA_PT_
FNF:4
FNH:0
DA:435,0
DA:436,0
DA:461,0
DA:462,0
DA:474,0
DA:475,0
DA:486,0
DA:487,0
LF:8
LH:0
end_of_record
SF:/usr/include/c++/7/bits/allocator.h
FN:131,_ZNSaISt13_Rb_tree_nodeISt4pairIKPKvPN4Poco15TLSAbstractSlotEEEEC2Ev
FN:139,_ZNSaISt13_Rb_tree_nodeISt4pairIKPKvPN4Poco15TLSAbstractSlotEEEED2Ev
FNDA:0,_ZNSaISt13_Rb_tree_nodeISt4pairIKPKvPN4Poco15TLSAbstractSlotEEEEC2Ev
FNDA:0,_ZNSaISt13_Rb_tree_nodeISt4pairIKPKvPN4Poco15TLSAbstractSlotEEEED2Ev
FNF:2
FNH:0
DA:131,0
DA:139,0
LF:2
LH:0
end_of_record
SF:/usr/include/c++/7/bits/move.h
FN:73,_ZSt7forwardIRPKvEOT_RNSt16remove_referenceIS3_E4typeE
FN:73,_ZSt7forwardIPN4Poco15TLSAbstractSlotEEOT_RNSt16remove_referenceIS3_E4typeE
FN:73,_ZSt7forwardIRPSt13_Rb_tree_nodeISt4pairIKPKvPN4Poco15TLSAbstractSlotEEEEOT_RNSt16remove_referenceISC_E4typeE
FN:73,_ZSt7forwardISt17_Rb_tree_iteratorISt4pairIKPKvPN4Poco15TLSAbstractSlotEEEEOT_RNSt16remove_referenceISA_E4typeE
FN:73,_ZSt7forwardIRPSt18_Rb_tree_node_baseEOT_RNSt16remove_referenceIS3_E4typeE
FN:73,_ZSt7forwardIbEOT_RNSt16remove_referenceIS0_E4typeE
FN:73,_ZSt7forwardISt4pairIKPKvPN4Poco15TLSAbstractSlotEEEOT_RNSt16remove_referenceIS8_E4typeE
FN:98,_ZSt4moveIRSt4pairIKPKvPN4Poco15TLSAbstractSlotEEEONSt16remove_referenceIT_E4typeEOSA_
FNDA:0,_ZSt7forwardIbEOT_RNSt16remove_referenceIS0_E4typeE
FNDA:0,_ZSt7forwardISt17_Rb_tree_iteratorISt4pairIKPKvPN4Poco15TLSAbstractSlotEEEEOT_RNSt16remove_referenceISA_E4typeE
FNDA:0,_ZSt7forwardIRPSt18_Rb_tree_node_baseEOT_RNSt16remove_referenceIS3_E4typeE
FNDA:0,_ZSt7forwardIRPSt13_Rb_tree_nodeISt4pairIKPKvPN4Poco15TLSAbstractSlotEEEEOT_RNSt16remove_referenceISC_E4typeE
FNDA:0,_ZSt7forwardISt4pairIKPKvPN4Poco15TLSAbstractSlotEEEOT_RNSt16remove_referenceIS8_E4typeE
FNDA:0,_ZSt7forwardIPN4Poco15TLSAbstractSlotEEOT_RNSt16remove_referenceIS3_E4typeE
FNDA:0,_ZSt7forwardIRPKvEOT_RNSt16remove_referenceIS3_E4typeE
FNDA:0,_ZSt4moveIRSt4pairIKPKvPN4Poco15TLSAbstractSlotEEEONSt16remove_referenceIT_E4typeEOSA_
FNF:8
FNH:0
DA:73,0
DA:74,0
DA:98,0
DA:99,0
LF:4
LH:0
end_of_record
SF:/usr/include/c++/7/bits/stl_function.h
FN:385,_ZNKSt4lessIPKvEclERKS1_S4_
FN:886,_ZNKSt10_Select1stISt4pairIKPKvPN4Poco15TLSAbstractSlotEEEclERS7_
FN:890,_ZNKSt10_Select1stISt4pairIKPKvPN4Poco15TLSAbstractSlotEEEclERKS7_
FNDA:0,_ZNKSt4lessIPKvEclERKS1_S4_
FNDA:0,_ZNKSt10_Select1stISt4pairIKPKvPN4Poco15TLSAbstractSlotEEEclERS7_
FNDA:0,_ZNKSt10_Select1stISt4pairIKPKvPN4Poco15TLSAbstractSlotEEEclERKS7_
FNF:3
FNH:0
DA:385,0
DA:386,0
DA:886,0
DA:887,0
DA:890,0
DA:891,0
LF:6
LH:0
end_of_record
SF:/usr/include/c++/7/bits/stl_map.h
FN:177,_ZNSt3mapIPKvPN4Poco15TLSAbstractSlotESt4lessIS1_ESaISt4pairIKS1_S4_EEEC2Ev
FN:294,_ZNSt3mapIPKvPN4Poco15TLSAbstractSlotESt4lessIS1_ESaISt4pairIKS1_S4_EEED2Ev
FN:348,_ZNSt3mapIPKvPN4Poco15TLSAbstractSlotESt4lessIS1_ESaISt4pairIKS1_S4_EEE5beginEv
FN:366,_ZNSt3mapIPKvPN4Poco15TLSAbstractSlotESt4lessIS1_ESaISt4pairIKS1_S4_EEE3endEv
FN:802,_ZNSt3mapIPKvPN4Poco15TLSAbstractSlotESt4lessIS1_ESaISt4pairIKS1_S4_EEE6insertEOS9_
FN:1162,_ZNSt3mapIPKvPN4Poco15TLSAbstractSlotESt4lessIS1_ESaISt4pairIKS1_S4_EEE4findERS8_
FNDA:0,_ZNSt3mapIPKvPN4Poco15TLSAbstractSlotESt4lessIS1_ESaISt4pairIKS1_S4_EEEC2Ev
FNDA:0,_ZNSt3mapIPKvPN4Poco15TLSAbstractSlotESt4lessIS1_ESaISt4pairIKS1_S4_EEED2Ev
FNDA:0,_ZNSt3mapIPKvPN4Poco15TLSAbstractSlotESt4lessIS1_ESaISt4pairIKS1_S4_EEE5beginEv
FNDA:0,_ZNSt3mapIPKvPN4Poco15TLSAbstractSlotESt4lessIS1_ESaISt4pairIKS1_S4_EEE3endEv
FNDA:0,_ZNSt3mapIPKvPN4Poco15TLSAbstractSlotESt4lessIS1_ESaISt4pairIKS1_S4_EEE6insertEOS9_
FNDA:0,_ZNSt3mapIPKvPN4Poco15TLSAbstractSlotESt4lessIS1_ESaISt4pairIKS1_S4_EEE4findERS8_
FNF:6
FNH:0
DA:177,0
DA:294,0
DA:348,0
DA:349,0
DA:366,0
DA:367,0
DA:802,0
DA:803,0
DA:1162,0
DA:1163,0
LF:10
LH:0
end_of_record
SF:/usr/include/c++/7/bits/stl_pair.h
FN:311,_ZNSt4pairIPSt18_Rb_tree_node_baseS1_EC2IRS1_Lb1EEEOT_RKS1_
FN:341,_ZNSt4pairIPSt18_Rb_tree_node_baseS1_EC2IRPSt13_Rb_tree_nodeIS_IKPKvPN4Poco15TLSAbstractSlotEEERS1_Lb1EEEOT_OT0_
FN:341,_ZNSt4pairISt17_Rb_tree_iteratorIS_IKPKvPN4Poco15TLSAbstractSlotEEEbEC2IS8_bLb1EEEOT_OT0_
FN:341,_ZNSt4pairIKPKvPN4Poco15TLSAbstractSlotEEC1IRS1_S5_Lb1EEEOT_OT0_
FNDA:0,_ZNSt4pairIPSt18_Rb_tree_node_baseS1_EC2IRS1_Lb1EEEOT_RKS1_
FNDA:0,_ZNSt4pairISt17_Rb_tree_iteratorIS_IKPKvPN4Poco15TLSAbstractSlotEEEbEC2IS8_bLb1EEEOT_OT0_
FNDA:0,_ZNSt4pairIPSt18_Rb_tree_node_baseS1_EC2IRPSt13_Rb_tree_nodeIS_IKPKvPN4Poco15TLSAbstractSlotEEERS1_Lb1EEEOT_OT0_
FNDA:0,_ZNSt4pairIKPKvPN4Poco15TLSAbstractSlotEEC1IRS1_S5_Lb1EEEOT_OT0_
FNF:4
FNH:0
DA:311,0
DA:312,0
DA:341,0
DA:342,0
LF:4
LH:0
end_of_record
SF:/usr/include/c++/7/bits/stl_tree.h
FN:146,_ZNSt20_Rb_tree_key_compareISt4lessIPKvEEC2Ev
FN:173,_ZNSt15_Rb_tree_headerC2Ev
FN:206,_ZNSt15_Rb_tree_header8_M_resetEv
FN:234,_ZNSt13_Rb_tree_nodeISt4pairIKPKvPN4Poco15TLSAbstractSlotEEE9_M_valptrEv
FN:238,_ZNKSt13_Rb_tree_nodeISt4pairIKPKvPN4Poco15TLSAbstractSlotEEE9_M_valptrEv
FN:273,_ZNSt17_Rb_tree_iteratorISt4pairIKPKvPN4Poco15TLSAbstractSlotEEEC2EPSt18_Rb_tree_node_base
FN:277,_ZNKSt17_Rb_tree_iteratorISt4pairIKPKvPN4Poco15TLSAbstractSlotEEEdeEv
FN:281,_ZNKSt17_Rb_tree_iteratorISt4pairIKPKvPN4Poco15TLSAbstractSlotEEEptEv
FN:285,_ZNSt17_Rb_tree_iteratorISt4pairIKPKvPN4Poco15TLSAbstractSlotEEEppEv
FN:300,_ZNSt17_Rb_tree_iteratorISt4pairIKPKvPN4Poco15TLSAbstractSlotEEEmmEv
FN:315,_ZNKSt17_Rb_tree_iteratorISt4pairIKPKvPN4Poco15TLSAbstractSlotEEEeqERKS8_
FN:319,_ZNKSt17_Rb_tree_iteratorISt4pairIKPKvPN4Poco15TLSAbstractSlotEEEneERKS8_
FN:546,_ZNSt8_Rb_treeIPKvSt4pairIKS1_PN4Poco15TLSAbstractSlotEESt10_Select1stIS7_ESt4lessIS1_ESaIS7_EE11_Alloc_nodeC2ERSD_
FN:554,_ZNKSt8_Rb_treeIPKvSt4pairIKS1_PN4Poco15TLSAbstractSlotEESt10_Select1stIS7_ESt4lessIS1_ESaIS7_EE11_Alloc_nodeclIS7_EEPSt13_Rb_tree_nodeIS7_EOT_
FN:574,_ZNSt8_Rb_treeIPKvSt4pairIKS1_PN4Poco15TLSAbstractSlotEESt10_Select1stIS7_ESt4lessIS1_ESaIS7_EE21_M_get_Node_allocatorEv
FN:587,_ZNSt8_Rb_treeIPKvSt4pairIKS1_PN4Poco15TLSAbstractSlotEESt10_Select1stIS7_ESt4lessIS1_ESaIS7_EE11_M_get_nodeEv
FN:591,_ZNSt8_Rb_treeIPKvSt4pairIKS1_PN4Poco15TLSAbstractSlotEESt10_Select1stIS7_ESt4lessIS1_ESaIS7_EE11_M_put_nodeEPSt13_Rb_tree_nodeIS7_E
FN:621,_ZNSt8_Rb_treeIPKvSt4pairIKS1_PN4Poco15TLSAbstractSlotEESt10_Select1stIS7_ESt4lessIS1_ESaIS7_EE17_M_construct_nodeIJS7_EEEvPSt13_Rb_tree_nodeIS7_EDpOT_
FN:640,_ZNSt8_Rb_treeIPKvSt4pairIKS1_PN4Poco15TLSAbstractSlotEESt10_Select1stIS7_ESt4lessIS1_ESaIS7_EE14_M_create_nodeIJS7_EEEPSt13_Rb_tree_nodeIS7_EDpOT_
FN:648,_ZNSt8_Rb_treeIPKvSt4pairIKS1_PN4Poco15TLSAbstractSlotEESt10_Select1stIS7_ESt4lessIS1_ESaIS7_EE15_M_destroy_nodeEPSt13_Rb_tree_nodeIS7_E
FN:656,_ZNSt8_Rb_treeIPKvSt4pairIKS1_PN4Poco15TLSAbstractSlotEESt10_Select1stIS7_ESt4lessIS1_ESaIS7_EE12_M_drop_nodeEPSt13_Rb_tree_nodeIS7_E
FN:677,_ZNSt8_Rb_treeIPKvSt4pairIKS1_PN4Poco15TLSAbstractSlotEESt10_Select1stIS7_ESt4lessIS1_ESaIS7_EE13_Rb_tree_implISB_Lb1EED2Ev
FN:688,_ZNSt8_Rb_treeIPKvSt4pairIKS1_PN4Poco15TLSAbstractSlotEESt10_Select1stIS7_ESt4lessIS1_ESaIS7_EE13_Rb_tree_implISB_Lb1EEC2Ev
FN:736,_ZNSt8_Rb_treeIPKvSt4pairIKS1_PN4Poco15TLSAbstractSlotEESt10_Select1stIS7_ESt4lessIS1_ESaIS7_EE8_M_beginEv
FN:747,_ZNSt8_Rb_treeIPKvSt4pairIKS1_PN4Poco15TLSAbstractSlotEESt10_Select1stIS7_ESt4lessIS1_ESaIS7_EE6_M_endEv
FN:755,_ZNSt8_Rb_treeIPKvSt4pairIKS1_PN4Poco15TLSAbstractSlotEESt10_Select1stIS7_ESt4lessIS1_ESaIS7_EE8_S_valueEPKSt13_Rb_tree_nodeIS7_E
FN:759,_ZNSt8_Rb_treeIPKvSt4pairIKS1_PN4Poco15TLSAbstractSlotEESt10_Select1stIS7_ESt4lessIS1_ESaIS7_EE6_S_keyEPKSt13_Rb_tree_nodeIS7_E
FN:763,_ZNSt8_Rb_treeIPKvSt4pairIKS1_PN4Poco15TLSAbstractSlotEESt10_Select1stIS7_ESt4lessIS1_ESaIS7_EE7_S_leftEPSt18_Rb_tree_node_base
FN:771,_ZNSt8_Rb_treeIPKvSt4pairIKS1_PN4Poco15TLSAbstractSlotEESt10_Select1stIS7_ESt4lessIS1_ESaIS7_EE8_S_rightEPSt18_Rb_tree_node_base
FN:779,_ZNSt8_Rb_treeIPKvSt4pairIKS1_PN4Poco15TLSAbstractSlotEESt10_Select1stIS7_ESt4lessIS1_ESaIS7_EE8_S_valueEPKSt18_Rb_tree_node_base
FN:783,_ZNSt8_Rb_treeIPKvSt4pairIKS1_PN4Poco15TLSAbstractSlotEESt10_Select1stIS7_ESt4lessIS1_ESaIS7_EE6_S_keyEPKSt18_Rb_tree_node_base
FN:913,_ZNSt8_Rb_treeIPKvSt4pairIKS1_PN4Poco15TLSAbstractSlotEESt10_Select1stIS7_ESt4lessIS1_ESaIS7_EEC2Ev
FN:948,_ZNSt8_Rb_treeIPKvSt4pairIKS1_PN4Poco15TLSAbstractSlotEESt10_Select1stIS7_ESt4lessIS1_ESaIS7_EED2Ev
FN:960,_ZNSt8_Rb_treeIPKvSt4pairIKS1_PN4Poco15TLSAbstractSlotEESt10_Select1stIS7_ESt4lessIS1_ESaIS7_EE5beginEv
FN:968,_ZNSt8_Rb_treeIPKvSt4pairIKS1_PN4Poco15TLSAbstractSlotEESt10_Select1stIS7_ESt4lessIS1_ESaIS7_EE3endEv
FN:1740,_ZNSt8_Rb_treeIPKvSt4pairIKS1_PN4Poco15TLSAbstractSlotEESt10_Select1stIS7_ESt4lessIS1_ESaIS7_EE10_M_insert_IS7_NSD_11_Alloc_nodeEEESt17_Rb_tree_iteratorIS7_EPSt18_Rb_tree_node_baseSJ_OT_RT0_
FN:1850,_ZNSt8_Rb_treeIPKvSt4pairIKS1_PN4Poco15TLSAbstractSlotEESt10_Select1stIS7_ESt4lessIS1_ESaIS7_EE8_M_eraseEPSt13_Rb_tree_nodeIS7_E
FN:1867,_ZNSt8_Rb_treeIPKvSt4pairIKS1_PN4Poco15TLSAbstractSlotEESt10_Select1stIS7_ESt4lessIS1_ESaIS7_EE14_M_lower_boundEPSt13_Rb_tree_nodeIS7_EPSt18_Rb_tree_node_baseRS3_
FN:2028,_ZNSt8_Rb_treeIPKvSt4pairIKS1_PN4Poco15TLSAbstractSlotEESt10_Select1stIS7_ESt4lessIS1_ESaIS7_EE24_M_get_insert_unique_posERS3_
FN:2082,_ZNSt8_Rb_treeIPKvSt4pairIKS1_PN4Poco15TLSAbstractSlotEESt10_Select1stIS7_ESt4lessIS1_ESaIS7_EE16_M_insert_uniqueIS7_EES2_ISt17_Rb_tree_iteratorIS7_EbEOT_
FN:2520,_ZNSt8_Rb_treeIPKvSt4pairIKS1_PN4Poco15TLSAbstractSlotEESt10_Select1stIS7_ESt4lessIS1_ESaIS7_EE4findERS3_
FNDA:0,_ZNSt20_Rb_tree_key_compareISt4lessIPKvEEC2Ev
FNDA:0,_ZNSt15_Rb_tree_headerC2Ev
FNDA:0,_ZNSt15_Rb_tree_header8_M_resetEv
FNDA:0,_ZNSt13_Rb_tree_nodeISt4pairIKPKvPN4Poco15TLSAbstractSlotEEE9_M_valptrEv
FNDA:0,_ZNKSt13_Rb_tree_nodeISt4pairIKPKvPN4Poco15TLSAbstractSlotEEE9_M_valptrEv
FNDA:0,_ZNSt17_Rb_tree_iteratorISt4pairIKPKvPN4Poco15TLSAbstractSlotEEEC2EPSt18_Rb_tree_node_base
FNDA:0,_ZNKSt17_Rb_tree_iteratorISt4pairIKPKvPN4Poco15TLSAbstractSlotEEEdeEv
FNDA:0,_ZNKSt17_Rb_tree_iteratorISt4pairIKPKvPN4Poco15TLSAbstractSlotEEEptEv
FNDA:0,_ZNSt17_Rb_tree_iteratorISt4pairIKPKvPN4Poco15TLSAbstractSlotEEEppEv
FNDA:0,_ZNSt17_Rb_tree_iteratorISt4pairIKPKvPN4Poco15TLSAbstractSlotEEEmmEv
FNDA:0,_ZNKSt17_Rb_tree_iteratorISt4pairIKPKvPN4Poco15TLSAbstractSlotEEEeqERKS8_
FNDA:0,_ZNKSt17_Rb_tree_iteratorISt4pairIKPKvPN4Poco15TLSAbstractSlotEEEneERKS8_
FNDA:0,_ZNSt8_Rb_treeIPKvSt4pairIKS1_PN4Poco15TLSAbstractSlotEESt10_Select1stIS7_ESt4lessIS1_ESaIS7_EE11_Alloc_nodeC2ERSD_
FNDA:0,_ZNKSt8_Rb_treeIPKvSt4pairIKS1_PN4Poco15TLSAbstractSlotEESt10_Select1stIS7_ESt4lessIS1_ESaIS7_EE11_Alloc_nodeclIS7_EEPSt13_Rb_tree_nodeIS7_EOT_
FNDA:0,_ZNSt8_Rb_treeIPKvSt4pairIKS1_PN4Poco15TLSAbstractSlotEESt10_Select1stIS7_ESt4lessIS1_ESaIS7_EE21_M_get_Node_allocatorEv
FNDA:0,_ZNSt8_Rb_treeIPKvSt4pairIKS1_PN4Poco15TLSAbstractSlotEESt10_Select1stIS7_ESt4lessIS1_ESaIS7_EE11_M_get_nodeEv
FNDA:0,_ZNSt8_Rb_treeIPKvSt4pairIKS1_PN4Poco15TLSAbstractSlotEESt10_Select1stIS7_ESt4lessIS1_ESaIS7_EE11_M_put_nodeEPSt13_Rb_tree_nodeIS7_E
FNDA:0,_ZNSt8_Rb_treeIPKvSt4pairIKS1_PN4Poco15TLSAbstractSlotEESt10_Select1stIS7_ESt4lessIS1_ESaIS7_EE17_M_construct_nodeIJS7_EEEvPSt13_Rb_tree_nodeIS7_EDpOT_
FNDA:0,_ZNSt8_Rb_treeIPKvSt4pairIKS1_PN4Poco15TLSAbstractSlotEESt10_Select1stIS7_ESt4lessIS1_ESaIS7_EE14_M_create_nodeIJS7_EEEPSt13_Rb_tree_nodeIS7_EDpOT_
FNDA:0,_ZNSt8_Rb_treeIPKvSt4pairIKS1_PN4Poco15TLSAbstractSlotEESt10_Select1stIS7_ESt4lessIS1_ESaIS7_EE15_M_destroy_nodeEPSt13_Rb_tree_nodeIS7_E
FNDA:0,_ZNSt8_Rb_treeIPKvSt4pairIKS1_PN4Poco15TLSAbstractSlotEESt10_Select1stIS7_ESt4lessIS1_ESaIS7_EE12_M_drop_nodeEPSt13_Rb_tree_nodeIS7_E
FNDA:0,_ZNSt8_Rb_treeIPKvSt4pairIKS1_PN4Poco15TLSAbstractSlotEESt10_Select1stIS7_ESt4lessIS1_ESaIS7_EE13_Rb_tree_implISB_Lb1EED2Ev
